ccopy_reg
_reconstructor
p0
(cFWCore.ParameterSet.Config
Process
p1
c__builtin__
object
p2
Ntp3
Rp4
(dp5
V_Process__name
p6
VDemo
p7
sV_Process__filters
p8
(dp9
sV_Process__producers
p10
(dp11
VrandomEngineStateProducer
p12
g0
(cFWCore.ParameterSet.Modules
EDProducer
p13
g2
Ntp14
Rp15
(dp16
V_TypedParameterizable__type
p17
VRandomEngineStateProducer
p18
sV_Parameterizable__parameterNames
p19
(lp20
sV_isFrozen
p21
I00
sV_Parameterizable__validator
p22
NsV_isModified
p23
I00
sV_filename
p24
V/cvmfs/cms.cern.ch/slc7_amd64_gcc11/cms/cmssw-patch/CMSSW_13_0_5_patch1/src/IOMC/RandomEngine/python/IOMC_cff.py
p25
sV_lineNumber
p26
I172
sV_Labelable__label
p27
g12
sbsVbmtfDigis
p28
g0
(g13
g2
Ntp29
Rp30
(dp31
g17
VL1TRawToDigi
p32
sg19
(lp33
VSetup
p34
aVInputLabel
p35
aVFedIds
p36
aVFWId
p37
aVFWOverride
p38
aVlenSlinkHeader
p39
aVlenSlinkTrailer
p40
aVlenAMCHeader
p41
aVlenAMCTrailer
p42
aVlenAMC13Header
p43
aVlenAMC13Trailer
p44
asg21
I00
sg22
Nsg34
g0
(cFWCore.ParameterSet.Types
string
p45
g2
Ntp46
Rp47
(dp48
g21
I00
sV_ParameterTypeBase__isTracked
p49
I01
sg23
I00
sV_value
p50
Vstage2::BMTFSetup
p51
sbsg23
I00
sg35
g0
(cFWCore.ParameterSet.Types
InputTag
p52
g2
Ntp53
Rp54
(dp55
g21
I00
sg49
I01
sg23
I00
sV_InputTag__moduleLabel
p56
VrawDataCollector
p57
sV_InputTag__productInstance
p58
V
p59
sV_InputTag__processName
p60
g59
sbsg36
g0
(cFWCore.ParameterSet.Types
vint32
p61
c__builtin__
list
p62
(lp63
I1376
aI1377
atp64
Rp65
(dp66
g21
I00
sg49
I01
sg23
I00
sbsg37
g0
(cFWCore.ParameterSet.Types
uint32
p67
g2
Ntp68
Rp69
(dp70
g21
I00
sg49
I01
sg23
I00
sg50
I1
sbsg38
g0
(cFWCore.ParameterSet.Types
bool
p71
g2
Ntp72
Rp73
(dp74
g21
I00
sg49
I01
sg23
I00
sg50
I00
sbsg39
g0
(cFWCore.ParameterSet.Types
int32
p75
g2
Ntp76
Rp77
(dp78
g21
I00
sg49
I00
sg23
I00
sg50
I8
sbsg40
g0
(g75
g2
Ntp79
Rp80
(dp81
g21
I00
sg49
I00
sg23
I00
sg50
I8
sbsg41
g0
(g75
g2
Ntp82
Rp83
(dp84
g21
I00
sg49
I00
sg23
I00
sg50
I8
sbsg42
g0
(g75
g2
Ntp85
Rp86
(dp87
g21
I00
sg49
I00
sg23
I00
sg50
I0
sbsg43
g0
(g75
g2
Ntp88
Rp89
(dp90
g21
I00
sg49
I00
sg23
I00
sg50
I8
sbsg44
g0
(g75
g2
Ntp91
Rp92
(dp93
g21
I00
sg49
I00
sg23
I00
sg50
I8
sbsg24
V/cvmfs/cms.cern.ch/slc7_amd64_gcc11/cms/cmssw-patch/CMSSW_13_0_5_patch1/src/EventFilter/L1TRawToDigi/python/bmtfDigis_cfi.py
p94
sg26
I3
sg27
g28
sbsVcaloLayer1Digis
p95
g0
(g13
g2
Ntp96
Rp97
(dp98
g17
g32
sg19
(lp99
g34
ag35
ag36
ag37
aVdebug
p100
aVCTP7
p101
asg21
I00
sg22
Nsg34
g0
(g45
g2
Ntp102
Rp103
(dp104
g21
I00
sg49
I01
sg23
I00
sg50
Vstage2::CaloLayer1Setup
p105
sbsg23
I00
sg35
g0
(g52
g2
Ntp106
Rp107
(dp108
g21
I00
sg49
I01
sg23
I00
sg56
g57
sg58
g59
sg60
g59
sbsg36
g0
(g61
g62
(lp109
I1354
aI1356
aI1358
atp110
Rp111
(dp112
g21
I00
sg49
I01
sg23
I00
sbsg37
g0
(g67
g2
Ntp113
Rp114
(dp115
g21
I00
sg49
I01
sg23
I00
sg50
I305419896
sbsg100
g0
(g71
g2
Ntp116
Rp117
(dp118
g21
I00
sg49
I00
sg23
I00
sg50
I00
sbsg101
g0
(g71
g2
Ntp119
Rp120
(dp121
g21
I00
sg49
I00
sg23
I00
sg50
I01
sbsg24
V/cvmfs/cms.cern.ch/slc7_amd64_gcc11/cms/cmssw-patch/CMSSW_13_0_5_patch1/src/EventFilter/L1TRawToDigi/python/caloLayer1Digis_cfi.py
p122
sg26
I3
sg27
g95
sbsVcaloStage1Digis
p123
g0
(g13
g2
Ntp124
Rp125
(dp126
g17
g32
sg19
(lp127
g35
ag34
ag36
asg21
I00
sg22
Nsg35
g0
(g52
g2
Ntp128
Rp129
(dp130
g21
I00
sg49
I01
sg23
I00
sg56
g57
sg58
g59
sg60
g59
sbsg23
I00
sg34
g0
(g45
g2
Ntp131
Rp132
(dp133
g21
I00
sg49
I01
sg23
I00
sg50
Vstage1::CaloSetup
p134
sbsg36
g0
(g61
g62
(lp135
I1352
atp136
Rp137
(dp138
g21
I00
sg49
I01
sg23
I00
sbsg24
V/cvmfs/cms.cern.ch/slc7_amd64_gcc11/cms/cmssw-patch/CMSSW_13_0_5_patch1/src/EventFilter/L1TRawToDigi/python/caloStage1Digis_cfi.py
p139
sg26
I3
sg27
g123
sbsVcaloStage1FinalDigis
p140
g0
(g13
g2
Ntp141
Rp142
(dp143
g17
VL1TPhysicalEtAdder
p144
sg19
(lp145
VInputCollection
p146
aVInputRlxTauCollection
p147
aVInputIsoTauCollection
p148
aVInputPreGtJetCollection
p149
aVInputHFSumsCollection
p150
aVInputHFCountsCollection
p151
asg21
I00
sg22
Nsg146
g0
(g52
g2
Ntp152
Rp153
(dp154
g21
I00
sg49
I01
sg23
I00
sg56
g123
sg58
g59
sg60
g59
sbsg23
I00
sg147
g0
(g52
g2
Ntp155
Rp156
(dp157
g21
I00
sg49
I01
sg23
I00
sg56
VcaloStage1Digis
p158
sg58
VrlxTaus
p159
sg60
g59
sbsg148
g0
(g52
g2
Ntp160
Rp161
(dp162
g21
I00
sg49
I01
sg23
I00
sg56
VcaloStage1Digis
p163
sg58
VisoTaus
p164
sg60
g59
sbsg149
g0
(g52
g2
Ntp165
Rp166
(dp167
g21
I00
sg49
I01
sg23
I00
sg56
g123
sg58
g59
sg60
g59
sbsg150
g0
(g52
g2
Ntp168
Rp169
(dp170
g21
I00
sg49
I01
sg23
I00
sg56
VcaloStage1Digis
p171
sg58
VHFRingSums
p172
sg60
g59
sbsg151
g0
(g52
g2
Ntp173
Rp174
(dp175
g21
I00
sg49
I01
sg23
I00
sg56
VcaloStage1Digis
p176
sg58
VHFBitCounts
p177
sg60
g59
sbsg24
V/cvmfs/cms.cern.ch/slc7_amd64_gcc11/cms/cmssw-patch/CMSSW_13_0_5_patch1/src/L1Trigger/L1TCalorimeter/python/caloStage1FinalDigis_cfi.py
p178
sg26
I3
sg27
g140
sbsVcaloStage1LegacyFormatDigis
p179
g0
(g13
g2
Ntp180
Rp181
(dp182
g17
VL1TCaloUpgradeToGCTConverter
p183
sg19
(lp184
g146
ag147
ag148
ag150
ag151
asg21
I00
sg22
Nsg146
g0
(g52
g2
Ntp185
Rp186
(dp187
g21
I00
sg49
I01
sg23
I00
sg56
g123
sg58
g59
sg60
g59
sbsg23
I00
sg147
g0
(g52
g2
Ntp188
Rp189
(dp190
g21
I00
sg49
I01
sg23
I00
sg56
VcaloStage1Digis
p191
sg58
VrlxTaus
p192
sg60
g59
sbsg148
g0
(g52
g2
Ntp193
Rp194
(dp195
g21
I00
sg49
I01
sg23
I00
sg56
VcaloStage1Digis
p196
sg58
VisoTaus
p197
sg60
g59
sbsg150
g0
(g52
g2
Ntp198
Rp199
(dp200
g21
I00
sg49
I01
sg23
I00
sg56
VcaloStage1Digis
p201
sg58
VHFRingSums
p202
sg60
g59
sbsg151
g0
(g52
g2
Ntp203
Rp204
(dp205
g21
I00
sg49
I01
sg23
I00
sg56
VcaloStage1Digis
p206
sg58
VHFBitCounts
p207
sg60
g59
sbsg24
V/cvmfs/cms.cern.ch/slc7_amd64_gcc11/cms/cmssw-patch/CMSSW_13_0_5_patch1/src/L1Trigger/L1TCalorimeter/python/caloStage1LegacyFormatDigis_cfi.py
p208
sg26
I3
sg27
g179
sbsVcaloStage2Digis
p209
g0
(g13
g2
Ntp210
Rp211
(dp212
g17
g32
sg19
(lp213
g35
ag34
ag36
ag37
ag38
aVTMTCheck
p214
asg21
I00
sg22
Nsg35
g0
(g52
g2
Ntp215
Rp216
(dp217
g21
I00
sg49
I01
sg23
I00
sg56
g57
sg58
g59
sg60
g59
sbsg23
I00
sg34
g0
(g45
g2
Ntp218
Rp219
(dp220
g21
I00
sg49
I01
sg23
I00
sg50
Vstage2::CaloSetup
p221
sbsg36
g0
(g61
g62
(lp222
I1360
aI1366
atp223
Rp224
(dp225
g21
I00
sg49
I01
sg23
I00
sbsg37
g0
(g67
g2
Ntp226
Rp227
(dp228
g21
I00
sg49
I01
sg23
I00
sg50
I0
sbsg38
g0
(g71
g2
Ntp229
Rp230
(dp231
g21
I00
sg49
I01
sg23
I00
sg50
I00
sbsg214
g0
(g71
g2
Ntp232
Rp233
(dp234
g21
I00
sg49
I01
sg23
I00
sg50
I01
sbsg24
V/cvmfs/cms.cern.ch/slc7_amd64_gcc11/cms/cmssw-patch/CMSSW_13_0_5_patch1/src/EventFilter/L1TRawToDigi/python/caloStage2Digis_cfi.py
p235
sg26
I3
sg27
g209
sbsVcastorDigis
p236
g0
(g13
g2
Ntp237
Rp238
(dp239
g17
VCastorRawToDigi
p240
sg19
(lp241
VFilterDataQuality
p242
aVCastorFirstFED
p243
aVZDCFirstFED
p244
aVFEDs
p245
aVExceptionEmptyData
p246
aVComplainEmptyData
p247
aVfirstSample
p248
aVlastSample
p249
aVUnpackTTP
p250
aVsilent
p251
ag35
aVCastorCtdc
p252
aVUseNominalOrbitMessageTime
p253
aVExpectedOrbitMessageTime
p254
aVUnpackZDC
p255
asg21
I00
sg22
Nsg242
g0
(g71
g2
Ntp256
Rp257
(dp258
g21
I00
sg49
I01
sg23
I00
sg50
I01
sbsg23
I01
sg243
g0
(g75
g2
Ntp259
Rp260
(dp261
g21
I00
sg49
I01
sg23
I00
sg50
I690
sbsg244
g0
(g75
g2
Ntp262
Rp263
(dp264
g21
I00
sg49
I01
sg23
I00
sg50
I693
sbsg245
g0
(g61
g62
(lp265
I690
aI691
aI692
aI693
aI722
atp266
Rp267
(dp268
g21
I00
sg49
I00
sg23
I00
sbsg246
g0
(g71
g2
Ntp269
Rp270
(dp271
g21
I00
sg49
I00
sg23
I00
sg50
I00
sbsg247
g0
(g71
g2
Ntp272
Rp273
(dp274
g21
I00
sg49
I00
sg23
I00
sg50
I00
sbsg248
g0
(g75
g2
Ntp275
Rp276
(dp277
g21
I00
sg49
I01
sg23
I00
sg50
I0
sbsg249
g0
(g75
g2
Ntp278
Rp279
(dp280
g21
I00
sg49
I01
sg23
I00
sg50
I9
sbsg250
g0
(g71
g2
Ntp281
Rp282
(dp283
g21
I00
sg49
I01
sg23
I00
sg50
I01
sbsg251
g0
(g71
g2
Ntp284
Rp285
(dp286
g21
I00
sg49
I00
sg23
I00
sg50
I00
sbsg35
g0
(g52
g2
Ntp287
Rp288
(dp289
g21
I00
sg49
I01
sg23
I01
sg56
g57
sg58
g59
sg60
g59
sbsg252
g0
(g71
g2
Ntp290
Rp291
(dp292
g21
I00
sg49
I01
sg23
I00
sg50
I00
sbsg253
g0
(g71
g2
Ntp293
Rp294
(dp295
g21
I00
sg49
I01
sg23
I00
sg50
I01
sbsg254
g0
(g75
g2
Ntp296
Rp297
(dp298
g21
I00
sg49
I01
sg23
I00
sg50
I-1
sbsg255
g0
(g71
g2
Ntp299
Rp300
(dp301
g21
I00
sg49
I01
sg23
I00
sg50
I01
sbsg24
V/cvmfs/cms.cern.ch/slc7_amd64_gcc11/cms/cmssw-patch/CMSSW_13_0_5_patch1/src/Configuration/StandardSequences/python/RawToDigi_cff.py
p302
sg26
I34
sg27
g236
sbsVcsctfDigis
p303
g0
(g13
g2
Ntp304
Rp305
(dp306
g17
VCSCTFUnpacker
p307
sg19
(lp308
VMaxBX
p309
aVMinBX
p310
aVslot2sector
p311
aVmappingFile
p312
aVswapME1strips
p313
aVproducer
p314
asg21
I00
sg22
Nsg309
g0
(g75
g2
Ntp315
Rp316
(dp317
g21
I00
sg49
I01
sg23
I00
sg50
I11
sbsg23
I00
sg310
g0
(g75
g2
Ntp318
Rp319
(dp320
g21
I00
sg49
I01
sg23
I00
sg50
I5
sbsg311
g0
(g61
g62
(lp321
I0
aI0
aI0
aI0
aI0
aI0
aI0
aI0
aI0
aI0
aI0
aI0
aI0
aI0
aI0
aI0
aI0
aI0
aI0
aI0
aI0
aI0
atp322
Rp323
(dp324
g21
I00
sg49
I01
sg23
I00
sbsg312
g0
(g45
g2
Ntp325
Rp326
(dp327
g21
I00
sg49
I01
sg23
I00
sg50
g59
sbsg313
g0
(g71
g2
Ntp328
Rp329
(dp330
g21
I00
sg49
I01
sg23
I00
sg50
I00
sbsg314
g0
(g52
g2
Ntp331
Rp332
(dp333
g21
I00
sg49
I01
sg23
I01
sg56
g57
sg58
g59
sg60
g59
sbsg24
V/cvmfs/cms.cern.ch/slc7_amd64_gcc11/cms/cmssw-patch/CMSSW_13_0_5_patch1/src/L1Trigger/Configuration/python/L1TRawToDigi_cff.py
p334
sg26
I17
sg27
g303
sbsVctppsDiamondRawToDigi
p335
g0
(g13
g2
Ntp336
Rp337
(dp338
g17
VTotemVFATRawToDigi
p339
sg19
(lp340
VrawDataTag
p341
aVsubSystem
p342
aVfedIds
p343
aVRawUnpacking
p344
aVRawToDigi
p345
asg21
I00
sg22
Nsg341
g0
(g52
g2
Ntp346
Rp347
(dp348
g21
I00
sg49
I01
sg23
I00
sg56
g57
sg58
g59
sg60
g59
sbsg23
I01
sg342
g0
(g45
g2
Ntp349
Rp350
(dp351
g21
I00
sg49
I01
sg23
I01
sg50
VTimingDiamond
p352
sbsg343
g0
(cFWCore.ParameterSet.Types
vuint32
p353
g62
(lp354
I579
aI581
aI582
aI583
aI588
aI589
atp355
Rp356
(dp357
g21
I00
sg49
I01
sg23
I01
sbsg344
g0
(cFWCore.ParameterSet.Types
PSet
p358
g2
Ntp359
Rp360
(dp361
g21
I00
sg49
I01
sg23
I00
sg19
(lp362
Vverbosity
p363
asg22
Nsg363
g0
(g67
g2
Ntp364
Rp365
(dp366
g21
I00
sg49
I00
sg23
I00
sg50
I0
sbsbsg345
g0
(g358
g2
Ntp367
Rp368
(dp369
g21
I00
sg49
I01
sg23
I01
sg19
(lp370
g363
aVtestFootprint
p371
aVtestCRC
p372
aVtestID
p373
aVtestECMostFrequent
p374
aVtestBCMostFrequent
p375
aVEC_min
p376
aVBC_min
p377
aVEC_fraction
p378
aVBC_fraction
p379
aVprintErrorSummary
p380
aVprintUnknownFrameSummary
p381
asg22
Nsg363
g0
(g67
g2
Ntp382
Rp383
(dp384
g21
I00
sg49
I00
sg23
I00
sg50
I0
sbsg371
g0
(g67
g2
Ntp385
Rp386
(dp387
g21
I00
sg49
I01
sg23
I00
sg50
I2
sbsg372
g0
(g67
g2
Ntp388
Rp389
(dp390
g21
I00
sg49
I01
sg23
I01
sg50
I0
sbsg373
g0
(g67
g2
Ntp391
Rp392
(dp393
g21
I00
sg49
I01
sg23
I00
sg50
I2
sbsg374
g0
(g67
g2
Ntp394
Rp395
(dp396
g21
I00
sg49
I01
sg23
I01
sg50
I0
sbsg375
g0
(g67
g2
Ntp397
Rp398
(dp399
g21
I00
sg49
I01
sg23
I00
sg50
I2
sbsg376
g0
(g67
g2
Ntp400
Rp401
(dp402
g21
I00
sg49
I00
sg23
I00
sg50
I10
sbsg377
g0
(g67
g2
Ntp403
Rp404
(dp405
g21
I00
sg49
I00
sg23
I00
sg50
I10
sbsg378
g0
(cFWCore.ParameterSet.Types
double
p406
g2
Ntp407
Rp408
(dp409
g21
I00
sg49
I00
sg23
I00
sg50
F0.6
sbsg379
g0
(g406
g2
Ntp410
Rp411
(dp412
g21
I00
sg49
I00
sg23
I00
sg50
F0.6
sbsg380
g0
(g67
g2
Ntp413
Rp414
(dp415
g21
I00
sg49
I00
sg23
I00
sg50
I0
sbsg381
g0
(g67
g2
Ntp416
Rp417
(dp418
g21
I00
sg49
I00
sg23
I00
sg50
I0
sbsbsg24
V/cvmfs/cms.cern.ch/slc7_amd64_gcc11/cms/cmssw-patch/CMSSW_13_0_5_patch1/src/EventFilter/CTPPSRawToDigi/python/ctppsDiamondRawToDigi_cfi.py
p419
sg26
I11
sg27
g335
sbsVctppsPixelDigis
p420
g0
(g13
g2
Ntp421
Rp422
(dp423
g17
VCTPPSPixelRawToDigi
p424
sg19
(lp425
VisRun3
p426
aVincludeErrors
p427
aVinputLabel
p428
aVmappingLabel
p429
aVmightGet
p430
asg21
I00
sg22
Nsg426
g0
(g71
g2
Ntp431
Rp432
(dp433
g21
I00
sg49
I01
sg23
I00
sg50
I01
sbsg23
I01
sg427
g0
(g71
g2
Ntp434
Rp435
(dp436
g21
I00
sg49
I01
sg23
I00
sg50
I01
sbsg428
g0
(g52
g2
Ntp437
Rp438
(dp439
g21
I00
sg49
I01
sg23
I00
sg56
g57
sg58
g59
sg60
g59
sbsg429
g0
(g45
g2
Ntp440
Rp441
(dp442
g21
I00
sg49
I01
sg23
I00
sg50
VRPix
p443
sbsg430
g0
(cFWCore.ParameterSet.Types
_OptionalParameter
p444
g2
Ntp445
Rp446
(dp447
g21
I00
sg49
I00
sg23
I00
sV_ProxyParameter__type
p448
cFWCore.ParameterSet.Types
vstring
p449
sV_ProxyParameter__value
p450
Nsbsg24
V/cvmfs/cms.cern.ch/slc7_amd64_gcc11/cms/cmssw-patch/CMSSW_13_0_5_patch1/cfipython/slc7_amd64_gcc11/EventFilter/CTPPSRawToDigi/ctppsPixelDigis_cfi.py
p451
sg26
I3
sg27
g420
sbsVdttfDigis
p452
g0
(g13
g2
Ntp453
Rp454
(dp455
g17
VDTTFFEDReader
p456
sg19
(lp457
VDTTF_FED_Source
p458
aVverbose
p459
asg21
I00
sg22
Nsg458
g0
(g52
g2
Ntp460
Rp461
(dp462
g21
I00
sg49
I01
sg23
I01
sg56
g57
sg58
g59
sg60
g59
sbsg23
I00
sg459
g0
(g71
g2
Ntp463
Rp464
(dp465
g21
I00
sg49
I00
sg23
I00
sg50
I00
sbsg24
g334
sg26
I19
sg27
g452
sbsVecalDigisGPU
p466
g0
(g13
g2
Ntp467
Rp468
(dp469
g17
VEcalRawToDigiGPU
p470
sg19
(lp471
g35
ag245
aVmaxChannelsEB
p472
aVmaxChannelsEE
p473
aVdigisLabelEB
p474
aVdigisLabelEE
p475
ag430
asg21
I00
sg22
Nsg35
g0
(g52
g2
Ntp476
Rp477
(dp478
g21
I00
sg49
I01
sg23
I00
sg56
g57
sg58
g59
sg60
g59
sbsg23
I00
sg245
g0
(g61
g62
(lp479
I601
aI602
aI603
aI604
aI605
aI606
aI607
aI608
aI609
aI610
aI611
aI612
aI613
aI614
aI615
aI616
aI617
aI618
aI619
aI620
aI621
aI622
aI623
aI624
aI625
aI626
aI627
aI628
aI629
aI630
aI631
aI632
aI633
aI634
aI635
aI636
aI637
aI638
aI639
aI640
aI641
aI642
aI643
aI644
aI645
aI646
aI647
aI648
aI649
aI650
aI651
aI652
aI653
aI654
atp480
Rp481
(dp482
g21
I00
sg49
I01
sg23
I00
sbsg472
g0
(g67
g2
Ntp483
Rp484
(dp485
g21
I00
sg49
I01
sg23
I00
sg50
I61200
sbsg473
g0
(g67
g2
Ntp486
Rp487
(dp488
g21
I00
sg49
I01
sg23
I00
sg50
I14648
sbsg474
g0
(g45
g2
Ntp489
Rp490
(dp491
g21
I00
sg49
I01
sg23
I00
sg50
VebDigis
p492
sbsg475
g0
(g45
g2
Ntp493
Rp494
(dp495
g21
I00
sg49
I01
sg23
I00
sg50
VeeDigis
p496
sbsg430
g0
(g444
g2
Ntp497
Rp498
(dp499
g21
I00
sg49
I00
sg23
I00
sg448
g449
sg450
Nsbsg24
V/cvmfs/cms.cern.ch/slc7_amd64_gcc11/cms/cmssw-patch/CMSSW_13_0_5_patch1/src/EventFilter/EcalRawToDigi/python/ecalDigis_cff.py
p500
sg26
I23
sg27
g466
sbsVecalPreshowerDigis
p501
g0
(g13
g2
Ntp502
Rp503
(dp504
g17
VESRawToDigi
p505
sg19
(lp506
VsourceTag
p507
aVdebugMode
p508
aVInstanceES
p509
aVLookupTable
p510
aVESdigiCollection
p511
ag430
asg21
I00
sg22
Nsg507
g0
(g52
g2
Ntp512
Rp513
(dp514
g21
I00
sg49
I01
sg23
I01
sg56
g57
sg58
g59
sg60
g59
sbsg23
I01
sg508
g0
(g71
g2
Ntp515
Rp516
(dp517
g21
I00
sg49
I00
sg23
I00
sg50
I00
sbsg509
g0
(g45
g2
Ntp518
Rp519
(dp520
g21
I00
sg49
I01
sg23
I00
sg50
g59
sbsg510
g0
(cFWCore.ParameterSet.Types
FileInPath
p521
g2
Ntp522
Rp523
(dp524
g21
I00
sg49
I01
sg23
I00
sg50
VEventFilter/ESDigiToRaw/data/ES_lookup_table.dat
p525
sbsg511
g0
(g45
g2
Ntp526
Rp527
(dp528
g21
I00
sg49
I01
sg23
I00
sg50
g59
sbsg430
g0
(g444
g2
Ntp529
Rp530
(dp531
g21
I00
sg49
I00
sg23
I00
sg448
g449
sg450
Nsbsg24
g302
sg26
I16
sg27
g501
sbsVemtfStage2Digis
p532
g0
(g13
g2
Ntp533
Rp534
(dp535
g17
g32
sg19
(lp536
g34
ag35
ag36
ag37
ag100
aVMTF7
p537
asg21
I00
sg22
Nsg34
g0
(g45
g2
Ntp538
Rp539
(dp540
g21
I00
sg49
I01
sg23
I00
sg50
Vstage2::EMTFSetup
p541
sbsg23
I00
sg35
g0
(g52
g2
Ntp542
Rp543
(dp544
g21
I00
sg49
I01
sg23
I00
sg56
g57
sg58
g59
sg60
g59
sbsg36
g0
(g61
g62
(lp545
I1384
aI1385
atp546
Rp547
(dp548
g21
I00
sg49
I01
sg23
I00
sbsg37
g0
(g67
g2
Ntp549
Rp550
(dp551
g21
I00
sg49
I01
sg23
I00
sg50
I0
sbsg100
g0
(g71
g2
Ntp552
Rp553
(dp554
g21
I00
sg49
I00
sg23
I00
sg50
I00
sbsg537
g0
(g71
g2
Ntp555
Rp556
(dp557
g21
I00
sg49
I00
sg23
I00
sg50
I01
sbsg24
V/cvmfs/cms.cern.ch/slc7_amd64_gcc11/cms/cmssw-patch/CMSSW_13_0_5_patch1/src/EventFilter/L1TRawToDigi/python/emtfStage2Digis_cfi.py
p558
sg26
I3
sg27
g532
sbsVgctDigis
p559
g0
(g13
g2
Ntp560
Rp561
(dp562
g17
VGctRawToDigi
p563
sg19
(lp564
VunpackSharedRegions
p565
aVnumberOfGctSamplesToUnpack
p566
aVnumberOfRctSamplesToUnpack
p567
aVhltMode
p568
ag428
aVunpackerVersion
p569
aVgctFedId
p570
aVcheckHeaders
p571
ag459
ag430
asg21
I00
sg22
Nsg565
g0
(g71
g2
Ntp572
Rp573
(dp574
g21
I00
sg49
I01
sg23
I00
sg50
I00
sbsg23
I00
sg566
g0
(g67
g2
Ntp575
Rp576
(dp577
g21
I00
sg49
I01
sg23
I00
sg50
I1
sbsg567
g0
(g67
g2
Ntp578
Rp579
(dp580
g21
I00
sg49
I01
sg23
I00
sg50
I1
sbsg568
g0
(g71
g2
Ntp581
Rp582
(dp583
g21
I00
sg49
I01
sg23
I00
sg50
I00
sbsg428
g0
(g52
g2
Ntp584
Rp585
(dp586
g21
I00
sg49
I01
sg23
I01
sg56
g57
sg58
g59
sg60
g59
sbsg569
g0
(g67
g2
Ntp587
Rp588
(dp589
g21
I00
sg49
I01
sg23
I00
sg50
I0
sbsg570
g0
(g75
g2
Ntp590
Rp591
(dp592
g21
I00
sg49
I00
sg23
I00
sg50
I745
sbsg571
g0
(g71
g2
Ntp593
Rp594
(dp595
g21
I00
sg49
I00
sg23
I00
sg50
I00
sbsg459
g0
(g71
g2
Ntp596
Rp597
(dp598
g21
I00
sg49
I00
sg23
I00
sg50
I00
sbsg430
g0
(g444
g2
Ntp599
Rp600
(dp601
g21
I00
sg49
I00
sg23
I00
sg448
g449
sg450
Nsbsg24
g334
sg26
I21
sg27
g559
sbsVgmtStage2Digis
p602
g0
(g13
g2
Ntp603
Rp604
(dp605
g17
g32
sg19
(lp606
g35
ag34
ag36
asg21
I00
sg22
Nsg35
g0
(g52
g2
Ntp607
Rp608
(dp609
g21
I00
sg49
I01
sg23
I00
sg56
g57
sg58
g59
sg60
g59
sbsg23
I00
sg34
g0
(g45
g2
Ntp610
Rp611
(dp612
g21
I00
sg49
I01
sg23
I00
sg50
Vstage2::GMTSetup
p613
sbsg36
g0
(g61
g62
(lp614
I1402
atp615
Rp616
(dp617
g21
I00
sg49
I01
sg23
I00
sbsg24
V/cvmfs/cms.cern.ch/slc7_amd64_gcc11/cms/cmssw-patch/CMSSW_13_0_5_patch1/src/EventFilter/L1TRawToDigi/python/gmtStage2Digis_cfi.py
p618
sg26
I3
sg27
g602
sbsVgtDigis
p619
g0
(g13
g2
Ntp620
Rp621
(dp622
g17
VL1GlobalTriggerRawToDigi
p623
sg19
(lp624
VDaqGtInputTag
p625
aVDaqGtFedId
p626
aVActiveBoardsMask
p627
aVUnpackBxInEvent
p628
aVVerbosity
p629
ag430
asg21
I00
sg22
Nsg625
g0
(g52
g2
Ntp630
Rp631
(dp632
g21
I00
sg49
I01
sg23
I01
sg56
g57
sg58
g59
sg60
g59
sbsg23
I00
sg626
g0
(g75
g2
Ntp633
Rp634
(dp635
g21
I00
sg49
I00
sg23
I00
sg50
I813
sbsg627
g0
(g67
g2
Ntp636
Rp637
(dp638
g21
I00
sg49
I01
sg23
I00
sg50
I65535
sbsg628
g0
(g75
g2
Ntp639
Rp640
(dp641
g21
I00
sg49
I01
sg23
I00
sg50
I-1
sbsg629
g0
(g75
g2
Ntp642
Rp643
(dp644
g21
I00
sg49
I00
sg23
I00
sg50
I0
sbsg430
g0
(g444
g2
Ntp645
Rp646
(dp647
g21
I00
sg49
I00
sg23
I00
sg448
g449
sg450
Nsbsg24
g334
sg26
I23
sg27
g619
sbsVgtEvmDigis
p648
g0
(g13
g2
Ntp649
Rp650
(dp651
g17
VL1GlobalTriggerEvmRawToDigi
p652
sg19
(lp653
VEvmGtInputTag
p654
aVEvmGtFedId
p655
ag627
ag628
aVBstLengthBytes
p656
asg21
I00
sg22
Nsg654
g0
(g52
g2
Ntp657
Rp658
(dp659
g21
I00
sg49
I01
sg23
I01
sg56
g57
sg58
g59
sg60
g59
sbsg23
I00
sg655
g0
(g75
g2
Ntp660
Rp661
(dp662
g21
I00
sg49
I00
sg23
I00
sg50
I812
sbsg627
g0
(g67
g2
Ntp663
Rp664
(dp665
g21
I00
sg49
I01
sg23
I00
sg50
I65535
sbsg628
g0
(g75
g2
Ntp666
Rp667
(dp668
g21
I00
sg49
I01
sg23
I00
sg50
I-1
sbsg656
g0
(g75
g2
Ntp669
Rp670
(dp671
g21
I00
sg49
I01
sg23
I00
sg50
I-1
sbsg24
g334
sg26
I25
sg27
g648
sbsVgtStage2Digis
p672
g0
(g13
g2
Ntp673
Rp674
(dp675
g17
g32
sg19
(lp676
g35
ag34
ag36
asg21
I00
sg22
Nsg35
g0
(g52
g2
Ntp677
Rp678
(dp679
g21
I00
sg49
I01
sg23
I00
sg56
g57
sg58
g59
sg60
g59
sbsg23
I00
sg34
g0
(g45
g2
Ntp680
Rp681
(dp682
g21
I00
sg49
I01
sg23
I00
sg50
Vstage2::GTSetup
p683
sbsg36
g0
(g61
g62
(lp684
I1404
atp685
Rp686
(dp687
g21
I00
sg49
I01
sg23
I00
sbsg24
V/cvmfs/cms.cern.ch/slc7_amd64_gcc11/cms/cmssw-patch/CMSSW_13_0_5_patch1/src/EventFilter/L1TRawToDigi/python/gtStage2Digis_cfi.py
p688
sg26
I3
sg27
g672
sbsVgtTestcrateStage2Digis
p689
g0
(g13
g2
Ntp690
Rp691
(dp692
g17
g32
sg19
(lp693
g35
ag34
ag36
asg21
I00
sg22
Nsg35
g0
(g52
g2
Ntp694
Rp695
(dp696
g21
I00
sg49
I01
sg23
I00
sg56
g57
sg58
g59
sg60
g59
sbsg23
I00
sg34
g0
(g45
g2
Ntp697
Rp698
(dp699
g21
I00
sg49
I01
sg23
I00
sg50
Vstage2::GTSetup
p700
sbsg36
g0
(g61
g62
(lp701
I1405
atp702
Rp703
(dp704
g21
I00
sg49
I01
sg23
I00
sbsg24
V/cvmfs/cms.cern.ch/slc7_amd64_gcc11/cms/cmssw-patch/CMSSW_13_0_5_patch1/src/EventFilter/L1TRawToDigi/python/gtTestcrateStage2Digis_cfi.py
p705
sg26
I3
sg27
g689
sbsVhcalDigis
p706
g0
(g13
g2
Ntp707
Rp708
(dp709
g17
VHcalRawToDigi
p710
sg19
(lp711
VHcalFirstFED
p712
ag248
ag249
ag242
ag245
ag255
aVUnpackCalib
p713
aVUnpackUMNio
p714
ag250
ag251
aVsaveQIE10DataNSamples
p715
aVsaveQIE10DataTags
p716
aVsaveQIE11DataNSamples
p717
aVsaveQIE11DataTags
p718
ag247
aVUnpackerMode
p719
ag254
ag35
aVElectronicsMap
p720
ag430
asg21
I00
sg22
Nsg712
g0
(g75
g2
Ntp721
Rp722
(dp723
g21
I00
sg49
I00
sg23
I00
sg50
I700
sbsg23
I01
sg248
g0
(g75
g2
Ntp724
Rp725
(dp726
g21
I00
sg49
I01
sg23
I00
sg50
I0
sbsg249
g0
(g75
g2
Ntp727
Rp728
(dp729
g21
I00
sg49
I01
sg23
I00
sg50
I9
sbsg242
g0
(g71
g2
Ntp730
Rp731
(dp732
g21
I00
sg49
I01
sg23
I00
sg50
I01
sbsg245
g0
(g61
g62
(lp733
tp734
Rp735
(dp736
g21
I00
sg49
I00
sg23
I00
sbsg255
g0
(g71
g2
Ntp737
Rp738
(dp739
g21
I00
sg49
I00
sg23
I00
sg50
I01
sbsg713
g0
(g71
g2
Ntp740
Rp741
(dp742
g21
I00
sg49
I00
sg23
I00
sg50
I01
sbsg714
g0
(g71
g2
Ntp743
Rp744
(dp745
g21
I00
sg49
I00
sg23
I00
sg50
I01
sbsg250
g0
(g71
g2
Ntp746
Rp747
(dp748
g21
I00
sg49
I00
sg23
I00
sg50
I01
sbsg251
g0
(g71
g2
Ntp749
Rp750
(dp751
g21
I00
sg49
I00
sg23
I00
sg50
I01
sbsg715
g0
(g61
g62
(lp752
tp753
Rp754
(dp755
g21
I00
sg49
I00
sg23
I00
sbsg716
g0
(g449
g62
(lp756
tp757
Rp758
(dp759
g21
I00
sg49
I00
sg23
I00
sV_nPerLine
p760
I1
sbsg717
g0
(g61
g62
(lp761
tp762
Rp763
(dp764
g21
I00
sg49
I00
sg23
I00
sbsg718
g0
(g449
g62
(lp765
tp766
Rp767
(dp768
g21
I00
sg49
I00
sg23
I00
sg760
I1
sbsg247
g0
(g71
g2
Ntp769
Rp770
(dp771
g21
I00
sg49
I00
sg23
I00
sg50
I00
sbsg719
g0
(g75
g2
Ntp772
Rp773
(dp774
g21
I00
sg49
I00
sg23
I00
sg50
I0
sbsg254
g0
(g75
g2
Ntp775
Rp776
(dp777
g21
I00
sg49
I00
sg23
I00
sg50
I-1
sbsg35
g0
(g52
g2
Ntp778
Rp779
(dp780
g21
I00
sg49
I01
sg23
I01
sg56
g57
sg58
g59
sg60
g59
sbsg720
g0
(g45
g2
Ntp781
Rp782
(dp783
g21
I00
sg49
I01
sg23
I00
sg50
g59
sbsg430
g0
(g444
g2
Ntp784
Rp785
(dp786
g21
I00
sg49
I00
sg23
I00
sg448
g449
sg450
Nsbsg24
g302
sg26
I19
sg27
g706
sbsVhfnoseDigis
p787
g0
(g13
g2
Ntp788
Rp789
(dp790
g17
VHFNoseRawToDigiFake
p791
sg19
(lp792
g787
ag430
asg21
I00
sg22
Nsg787
g0
(g52
g2
Ntp793
Rp794
(dp795
g21
I00
sg49
I01
sg23
I00
sg56
VsimHFNoseUnsuppressedDigis
p796
sg58
VHFNose
p797
sg60
g59
sbsg23
I00
sg430
g0
(g444
g2
Ntp798
Rp799
(dp800
g21
I00
sg49
I00
sg23
I00
sg448
g449
sg450
Nsbsg24
V/cvmfs/cms.cern.ch/slc7_amd64_gcc11/cms/cmssw-patch/CMSSW_13_0_5_patch1/src/EventFilter/HGCalRawToDigi/python/HGCalRawToDigi_cfi.py
p801
sg26
I8
sg27
g787
sbsVhgcalDigis
p802
g0
(g13
g2
Ntp803
Rp804
(dp805
g17
VHGCalRawToDigiFake
p806
sg19
(lp807
g496
aVfhDigis
p808
aVbhDigis
p809
ag430
asg21
I00
sg22
Nsg496
g0
(g52
g2
Ntp810
Rp811
(dp812
g21
I00
sg49
I01
sg23
I00
sg56
VsimHGCalUnsuppressedDigis
p813
sg58
VEE
p814
sg60
g59
sbsg23
I00
sg808
g0
(g52
g2
Ntp815
Rp816
(dp817
g21
I00
sg49
I01
sg23
I00
sg56
g813
sg58
VHEfront
p818
sg60
g59
sbsg809
g0
(g52
g2
Ntp819
Rp820
(dp821
g21
I00
sg49
I01
sg23
I00
sg56
g813
sg58
VHEback
p822
sg60
g59
sbsg430
g0
(g444
g2
Ntp823
Rp824
(dp825
g21
I00
sg49
I00
sg23
I00
sg448
g449
sg450
Nsbsg24
g801
sg26
I4
sg27
g802
sbsVmuonCSCDigis
p826
g0
(g13
g2
Ntp827
Rp828
(dp829
g17
VCSCDCCUnpacker
p830
sg19
(lp831
VInputObjects
p832
aVUseExaminer
p833
aVExaminerMask
p834
aVUseSelectiveUnpacking
p835
aVErrorMask
p836
aVUnpackStatusDigis
p837
aVUseFormatStatus
p838
aVuseRPCs
p839
aVuseGEMs
p840
aVuseCSCShowers
p841
aVDebug
p842
aVPrintEventNumber
p843
aVrunDQM
p844
aVVisualFEDInspect
p845
aVVisualFEDShort
p846
aVFormatedEventDump
p847
aVSuppressZeroLCT
p848
aVDisableMappingCheck
p849
aVB904Setup
p850
aVB904vmecrate
p851
aVB904dmb
p852
ag430
asg21
I00
sg22
Nsg832
g0
(g52
g2
Ntp853
Rp854
(dp855
g21
I00
sg49
I01
sg23
I01
sg56
g57
sg58
g59
sg60
g59
sbsg23
I01
sg833
g0
(g71
g2
Ntp856
Rp857
(dp858
g21
I00
sg49
I01
sg23
I00
sg50
I01
sbsg834
g0
(g67
g2
Ntp859
Rp860
(dp861
g21
I00
sg49
I01
sg23
I01
sg50
I535558134
sbsg835
g0
(g71
g2
Ntp862
Rp863
(dp864
g21
I00
sg49
I01
sg23
I00
sg50
I01
sbsg836
g0
(g67
g2
Ntp865
Rp866
(dp867
g21
I00
sg49
I01
sg23
I00
sg50
I0
sbsg837
g0
(g71
g2
Ntp868
Rp869
(dp870
g21
I00
sg49
I01
sg23
I00
sg50
I00
sbsg838
g0
(g71
g2
Ntp871
Rp872
(dp873
g21
I00
sg49
I01
sg23
I00
sg50
I01
sbsg839
g0
(g71
g2
Ntp874
Rp875
(dp876
g21
I00
sg49
I01
sg23
I00
sg50
I00
sbsg840
g0
(g71
g2
Ntp877
Rp878
(dp879
g21
I00
sg49
I01
sg23
I00
sg50
I01
sbsg841
g0
(g71
g2
Ntp880
Rp881
(dp882
g21
I00
sg49
I01
sg23
I00
sg50
I01
sbsg842
g0
(g71
g2
Ntp883
Rp884
(dp885
g21
I00
sg49
I00
sg23
I00
sg50
I00
sbsg843
g0
(g71
g2
Ntp886
Rp887
(dp888
g21
I00
sg49
I00
sg23
I00
sg50
I00
sbsg844
g0
(g71
g2
Ntp889
Rp890
(dp891
g21
I00
sg49
I00
sg23
I00
sg50
I00
sbsg845
g0
(g71
g2
Ntp892
Rp893
(dp894
g21
I00
sg49
I00
sg23
I00
sg50
I00
sbsg846
g0
(g71
g2
Ntp895
Rp896
(dp897
g21
I00
sg49
I00
sg23
I00
sg50
I00
sbsg847
g0
(g71
g2
Ntp898
Rp899
(dp900
g21
I00
sg49
I00
sg23
I00
sg50
I00
sbsg848
g0
(g71
g2
Ntp901
Rp902
(dp903
g21
I00
sg49
I00
sg23
I00
sg50
I01
sbsg849
g0
(g71
g2
Ntp904
Rp905
(dp906
g21
I00
sg49
I00
sg23
I00
sg50
I00
sbsg850
g0
(g71
g2
Ntp907
Rp908
(dp909
g21
I00
sg49
I00
sg23
I00
sg50
I00
sbsg851
g0
(g75
g2
Ntp910
Rp911
(dp912
g21
I00
sg49
I00
sg23
I00
sg50
I1
sbsg852
g0
(g75
g2
Ntp913
Rp914
(dp915
g21
I00
sg49
I00
sg23
I00
sg50
I3
sbsg430
g0
(g444
g2
Ntp916
Rp917
(dp918
g21
I00
sg49
I00
sg23
I00
sg448
g449
sg450
Nsbsg24
g302
sg26
I22
sg27
g826
sbsVmuonDTDigis
p919
g0
(g13
g2
Ntp920
Rp921
(dp922
g17
VDTUnpackingModule
p923
sg19
(lp924
VdataType
p925
ag428
aVuseStandardFEDid
p926
aVminFEDid
p927
aVmaxFEDid
p928
aVfedbyType
p929
aVreadOutParameters
p930
aVdqmOnly
p931
ag430
asg21
I00
sg22
Nsg925
g0
(g45
g2
Ntp932
Rp933
(dp934
g21
I00
sg49
I01
sg23
I00
sg50
VDDU
p935
sbsg23
I01
sg428
g0
(g52
g2
Ntp936
Rp937
(dp938
g21
I00
sg49
I01
sg23
I01
sg56
g57
sg58
g59
sg60
g59
sbsg926
g0
(g71
g2
Ntp939
Rp940
(dp941
g21
I00
sg49
I01
sg23
I00
sg50
I01
sbsg927
g0
(g75
g2
Ntp942
Rp943
(dp944
g21
I00
sg49
I00
sg23
I00
sg50
I770
sbsg928
g0
(g75
g2
Ntp945
Rp946
(dp947
g21
I00
sg49
I00
sg23
I00
sg50
I779
sbsg929
g0
(g444
g2
Ntp948
Rp949
(dp950
g21
I00
sg49
I01
sg23
I00
sg448
g71
sg450
Nsbsg930
g0
(g358
g2
Ntp951
Rp952
(dp953
g21
I00
sg49
I01
sg23
I00
sg19
(lp954
g100
aVrosParameters
p955
aVlocalDAQ
p956
aVperformDataIntegrityMonitor
p957
asg22
Nsg100
g0
(g71
g2
Ntp958
Rp959
(dp960
g21
I00
sg49
I00
sg23
I00
sg50
I00
sbsg955
g0
(g358
g2
Ntp961
Rp962
(dp963
g21
I00
sg49
I01
sg23
I00
sg19
(lp964
VwriteSC
p965
aVreadingDDU
p966
ag957
aVreadDDUIDfromDDU
p967
ag100
ag956
asg22
Nsg965
g0
(g71
g2
Ntp968
Rp969
(dp970
g21
I00
sg49
I00
sg23
I00
sg50
I01
sbsg966
g0
(g71
g2
Ntp971
Rp972
(dp973
g21
I00
sg49
I00
sg23
I00
sg50
I01
sbsg957
g0
(g71
g2
Ntp974
Rp975
(dp976
g21
I00
sg49
I00
sg23
I00
sg50
I00
sbsg967
g0
(g71
g2
Ntp977
Rp978
(dp979
g21
I00
sg49
I00
sg23
I00
sg50
I01
sbsg100
g0
(g71
g2
Ntp980
Rp981
(dp982
g21
I00
sg49
I00
sg23
I00
sg50
I00
sbsg956
g0
(g71
g2
Ntp983
Rp984
(dp985
g21
I00
sg49
I00
sg23
I00
sg50
I00
sbsbsg956
g0
(g71
g2
Ntp986
Rp987
(dp988
g21
I00
sg49
I00
sg23
I00
sg50
I00
sbsg957
g0
(g71
g2
Ntp989
Rp990
(dp991
g21
I00
sg49
I00
sg23
I00
sg50
I00
sbsbsg931
g0
(g71
g2
Ntp992
Rp993
(dp994
g21
I00
sg49
I01
sg23
I00
sg50
I00
sbsg430
g0
(g444
g2
Ntp995
Rp996
(dp997
g21
I00
sg49
I00
sg23
I00
sg448
g449
sg450
Nsbsg24
g302
sg26
I25
sg27
g919
sbsVmuonGEMDigis
p998
g0
(g13
g2
Ntp999
Rp1000
(dp1001
g17
VGEMRawToDigiModule
p1002
sg19
(lp1003
g35
aVuseDBEMap
p1004
aVkeepDAQStatus
p1005
aVreadMultiBX
p1006
aVge21Off
p1007
aVfedIdStart
p1008
aVfedIdEnd
p1009
ag430
asg21
I00
sg22
Nsg35
g0
(g52
g2
Ntp1010
Rp1011
(dp1012
g21
I00
sg49
I01
sg23
I00
sg56
g57
sg58
g59
sg60
g59
sbsg23
I00
sg1004
g0
(g71
g2
Ntp1013
Rp1014
(dp1015
g21
I00
sg49
I01
sg23
I00
sg50
I00
sbsg1005
g0
(g71
g2
Ntp1016
Rp1017
(dp1018
g21
I00
sg49
I01
sg23
I00
sg50
I01
sbsg1006
g0
(g71
g2
Ntp1019
Rp1020
(dp1021
g21
I00
sg49
I01
sg23
I00
sg50
I00
sbsg1007
g0
(g71
g2
Ntp1022
Rp1023
(dp1024
g21
I00
sg49
I01
sg23
I00
sg50
I00
sbsg1008
g0
(g67
g2
Ntp1025
Rp1026
(dp1027
g21
I00
sg49
I01
sg23
I00
sg50
I1467
sbsg1009
g0
(g67
g2
Ntp1028
Rp1029
(dp1030
g21
I00
sg49
I01
sg23
I00
sg50
I1478
sbsg430
g0
(g444
g2
Ntp1031
Rp1032
(dp1033
g21
I00
sg49
I00
sg23
I00
sg448
g449
sg450
Nsbsg24
g302
sg26
I31
sg27
g998
sbsVmuonRPCDigis
p1034
g0
(g13
g2
Ntp1035
Rp1036
(dp1037
g17
VRPCUnpackingModule
p1038
sg19
(lp1039
g35
aVdoSynchro
p1040
ag430
asg21
I00
sg22
Nsg35
g0
(g52
g2
Ntp1041
Rp1042
(dp1043
g21
I00
sg49
I01
sg23
I01
sg56
g57
sg58
g59
sg60
g59
sbsg23
I01
sg1040
g0
(g71
g2
Ntp1044
Rp1045
(dp1046
g21
I00
sg49
I01
sg23
I00
sg50
I01
sbsg430
g0
(g444
g2
Ntp1047
Rp1048
(dp1049
g21
I00
sg49
I00
sg23
I00
sg448
g449
sg450
Nsbsg24
g302
sg26
I28
sg27
g1034
sbsVomtfStage2Digis
p1050
g0
(g13
g2
Ntp1051
Rp1052
(dp1053
g17
VOmtfUnpacker
p1054
sg19
(lp1055
g428
aVskipRpc
p1056
asg21
I00
sg22
Nsg428
g0
(g52
g2
Ntp1057
Rp1058
(dp1059
g21
I00
sg49
I01
sg23
I00
sg56
g57
sg58
g59
sg60
g59
sbsg23
I00
sg1056
g0
(g71
g2
Ntp1060
Rp1061
(dp1062
g21
I00
sg49
I01
sg23
I00
sg50
I00
sbsg24
V/cvmfs/cms.cern.ch/slc7_amd64_gcc11/cms/cmssw-patch/CMSSW_13_0_5_patch1/src/EventFilter/L1TRawToDigi/python/omtfStage2Digis_cfi.py
p1063
sg26
I3
sg27
g1050
sbsVonlineMetaDataDigis
p1064
g0
(g13
g2
Ntp1065
Rp1066
(dp1067
g17
VOnlineMetaDataRawToDigi
p1068
sg19
(lp1069
VonlineMetaDataInputLabel
p1070
ag430
asg21
I00
sg22
Nsg1070
g0
(g52
g2
Ntp1071
Rp1072
(dp1073
g21
I00
sg49
I01
sg23
I00
sg56
g57
sg58
g59
sg60
g59
sbsg23
I00
sg430
g0
(g444
g2
Ntp1074
Rp1075
(dp1076
g21
I00
sg49
I00
sg23
I00
sg448
g449
sg450
Nsbsg24
g302
sg26
I42
sg27
g1064
sbsVonlineMetaDataRawToDigi
p1077
g0
(g13
g2
Ntp1078
Rp1079
(dp1080
g17
g1068
sg19
(lp1081
g1070
ag430
asg21
I00
sg22
Nsg1070
g0
(g52
g2
Ntp1082
Rp1083
(dp1084
g21
I00
sg49
I01
sg23
I00
sg56
g57
sg58
g59
sg60
g59
sbsg23
I00
sg430
g0
(g444
g2
Ntp1085
Rp1086
(dp1087
g21
I00
sg49
I00
sg23
I00
sg448
g449
sg450
Nsbsg24
V/cvmfs/cms.cern.ch/slc7_amd64_gcc11/cms/cmssw-patch/CMSSW_13_0_5_patch1/cfipython/slc7_amd64_gcc11/EventFilter/OnlineMetaDataRawToDigi/onlineMetaDataRawToDigi_cfi.py
p1088
sg26
I3
sg27
g1077
sbsVrpcCPPFRawToDigi
p1089
g0
(g13
g2
Ntp1090
Rp1091
(dp1092
g17
VRPCAMCRawToDigi
p1093
sg19
(lp1094
VinputTag
p1095
aVcalculateCRC
p1096
aVfillCounters
p1097
aVRPCAMCUnpacker
p1098
aVRPCAMCUnpackerSettings
p1099
ag430
asg21
I00
sg22
Nsg1095
g0
(g52
g2
Ntp1100
Rp1101
(dp1102
g21
I00
sg49
I01
sg23
I00
sg56
g57
sg58
g59
sg60
g59
sbsg23
I00
sg1096
g0
(g71
g2
Ntp1103
Rp1104
(dp1105
g21
I00
sg49
I01
sg23
I00
sg50
I01
sbsg1097
g0
(g71
g2
Ntp1106
Rp1107
(dp1108
g21
I00
sg49
I01
sg23
I00
sg50
I01
sbsg1098
g0
(g45
g2
Ntp1109
Rp1110
(dp1111
g21
I00
sg49
I01
sg23
I01
sg50
VRPCCPPFUnpacker
p1112
sbsg1099
g0
(g358
g2
Ntp1113
Rp1114
(dp1115
g21
I00
sg49
I01
sg23
I01
sg19
(lp1116
VfillAMCCounters
p1117
aVbxMin
p1118
aVbxMax
p1119
aVcppfDaqDelay
p1120
asg22
Nsg1117
g0
(g71
g2
Ntp1121
Rp1122
(dp1123
g21
I00
sg49
I01
sg23
I00
sg50
I01
sbsg1118
g0
(g75
g2
Ntp1124
Rp1125
(dp1126
g21
I00
sg49
I01
sg23
I00
sg50
I-2
sbsg1119
g0
(g75
g2
Ntp1127
Rp1128
(dp1129
g21
I00
sg49
I01
sg23
I00
sg50
I2
sbsg1120
g0
(g75
g2
Ntp1130
Rp1131
(dp1132
g21
I00
sg49
I01
sg23
I00
sg50
I0
sbsbsg430
g0
(g444
g2
Ntp1133
Rp1134
(dp1135
g21
I00
sg49
I00
sg23
I00
sg448
g449
sg450
Nsbsg24
V/cvmfs/cms.cern.ch/slc7_amd64_gcc11/cms/cmssw-patch/CMSSW_13_0_5_patch1/src/EventFilter/RPCRawToDigi/python/RPCCPPFRawToDigi_cfi.py
p1136
sg26
I4
sg27
g1089
sbsVrpcTwinMuxRawToDigi
p1137
g0
(g13
g2
Ntp1138
Rp1139
(dp1140
g17
VRPCTwinMuxRawToDigi
p1141
sg19
(lp1142
g1095
ag1096
ag1097
ag1118
ag1119
ag430
asg21
I00
sg22
Nsg1095
g0
(g52
g2
Ntp1143
Rp1144
(dp1145
g21
I00
sg49
I01
sg23
I00
sg56
g57
sg58
g59
sg60
g59
sbsg23
I00
sg1096
g0
(g71
g2
Ntp1146
Rp1147
(dp1148
g21
I00
sg49
I01
sg23
I00
sg50
I01
sbsg1097
g0
(g71
g2
Ntp1149
Rp1150
(dp1151
g21
I00
sg49
I01
sg23
I00
sg50
I01
sbsg1118
g0
(g75
g2
Ntp1152
Rp1153
(dp1154
g21
I00
sg49
I01
sg23
I00
sg50
I-2
sbsg1119
g0
(g75
g2
Ntp1155
Rp1156
(dp1157
g21
I00
sg49
I01
sg23
I00
sg50
I2
sbsg430
g0
(g444
g2
Ntp1158
Rp1159
(dp1160
g21
I00
sg49
I00
sg23
I00
sg448
g449
sg450
Nsbsg24
V/cvmfs/cms.cern.ch/slc7_amd64_gcc11/cms/cmssw-patch/CMSSW_13_0_5_patch1/cfipython/slc7_amd64_gcc11/EventFilter/RPCRawToDigi/rpcTwinMuxRawToDigi_cfi.py
p1161
sg26
I3
sg27
g1137
sbsVrpcunpacker
p1162
g0
(g13
g2
Ntp1163
Rp1164
(dp1165
g17
g1038
sg19
(lp1166
g35
ag1040
ag430
asg21
I00
sg22
Nsg35
g0
(g52
g2
Ntp1167
Rp1168
(dp1169
g21
I00
sg49
I01
sg23
I00
sg56
g57
sg58
g59
sg60
g59
sbsg23
I01
sg1040
g0
(g71
g2
Ntp1170
Rp1171
(dp1172
g21
I00
sg49
I01
sg23
I00
sg50
I01
sbsg430
g0
(g444
g2
Ntp1173
Rp1174
(dp1175
g21
I00
sg49
I00
sg23
I00
sg448
g449
sg450
Nsbsg24
V/cvmfs/cms.cern.ch/slc7_amd64_gcc11/cms/cmssw-patch/CMSSW_13_0_5_patch1/src/EventFilter/RPCRawToDigi/python/rpcUnpacker_cfi.py
p1176
sg26
I4
sg27
g1162
sbsVscalersRawToDigi
p1177
g0
(g13
g2
Ntp1178
Rp1179
(dp1180
g17
VScalersRawToDigi
p1181
sg19
(lp1182
VscalersInputTag
p1183
ag430
asg21
I00
sg22
Nsg1183
g0
(g52
g2
Ntp1184
Rp1185
(dp1186
g21
I00
sg49
I01
sg23
I01
sg56
g57
sg58
g59
sg60
g59
sbsg23
I01
sg430
g0
(g444
g2
Ntp1187
Rp1188
(dp1189
g21
I00
sg49
I00
sg23
I00
sg448
g449
sg450
Nsbsg24
V/cvmfs/cms.cern.ch/slc7_amd64_gcc11/cms/cmssw-patch/CMSSW_13_0_5_patch1/cfipython/slc7_amd64_gcc11/EventFilter/ScalersRawToDigi/scalersRawToDigi_cfi.py
p1190
sg26
I3
sg27
g1177
sbsVsiPixelDigiErrors
p1191
g0
(g13
g2
Ntp1192
Rp1193
(dp1194
g17
VSiPixelDigiErrorsFromSoA
p1195
sg19
(lp1196
VdigiErrorSoASrc
p1197
aVCablingMapLabel
p1198
aVUsePhase1
p1199
aVErrorList
p1200
aVUserErrorList
p1201
ag430
asg21
I00
sg22
Nsg1197
g0
(g52
g2
Ntp1202
Rp1203
(dp1204
g21
I00
sg49
I01
sg23
I00
sg56
VsiPixelDigiErrorsSoA
p1205
sg58
g59
sg60
g59
sbsg23
I00
sg1198
g0
(g45
g2
Ntp1206
Rp1207
(dp1208
g21
I00
sg49
I01
sg23
I00
sg50
g59
sbsg1199
g0
(g71
g2
Ntp1209
Rp1210
(dp1211
g21
I00
sg49
I01
sg23
I00
sg50
I00
sbsg1200
g0
(g61
g62
(lp1212
I29
atp1213
Rp1214
(dp1215
g21
I00
sg49
I01
sg23
I00
sbsg1201
g0
(g61
g62
(lp1216
I40
atp1217
Rp1218
(dp1219
g21
I00
sg49
I01
sg23
I00
sbsg430
g0
(g444
g2
Ntp1220
Rp1221
(dp1222
g21
I00
sg49
I00
sg23
I00
sg448
g449
sg450
Nsbsg24
V/cvmfs/cms.cern.ch/slc7_amd64_gcc11/cms/cmssw-patch/CMSSW_13_0_5_patch1/src/EventFilter/SiPixelRawToDigi/python/siPixelDigis_cff.py
p1223
sg26
I24
sg27
g1191
sbsg1205
g0
(g13
g2
Ntp1224
Rp1225
(dp1226
g17
VSiPixelDigiErrorsSoAFromCUDA
p1227
sg19
(lp1228
Vsrc
p1229
ag430
asg21
I00
sg22
Nsg1229
g0
(g52
g2
Ntp1230
Rp1231
(dp1232
g21
I00
sg49
I01
sg23
I01
sg56
VsiPixelClustersPreSplittingCUDA
p1233
sg58
g59
sg60
g59
sbsg23
I00
sg430
g0
(g444
g2
Ntp1234
Rp1235
(dp1236
g21
I00
sg49
I00
sg23
I00
sg448
g449
sg450
Nsbsg24
g1223
sg26
I18
sg27
g1205
sbsVsiPixelDigisSoA
p1237
g0
(g13
g2
Ntp1238
Rp1239
(dp1240
g17
VSiPixelDigisSoAFromCUDA
p1241
sg19
(lp1242
g1229
ag430
asg21
I00
sg22
Nsg1229
g0
(g52
g2
Ntp1243
Rp1244
(dp1245
g21
I00
sg49
I01
sg23
I01
sg56
g1233
sg58
g59
sg60
g59
sbsg23
I00
sg430
g0
(g444
g2
Ntp1246
Rp1247
(dp1248
g21
I00
sg49
I00
sg23
I00
sg448
g449
sg450
Nsbsg24
g1223
sg26
I12
sg27
g1237
sbsVsiStripDigis
p1249
g0
(g13
g2
Ntp1250
Rp1251
(dp1252
g17
VSiStripRawToDigiModule
p1253
sg19
(lp1254
VProductLabel
p1255
aVLegacyUnpacker
p1256
aVAppendedBytes
p1257
aVUseDaqRegister
p1258
aVUseFedKey
p1259
aVUnpackBadChannels
p1260
aVMarkModulesOnMissingFeds
p1261
aVTriggerFedId
p1262
aVUnpackCommonModeValues
p1263
aVDoAllCorruptBufferChecks
p1264
aVDoAPVEmulatorCheck
p1265
aVErrorThreshold
p1266
asg21
I00
sg22
Nsg1255
g0
(g52
g2
Ntp1267
Rp1268
(dp1269
g21
I00
sg49
I01
sg23
I00
sg56
g57
sg58
g59
sg60
g59
sbsg23
I00
sg1256
g0
(g71
g2
Ntp1270
Rp1271
(dp1272
g21
I00
sg49
I01
sg23
I00
sg50
I00
sbsg1257
g0
(g75
g2
Ntp1273
Rp1274
(dp1275
g21
I00
sg49
I01
sg23
I00
sg50
I0
sbsg1258
g0
(g71
g2
Ntp1276
Rp1277
(dp1278
g21
I00
sg49
I01
sg23
I00
sg50
I00
sbsg1259
g0
(g71
g2
Ntp1279
Rp1280
(dp1281
g21
I00
sg49
I01
sg23
I00
sg50
I00
sbsg1260
g0
(g71
g2
Ntp1282
Rp1283
(dp1284
g21
I00
sg49
I01
sg23
I00
sg50
I00
sbsg1261
g0
(g71
g2
Ntp1285
Rp1286
(dp1287
g21
I00
sg49
I01
sg23
I00
sg50
I01
sbsg1262
g0
(g75
g2
Ntp1288
Rp1289
(dp1290
g21
I00
sg49
I01
sg23
I00
sg50
I0
sbsg1263
g0
(g71
g2
Ntp1291
Rp1292
(dp1293
g21
I00
sg49
I01
sg23
I00
sg50
I00
sbsg1264
g0
(g71
g2
Ntp1294
Rp1295
(dp1296
g21
I00
sg49
I01
sg23
I00
sg50
I00
sbsg1265
g0
(g71
g2
Ntp1297
Rp1298
(dp1299
g21
I00
sg49
I01
sg23
I00
sg50
I00
sbsg1266
g0
(g67
g2
Ntp1300
Rp1301
(dp1302
g21
I00
sg49
I01
sg23
I00
sg50
I7174
sbsg24
V/cvmfs/cms.cern.ch/slc7_amd64_gcc11/cms/cmssw-patch/CMSSW_13_0_5_patch1/src/EventFilter/SiStripRawToDigi/python/SiStripDigis_cfi.py
p1303
sg26
I3
sg27
g1249
sbsVsimEcalTriggerPrimitiveDigis
p1304
g0
(g13
g2
Ntp1305
Rp1306
(dp1307
g17
VEcalTrigPrimProducer
p1308
sg19
(lp1309
VBarrelOnly
p1310
aVInstanceEB
p1311
aVInstanceEE
p1312
aVbinOfMaximum
p1313
aVFamos
p1314
aVTcpOutput
p1315
ag842
aVLabel
p1316
asg21
I00
sg22
Nsg1310
g0
(g71
g2
Ntp1317
Rp1318
(dp1319
g21
I00
sg49
I01
sg23
I00
sg50
I00
sbsg23
I00
sg1311
g0
(g45
g2
Ntp1320
Rp1321
(dp1322
g21
I00
sg49
I01
sg23
I00
sg50
g59
sbsg1312
g0
(g45
g2
Ntp1323
Rp1324
(dp1325
g21
I00
sg49
I01
sg23
I00
sg50
g59
sbsg1313
g0
(g75
g2
Ntp1326
Rp1327
(dp1328
g21
I00
sg49
I01
sg23
I00
sg50
I6
sbsg1314
g0
(g71
g2
Ntp1329
Rp1330
(dp1331
g21
I00
sg49
I01
sg23
I00
sg50
I00
sbsg1315
g0
(g71
g2
Ntp1332
Rp1333
(dp1334
g21
I00
sg49
I01
sg23
I00
sg50
I00
sbsg842
g0
(g71
g2
Ntp1335
Rp1336
(dp1337
g21
I00
sg49
I01
sg23
I00
sg50
I00
sbsg1316
g0
(g45
g2
Ntp1338
Rp1339
(dp1340
g21
I00
sg49
I01
sg23
I00
sg50
VsimEcalUnsuppressedDigis
p1341
sbsg24
V/cvmfs/cms.cern.ch/slc7_amd64_gcc11/cms/cmssw-patch/CMSSW_13_0_5_patch1/src/SimCalorimetry/EcalTrigPrimProducers/python/ecalTriggerPrimitiveDigis_cfi.py
p1342
sg26
I6
sg27
g1304
sbsVtcdsDigis
p1343
g0
(g13
g2
Ntp1344
Rp1345
(dp1346
g17
VTcdsRawToDigi
p1347
sg19
(lp1348
g35
ag430
asg21
I00
sg22
Nsg35
g0
(g52
g2
Ntp1349
Rp1350
(dp1351
g21
I00
sg49
I01
sg23
I00
sg56
g57
sg58
g59
sg60
g59
sbsg23
I00
sg430
g0
(g444
g2
Ntp1352
Rp1353
(dp1354
g21
I00
sg49
I00
sg23
I00
sg448
g449
sg450
Nsbsg24
g302
sg26
I39
sg27
g1343
sbsVtcdsRawToDigi
p1355
g0
(g13
g2
Ntp1356
Rp1357
(dp1358
g17
g1347
sg19
(lp1359
g35
ag430
asg21
I00
sg22
Nsg35
g0
(g52
g2
Ntp1360
Rp1361
(dp1362
g21
I00
sg49
I01
sg23
I00
sg56
g57
sg58
g59
sg60
g59
sbsg23
I00
sg430
g0
(g444
g2
Ntp1363
Rp1364
(dp1365
g21
I00
sg49
I00
sg23
I00
sg448
g449
sg450
Nsbsg24
V/cvmfs/cms.cern.ch/slc7_amd64_gcc11/cms/cmssw-patch/CMSSW_13_0_5_patch1/cfipython/slc7_amd64_gcc11/EventFilter/OnlineMetaDataRawToDigi/tcdsRawToDigi_cfi.py
p1366
sg26
I3
sg27
g1355
sbsVtotemRPRawToDigi
p1367
g0
(g13
g2
Ntp1368
Rp1369
(dp1370
g17
g339
sg19
(lp1371
g341
ag342
ag343
ag344
ag345
asg21
I00
sg22
Nsg341
g0
(g52
g2
Ntp1372
Rp1373
(dp1374
g21
I00
sg49
I01
sg23
I00
sg56
g57
sg58
g59
sg60
g59
sbsg23
I01
sg342
g0
(g45
g2
Ntp1375
Rp1376
(dp1377
g21
I00
sg49
I01
sg23
I01
sg50
VTrackingStrip
p1378
sbsg343
g0
(g353
g62
(lp1379
I578
aI580
aI584
aI585
atp1380
Rp1381
(dp1382
g21
I00
sg49
I01
sg23
I01
sbsg344
g0
(g358
g2
Ntp1383
Rp1384
(dp1385
g21
I00
sg49
I01
sg23
I00
sg19
(lp1386
g363
asg22
Nsg363
g0
(g67
g2
Ntp1387
Rp1388
(dp1389
g21
I00
sg49
I00
sg23
I00
sg50
I0
sbsbsg345
g0
(g358
g2
Ntp1390
Rp1391
(dp1392
g21
I00
sg49
I01
sg23
I00
sg19
(lp1393
g363
ag371
ag372
ag373
ag374
ag375
ag376
ag377
ag378
ag379
ag380
ag381
asg22
Nsg363
g0
(g67
g2
Ntp1394
Rp1395
(dp1396
g21
I00
sg49
I00
sg23
I00
sg50
I0
sbsg371
g0
(g67
g2
Ntp1397
Rp1398
(dp1399
g21
I00
sg49
I01
sg23
I00
sg50
I2
sbsg372
g0
(g67
g2
Ntp1400
Rp1401
(dp1402
g21
I00
sg49
I01
sg23
I00
sg50
I2
sbsg373
g0
(g67
g2
Ntp1403
Rp1404
(dp1405
g21
I00
sg49
I01
sg23
I00
sg50
I2
sbsg374
g0
(g67
g2
Ntp1406
Rp1407
(dp1408
g21
I00
sg49
I01
sg23
I00
sg50
I2
sbsg375
g0
(g67
g2
Ntp1409
Rp1410
(dp1411
g21
I00
sg49
I01
sg23
I00
sg50
I2
sbsg376
g0
(g67
g2
Ntp1412
Rp1413
(dp1414
g21
I00
sg49
I00
sg23
I00
sg50
I10
sbsg377
g0
(g67
g2
Ntp1415
Rp1416
(dp1417
g21
I00
sg49
I00
sg23
I00
sg50
I10
sbsg378
g0
(g406
g2
Ntp1418
Rp1419
(dp1420
g21
I00
sg49
I00
sg23
I00
sg50
F0.6
sbsg379
g0
(g406
g2
Ntp1421
Rp1422
(dp1423
g21
I00
sg49
I00
sg23
I00
sg50
F0.6
sbsg380
g0
(g67
g2
Ntp1424
Rp1425
(dp1426
g21
I00
sg49
I00
sg23
I00
sg50
I0
sbsg381
g0
(g67
g2
Ntp1427
Rp1428
(dp1429
g21
I00
sg49
I00
sg23
I00
sg50
I0
sbsbsg24
V/cvmfs/cms.cern.ch/slc7_amd64_gcc11/cms/cmssw-patch/CMSSW_13_0_5_patch1/src/EventFilter/CTPPSRawToDigi/python/totemRPRawToDigi_cfi.py
p1430
sg26
I9
sg27
g1367
sbsVtotemT2Digis
p1431
g0
(g13
g2
Ntp1432
Rp1433
(dp1434
g17
g339
sg19
(lp1435
g341
ag342
ag343
ag344
ag345
asg21
I00
sg22
Nsg341
g0
(g52
g2
Ntp1436
Rp1437
(dp1438
g21
I00
sg49
I01
sg23
I00
sg56
g57
sg58
g59
sg60
g59
sbsg23
I01
sg342
g0
(g45
g2
Ntp1439
Rp1440
(dp1441
g21
I00
sg49
I01
sg23
I00
sg50
VTotemT2
p1442
sbsg343
g0
(g353
g62
(lp1443
tp1444
Rp1445
(dp1446
g21
I00
sg49
I01
sg23
I00
sbsg344
g0
(g358
g2
Ntp1447
Rp1448
(dp1449
g21
I00
sg49
I01
sg23
I00
sg19
(lp1450
g363
asg22
Nsg363
g0
(g67
g2
Ntp1451
Rp1452
(dp1453
g21
I00
sg49
I00
sg23
I00
sg50
I0
sbsbsg345
g0
(g358
g2
Ntp1454
Rp1455
(dp1456
g21
I00
sg49
I01
sg23
I00
sg19
(lp1457
g363
ag371
ag372
ag373
ag374
ag375
ag376
ag377
ag378
ag379
ag380
ag381
asg22
Nsg363
g0
(g67
g2
Ntp1458
Rp1459
(dp1460
g21
I00
sg49
I00
sg23
I00
sg50
I0
sbsg371
g0
(g67
g2
Ntp1461
Rp1462
(dp1463
g21
I00
sg49
I01
sg23
I00
sg50
I2
sbsg372
g0
(g67
g2
Ntp1464
Rp1465
(dp1466
g21
I00
sg49
I01
sg23
I00
sg50
I0
sbsg373
g0
(g67
g2
Ntp1467
Rp1468
(dp1469
g21
I00
sg49
I01
sg23
I00
sg50
I2
sbsg374
g0
(g67
g2
Ntp1470
Rp1471
(dp1472
g21
I00
sg49
I01
sg23
I00
sg50
I0
sbsg375
g0
(g67
g2
Ntp1473
Rp1474
(dp1475
g21
I00
sg49
I01
sg23
I00
sg50
I2
sbsg376
g0
(g67
g2
Ntp1476
Rp1477
(dp1478
g21
I00
sg49
I00
sg23
I00
sg50
I10
sbsg377
g0
(g67
g2
Ntp1479
Rp1480
(dp1481
g21
I00
sg49
I00
sg23
I00
sg50
I10
sbsg378
g0
(g406
g2
Ntp1482
Rp1483
(dp1484
g21
I00
sg49
I00
sg23
I00
sg50
F0.6
sbsg379
g0
(g406
g2
Ntp1485
Rp1486
(dp1487
g21
I00
sg49
I00
sg23
I00
sg50
F0.6
sbsg380
g0
(g67
g2
Ntp1488
Rp1489
(dp1490
g21
I00
sg49
I00
sg23
I00
sg50
I0
sbsg381
g0
(g67
g2
Ntp1491
Rp1492
(dp1493
g21
I00
sg49
I00
sg23
I00
sg50
I0
sbsbsg24
V/cvmfs/cms.cern.ch/slc7_amd64_gcc11/cms/cmssw-patch/CMSSW_13_0_5_patch1/src/EventFilter/CTPPSRawToDigi/python/totemT2Digis_cfi.py
p1494
sg26
I5
sg27
g1431
sbsVtotemTimingRawToDigi
p1495
g0
(g13
g2
Ntp1496
Rp1497
(dp1498
g17
g339
sg19
(lp1499
g341
ag342
ag343
ag344
ag345
asg21
I00
sg22
Nsg341
g0
(g52
g2
Ntp1500
Rp1501
(dp1502
g21
I00
sg49
I01
sg23
I00
sg56
g57
sg58
g59
sg60
g59
sbsg23
I01
sg342
g0
(g45
g2
Ntp1503
Rp1504
(dp1505
g21
I00
sg49
I01
sg23
I01
sg50
VTotemTiming
p1506
sbsg343
g0
(g353
g62
(lp1507
I586
aI587
atp1508
Rp1509
(dp1510
g21
I00
sg49
I01
sg23
I00
sbsg344
g0
(g358
g2
Ntp1511
Rp1512
(dp1513
g21
I00
sg49
I01
sg23
I00
sg19
(lp1514
g363
asg22
Nsg363
g0
(g67
g2
Ntp1515
Rp1516
(dp1517
g21
I00
sg49
I00
sg23
I00
sg50
I0
sbsbsg345
g0
(g358
g2
Ntp1518
Rp1519
(dp1520
g21
I00
sg49
I01
sg23
I00
sg19
(lp1521
g363
ag371
ag372
ag373
ag374
ag375
ag380
ag381
asg22
Nsg363
g0
(g67
g2
Ntp1522
Rp1523
(dp1524
g21
I00
sg49
I00
sg23
I00
sg50
I0
sbsg371
g0
(g67
g2
Ntp1525
Rp1526
(dp1527
g21
I00
sg49
I01
sg23
I00
sg50
I0
sbsg372
g0
(g67
g2
Ntp1528
Rp1529
(dp1530
g21
I00
sg49
I01
sg23
I00
sg50
I0
sbsg373
g0
(g67
g2
Ntp1531
Rp1532
(dp1533
g21
I00
sg49
I01
sg23
I00
sg50
I0
sbsg374
g0
(g67
g2
Ntp1534
Rp1535
(dp1536
g21
I00
sg49
I01
sg23
I00
sg50
I0
sbsg375
g0
(g67
g2
Ntp1537
Rp1538
(dp1539
g21
I00
sg49
I01
sg23
I00
sg50
I0
sbsg380
g0
(g67
g2
Ntp1540
Rp1541
(dp1542
g21
I00
sg49
I00
sg23
I00
sg50
I0
sbsg381
g0
(g67
g2
Ntp1543
Rp1544
(dp1545
g21
I00
sg49
I00
sg23
I00
sg50
I0
sbsbsg24
V/cvmfs/cms.cern.ch/slc7_amd64_gcc11/cms/cmssw-patch/CMSSW_13_0_5_patch1/src/EventFilter/CTPPSRawToDigi/python/totemTimingRawToDigi_cfi.py
p1546
sg26
I9
sg27
g1495
sbsVtwinMuxStage2Digis
p1547
g0
(g13
g2
Ntp1548
Rp1549
(dp1550
g17
VL1TTwinMuxRawToDigi
p1551
sg19
(lp1552
VDTTM7_FED_Source
p1553
aVfeds
p1554
aVwheels
p1555
aVamcsecmap
p1556
ag100
asg21
I00
sg22
Nsg1553
g0
(g52
g2
Ntp1557
Rp1558
(dp1559
g21
I00
sg49
I01
sg23
I00
sg56
g57
sg58
g59
sg60
g59
sbsg23
I00
sg1554
g0
(g61
g62
(lp1560
I1395
aI1391
aI1390
aI1393
aI1394
atp1561
Rp1562
(dp1563
g21
I00
sg49
I00
sg23
I00
sbsg1555
g0
(g61
g62
(lp1564
I-2
aI-1
aI0
aI1
aI2
atp1565
Rp1566
(dp1567
g21
I00
sg49
I00
sg23
I00
sbsg1556
g0
(cFWCore.ParameterSet.Types
vint64
p1568
g62
(lp1569
L20015998343868L
aL20015998343868L
aL20015998343868L
aL20015998343868L
aL20015998343868L
atp1570
Rp1571
(dp1572
g21
I00
sg49
I00
sg23
I00
sbsg100
g0
(g71
g2
Ntp1573
Rp1574
(dp1575
g21
I00
sg49
I00
sg23
I00
sg50
I00
sbsg24
V/cvmfs/cms.cern.ch/slc7_amd64_gcc11/cms/cmssw-patch/CMSSW_13_0_5_patch1/src/EventFilter/L1TXRawToDigi/python/twinMuxStage2Digis_cfi.py
p1576
sg26
I3
sg27
g1547
sbssV_Process__switchproducers
p1577
(dp1578
VecalDigis
p1579
g0
(cHeterogeneousCore.CUDACore.SwitchProducerCUDA
SwitchProducerCUDA
p1580
g2
Ntp1581
Rp1582
(dp1583
g17
Nsg19
(lp1584
Vcpu
p1585
asg21
I00
sg22
Nsg23
I00
sg24
V/cvmfs/cms.cern.ch/slc7_amd64_gcc11/cms/cmssw-patch/CMSSW_13_0_5_patch1/src/FWCore/ParameterSet/python/Modules.py
p1586
sg26
I250
sV_caseFunctionDict
p1587
(dp1588
g1585
cFWCore.ParameterSet.Modules
_switch_cpu
p1589
sVcuda
p1590
cHeterogeneousCore.CUDACore.SwitchProducerCUDA
_switch_cuda
p1591
ssg1585
g0
(g13
g2
Ntp1592
Rp1593
(dp1594
g17
VEcalRawToDigi
p1595
sg19
(lp1596
VtccUnpacking
p1597
aVFedLabel
p1598
aVsrpUnpacking
p1599
aVsyncCheck
p1600
aVfeIdCheck
p1601
aVsilentMode
p1602
ag35
aVorderedFedList
p1603
aVeventPut
p1604
aVnumbTriggerTSamples
p1605
aVnumbXtalTSamples
p1606
aVorderedDCCIdList
p1607
ag245
aVDoRegional
p1608
aVfeUnpacking
p1609
aVforceToKeepFRData
p1610
aVheaderUnpacking
p1611
aVmemUnpacking
p1612
ag430
asg21
I00
sg22
Nsg1597
g0
(g71
g2
Ntp1613
Rp1614
(dp1615
g21
I00
sg49
I01
sg23
I00
sg50
I01
sbsg23
I01
sg1598
g0
(g52
g2
Ntp1616
Rp1617
(dp1618
g21
I00
sg49
I01
sg23
I00
sg56
Vlistfeds
p1619
sg58
g59
sg60
g59
sbsg1599
g0
(g71
g2
Ntp1620
Rp1621
(dp1622
g21
I00
sg49
I01
sg23
I00
sg50
I01
sbsg1600
g0
(g71
g2
Ntp1623
Rp1624
(dp1625
g21
I00
sg49
I01
sg23
I00
sg50
I01
sbsg1601
g0
(g71
g2
Ntp1626
Rp1627
(dp1628
g21
I00
sg49
I01
sg23
I00
sg50
I01
sbsg1602
g0
(g71
g2
Ntp1629
Rp1630
(dp1631
g21
I00
sg49
I00
sg23
I00
sg50
I01
sbsg35
g0
(g52
g2
Ntp1632
Rp1633
(dp1634
g21
I00
sg49
I01
sg23
I01
sg56
g57
sg58
g59
sg60
g59
sbsg1603
g0
(g61
g62
(lp1635
I601
aI602
aI603
aI604
aI605
aI606
aI607
aI608
aI609
aI610
aI611
aI612
aI613
aI614
aI615
aI616
aI617
aI618
aI619
aI620
aI621
aI622
aI623
aI624
aI625
aI626
aI627
aI628
aI629
aI630
aI631
aI632
aI633
aI634
aI635
aI636
aI637
aI638
aI639
aI640
aI641
aI642
aI643
aI644
aI645
aI646
aI647
aI648
aI649
aI650
aI651
aI652
aI653
aI654
atp1636
Rp1637
(dp1638
g21
I00
sg49
I01
sg23
I00
sbsg1604
g0
(g71
g2
Ntp1639
Rp1640
(dp1641
g21
I00
sg49
I01
sg23
I00
sg50
I01
sbsg1605
g0
(g75
g2
Ntp1642
Rp1643
(dp1644
g21
I00
sg49
I01
sg23
I00
sg50
I1
sbsg1606
g0
(g75
g2
Ntp1645
Rp1646
(dp1647
g21
I00
sg49
I01
sg23
I00
sg50
I10
sbsg1607
g0
(g61
g62
(lp1648
I1
aI2
aI3
aI4
aI5
aI6
aI7
aI8
aI9
aI10
aI11
aI12
aI13
aI14
aI15
aI16
aI17
aI18
aI19
aI20
aI21
aI22
aI23
aI24
aI25
aI26
aI27
aI28
aI29
aI30
aI31
aI32
aI33
aI34
aI35
aI36
aI37
aI38
aI39
aI40
aI41
aI42
aI43
aI44
aI45
aI46
aI47
aI48
aI49
aI50
aI51
aI52
aI53
aI54
atp1649
Rp1650
(dp1651
g21
I00
sg49
I01
sg23
I00
sbsg245
g0
(g61
g62
(lp1652
I601
aI602
aI603
aI604
aI605
aI606
aI607
aI608
aI609
aI610
aI611
aI612
aI613
aI614
aI615
aI616
aI617
aI618
aI619
aI620
aI621
aI622
aI623
aI624
aI625
aI626
aI627
aI628
aI629
aI630
aI631
aI632
aI633
aI634
aI635
aI636
aI637
aI638
aI639
aI640
aI641
aI642
aI643
aI644
aI645
aI646
aI647
aI648
aI649
aI650
aI651
aI652
aI653
aI654
atp1653
Rp1654
(dp1655
g21
I00
sg49
I01
sg23
I00
sbsg1608
g0
(g71
g2
Ntp1656
Rp1657
(dp1658
g21
I00
sg49
I01
sg23
I00
sg50
I00
sbsg1609
g0
(g71
g2
Ntp1659
Rp1660
(dp1661
g21
I00
sg49
I01
sg23
I00
sg50
I01
sbsg1610
g0
(g71
g2
Ntp1662
Rp1663
(dp1664
g21
I00
sg49
I01
sg23
I00
sg50
I00
sbsg1611
g0
(g71
g2
Ntp1665
Rp1666
(dp1667
g21
I00
sg49
I01
sg23
I00
sg50
I01
sbsg1612
g0
(g71
g2
Ntp1668
Rp1669
(dp1670
g21
I00
sg49
I01
sg23
I00
sg50
I01
sbsg430
g0
(g444
g2
Ntp1671
Rp1672
(dp1673
g21
I00
sg49
I00
sg23
I00
sg448
g449
sg450
Nsbsg24
g500
sg26
I7
sg27
VecalDigis@cpu
p1674
sbsg27
g1579
sbsVsiPixelDigis
p1675
g0
(g1580
g2
Ntp1676
Rp1677
(dp1678
g17
Nsg19
(lp1679
g1585
asg21
I00
sg22
Nsg23
I00
sg24
g1586
sg26
I250
sg1587
(dp1680
g1585
g1589
sg1590
g1591
ssg1585
g0
(g13
g2
Ntp1681
Rp1682
(dp1683
g17
VSiPixelRawToDigi
p1684
sg19
(lp1685
VIncludeErrors
p1686
aVUseQualityInfo
p1687
ag1200
ag1201
ag35
aVRegions
p1688
aVUsePilotBlade
p1689
ag1199
ag1198
aVSiPixelQualityLabel
p1690
ag430
asg21
I00
sg22
Nsg1686
g0
(g71
g2
Ntp1691
Rp1692
(dp1693
g21
I00
sg49
I01
sg23
I00
sg50
I01
sbsg23
I01
sg1687
g0
(g71
g2
Ntp1694
Rp1695
(dp1696
g21
I00
sg49
I01
sg23
I00
sg50
I00
sbsg1200
g0
(g61
g62
(lp1697
I29
atp1698
Rp1699
(dp1700
g21
I00
sg49
I01
sg23
I00
sbsg1201
g0
(g61
g62
(lp1701
I40
atp1702
Rp1703
(dp1704
g21
I00
sg49
I01
sg23
I00
sbsg35
g0
(g52
g2
Ntp1705
Rp1706
(dp1707
g21
I00
sg49
I01
sg23
I01
sg56
g57
sg58
g59
sg60
g59
sbsg1688
g0
(g358
g2
Ntp1708
Rp1709
(dp1710
g21
I00
sg49
I01
sg23
I00
sg19
(lp1711
Vinputs
p1712
aVdeltaPhi
p1713
aVmaxZ
p1714
aVbeamSpot
p1715
asg22
Nsg1712
g0
(g444
g2
Ntp1716
Rp1717
(dp1718
g21
I00
sg49
I01
sg23
I00
sg448
cFWCore.ParameterSet.Types
VInputTag
p1719
sg450
Nsbsg1713
g0
(g444
g2
Ntp1720
Rp1721
(dp1722
g21
I00
sg49
I01
sg23
I00
sg448
cFWCore.ParameterSet.Types
vdouble
p1723
sg450
Nsbsg1714
g0
(g444
g2
Ntp1724
Rp1725
(dp1726
g21
I00
sg49
I01
sg23
I00
sg448
g1723
sg450
Nsbsg1715
g0
(g444
g2
Ntp1727
Rp1728
(dp1729
g21
I00
sg49
I01
sg23
I00
sg448
g52
sg450
Nsbsbsg1689
g0
(g71
g2
Ntp1730
Rp1731
(dp1732
g21
I00
sg49
I01
sg23
I00
sg50
I00
sbsg1199
g0
(g71
g2
Ntp1733
Rp1734
(dp1735
g21
I00
sg49
I01
sg23
I00
sg50
I00
sbsg1198
g0
(g45
g2
Ntp1736
Rp1737
(dp1738
g21
I00
sg49
I01
sg23
I00
sg50
g59
sbsg1690
g0
(g45
g2
Ntp1739
Rp1740
(dp1741
g21
I00
sg49
I01
sg23
I00
sg50
g59
sbsg430
g0
(g444
g2
Ntp1742
Rp1743
(dp1744
g21
I00
sg49
I00
sg23
I00
sg448
g449
sg450
Nsbsg24
V/cvmfs/cms.cern.ch/slc7_amd64_gcc11/cms/cmssw-patch/CMSSW_13_0_5_patch1/src/EventFilter/SiPixelRawToDigi/python/SiPixelRawToDigi_cfi.py
p1745
sg26
I8
sg27
VsiPixelDigis@cpu
p1746
sbsg27
g1675
sbssV_Process__source
p1747
g0
(cFWCore.ParameterSet.Modules
Source
p1748
g2
Ntp1749
Rp1750
(dp1751
g17
VPoolSource
p1752
sg19
(lp1753
VfileNames
p1754
asg21
I00
sg22
Nsg1754
g0
(g449
g62
(lp1755
V/store/data/Run2023C/ZeroBias/AOD/PromptReco-v1/000/367/515/00000/f1b0afc9-79cc-42e2-b9ea-c2334255e847.root
p1756
atp1757
Rp1758
(dp1759
g21
I00
sg49
I00
sg23
I00
sg760
I1
sbsg23
I00
sg24
g1586
sg26
I195
sbsV_Process__looper
p1760
NsV_Process__subProcesses
p1761
(lp1762
sV_Process__schedule
p1763
NsV_Process__analyzers
p1764
(dp1765
Vdemo
p1766
g0
(cFWCore.ParameterSet.Modules
EDAnalyzer
p1767
g2
Ntp1768
Rp1769
(dp1770
g17
VRPCNtuplizer
p1771
sg19
(lp1772
VrpcRecHits_tag
p1773
aVscalersResults
p1774
aVnoisy
p1775
asg21
I00
sg22
Nsg1773
g0
(g52
g2
Ntp1776
Rp1777
(dp1778
g21
I00
sg49
I00
sg23
I00
sg56
VrpcRecHits
p1779
sg58
g59
sg60
g59
sbsg23
I00
sg1774
g0
(g52
g2
Ntp1780
Rp1781
(dp1782
g21
I00
sg49
I01
sg23
I00
sg56
g1064
sg58
g59
sg60
g59
sbsg1775
g0
(g45
g2
Ntp1783
Rp1784
(dp1785
g21
I00
sg49
I01
sg23
I00
sg50
VAll_Noisy_strips_ID.txt
p1786
sbsg24
V/afs/cern.ch/user/l/lfavilla/CMSSW_13_0_5_patch1/src/DPGAnalysis/RateVsLumi/ConfFile_RPCNtuplizer.py
p1787
sg26
I27
sg27
g1766
sbssV_Process__outputmodules
p1788
(dp1789
sV_Process__paths
p1790
g0
(cFWCore.ParameterSet.DictTypes
SortedKeysDict
p1791
c__builtin__
dict
p1792
(dp1793
Vp
p1794
g0
(cFWCore.ParameterSet.SequenceTypes
Path
p1795
g2
Ntp1796
Rp1797
(dp1798
g21
I00
sV_seq
p1799
g0
(cFWCore.ParameterSet.SequenceTypes
_SequenceCollection
p1800
g2
Ntp1801
Rp1802
(dp1803
V_collection
p1804
(lp1805
g1769
asbsg23
I00
sV_tasks
p1806
g0
(cFWCore.ParameterSet.OrderedSet
OrderedSet
p1807
g2
Ntp1808
Rp1809
(dp1810
Vend
p1811
(lp1812
Nag1812
ag1812
asVmap
p1813
(dp1814
sbsg27
g1794
sbstp1815
Rp1816
(dp1817
Vlist
p1818
(lp1819
g1794
asbsV_Process__endpaths
p1820
g0
(g1791
g1792
(dp1821
tp1822
Rp1823
(dp1824
g1818
(lp1825
sbsV_Process__finalpaths
p1826
g0
(g1791
g1792
(dp1827
tp1828
Rp1829
(dp1830
g1818
(lp1831
sbsV_Process__sequences
p1832
(dp1833
g32
g0
(cFWCore.ParameterSet.SequenceTypes
Sequence
p1834
g2
Ntp1835
Rp1836
(dp1837
g21
I00
sg1799
Nsg23
I00
sg1806
g0
(g1807
g2
Ntp1838
Rp1839
(dp1840
g1811
(lp1841
Na(lp1842
g0
(cFWCore.ParameterSet.SequenceTypes
Task
p1843
g2
Ntp1844
Rp1845
(dp1846
g1804
g0
(g1807
g2
Ntp1847
Rp1848
(dp1849
g1811
(lp1850
Na(lp1851
g0
(g1843
g2
Ntp1852
Rp1853
(dp1854
g1804
g0
(g1807
g2
Ntp1855
Rp1856
(dp1857
g1811
(lp1858
Na(lp1859
g650
a(lp1860
g621
a(lp1861
g561
a(lp1862
g454
a(lp1863
g305
ag1858
ag1862
aag1861
aag1860
aag1859
aag1858
aag1863
asg1813
(dp1864
g305
g1863
sg454
g1862
sg561
g1861
sg621
g1860
sg650
g1859
ssbsg27
VL1TRawToDigi_Legacy
p1865
sbag1850
ag1850
aag1851
asg1813
(dp1866
g1853
g1851
ssbsg27
VL1TRawToDigiTask
p1867
sbag1841
ag1841
aag1842
asg1813
(dp1868
g1845
g1842
ssbsg27
g32
sbsg345
g0
(g1834
g2
Ntp1869
Rp1870
(dp1871
g21
I00
sg1799
Nsg23
I00
sg1806
g0
(g1807
g2
Ntp1872
Rp1873
(dp1874
g1811
(lp1875
Na(lp1876
g0
(g1843
g2
Ntp1877
Rp1878
(dp1879
g1804
g0
(g1807
g2
Ntp1880
Rp1881
(dp1882
g1811
(lp1883
Na(lp1884
g1066
a(lp1885
g1345
a(lp1886
g1179
a(lp1887
g238
a(lp1888
g1036
a(lp1889
g921
a(lp1890
g828
a(lp1891
g708
a(lp1892
g503
a(lp1893
g0
(g1843
g2
Ntp1894
Rp1895
(dp1896
g1804
g0
(g1807
g2
Ntp1897
Rp1898
(dp1899
g1811
(lp1900
Na(lp1901
g1582
ag1900
ag1900
aag1901
asg1813
(dp1902
g1582
g1901
ssbsg27
VecalDigisTask
p1903
sba(lp1904
g1251
a(lp1905
g0
(g1843
g2
Ntp1906
Rp1907
(dp1908
g1804
g0
(g1807
g2
Ntp1909
Rp1910
(dp1911
g1811
(lp1912
Na(lp1913
g1677
ag1912
ag1912
aag1913
asg1813
(dp1914
g1677
g1913
ssbsg27
VsiPixelDigisTask
p1915
sba(lp1916
g1845
ag1883
ag1905
aag1904
aag1893
aag1892
aag1891
aag1890
aag1889
aag1888
aag1887
aag1886
aag1885
aag1884
aag1883
aag1916
asg1813
(dp1917
g1845
g1916
sg1907
g1905
sg1251
g1904
sg1895
g1893
sg503
g1892
sg708
g1891
sg828
g1890
sg921
g1889
sg1036
g1888
sg238
g1887
sg1179
g1886
sg1345
g1885
sg1066
g1884
ssbsg27
VRawToDigiTask
p1918
sbag1875
ag1875
aag1876
asg1813
(dp1919
g1878
g1876
ssbsg27
g345
sbsVRawToDigi_ecalOnly
p1920
g0
(g1834
g2
Ntp1921
Rp1922
(dp1923
g21
I00
sg1799
Nsg23
I00
sg1806
g0
(g1807
g2
Ntp1924
Rp1925
(dp1926
g1811
(lp1927
Na(lp1928
g0
(g1843
g2
Ntp1929
Rp1930
(dp1931
g1804
g0
(g1807
g2
Ntp1932
Rp1933
(dp1934
g1811
(lp1935
Na(lp1936
g1179
a(lp1937
g503
a(lp1938
g1895
ag1935
ag1937
aag1936
aag1935
aag1938
asg1813
(dp1939
g1895
g1938
sg503
g1937
sg1179
g1936
ssbsg27
VRawToDigiTask_ecalOnly
p1940
sbag1927
ag1927
aag1928
asg1813
(dp1941
g1930
g1928
ssbsg27
g1920
sbsVRawToDigi_hcalOnly
p1942
g0
(g1834
g2
Ntp1943
Rp1944
(dp1945
g21
I00
sg1799
Nsg23
I00
sg1806
g0
(g1807
g2
Ntp1946
Rp1947
(dp1948
g1811
(lp1949
Na(lp1950
g0
(g1843
g2
Ntp1951
Rp1952
(dp1953
g1804
g0
(g1807
g2
Ntp1954
Rp1955
(dp1956
g1811
(lp1957
Na(lp1958
g708
ag1957
ag1957
aag1958
asg1813
(dp1959
g708
g1958
ssbsg27
VRawToDigiTask_hcalOnly
p1960
sbag1949
ag1949
aag1950
asg1813
(dp1961
g1952
g1950
ssbsg27
g1942
sbsVRawToDigi_noTk
p1962
g0
(g1834
g2
Ntp1963
Rp1964
(dp1965
g21
I00
sg1799
Nsg23
I00
sg1806
g0
(g1807
g2
Ntp1966
Rp1967
(dp1968
g1811
(lp1969
Na(lp1970
g0
(g1843
g2
Ntp1971
Rp1972
(dp1973
g1804
g0
(g1807
g2
Ntp1974
Rp1975
(dp1976
g1811
(lp1977
Na(lp1978
g1066
a(lp1979
g1345
a(lp1980
g1179
a(lp1981
g238
a(lp1982
g1036
a(lp1983
g921
a(lp1984
g828
a(lp1985
g708
a(lp1986
g503
a(lp1987
g1895
a(lp1988
g1845
ag1977
ag1987
aag1986
aag1985
aag1984
aag1983
aag1982
aag1981
aag1980
aag1979
aag1978
aag1977
aag1988
asg1813
(dp1989
g1845
g1988
sg1895
g1987
sg503
g1986
sg708
g1985
sg828
g1984
sg921
g1983
sg1036
g1982
sg238
g1981
sg1179
g1980
sg1345
g1979
sg1066
g1978
ssbsg27
VRawToDigiTask_noTk
p1990
sbag1969
ag1969
aag1970
asg1813
(dp1991
g1972
g1970
ssbsg27
g1962
sbsVRawToDigi_pixelOnly
p1992
g0
(g1834
g2
Ntp1993
Rp1994
(dp1995
g21
I00
sg1799
Nsg23
I00
sg1806
g0
(g1807
g2
Ntp1996
Rp1997
(dp1998
g1811
(lp1999
Na(lp2000
g0
(g1843
g2
Ntp2001
Rp2002
(dp2003
g1804
g0
(g1807
g2
Ntp2004
Rp2005
(dp2006
g1811
(lp2007
Na(lp2008
g1179
a(lp2009
g1907
ag2007
ag2008
aag2007
aag2009
asg1813
(dp2010
g1907
g2009
sg1179
g2008
ssbsg27
VRawToDigiTask_pixelOnly
p2011
sbag1999
ag1999
aag2000
asg1813
(dp2012
g2002
g2000
ssbsg27
g1992
sbsVctppsRawToDigi
p2013
g0
(g1834
g2
Ntp2014
Rp2015
(dp2016
g21
I00
sg1799
Nsg23
I00
sg1806
g0
(g1807
g2
Ntp2017
Rp2018
(dp2019
g1811
(lp2020
Na(lp2021
g0
(g1843
g2
Ntp2022
Rp2023
(dp2024
g1804
g0
(g1807
g2
Ntp2025
Rp2026
(dp2027
g1811
(lp2028
Na(lp2029
g422
a(lp2030
g1433
a(lp2031
g1497
a(lp2032
g337
a(lp2033
g1369
ag2028
ag2032
aag2031
aag2030
aag2029
aag2028
aag2033
asg1813
(dp2034
g1369
g2033
sg337
g2032
sg1497
g2031
sg1433
g2030
sg422
g2029
ssbsg27
VctppsRawToDigiTask
p2035
sbag2020
ag2020
aag2021
asg1813
(dp2036
g2023
g2021
ssbsg27
g2013
sbssV_Process__tasks
p2037
(dp2038
g1867
g1845
sg1865
g1853
sVL1TRawToDigi_Stage1
p2039
g0
(g1843
g2
Ntp2040
Rp2041
(dp2042
g1804
g0
(g1807
g2
Ntp2043
Rp2044
(dp2045
g1811
(lp2046
Na(lp2047
g561
a(lp2048
g181
a(lp2049
g142
a(lp2050
g125
a(lp2051
g621
a(lp2052
g454
a(lp2053
g305
ag2046
ag2052
aag2051
aag2050
aag2049
aag2048
aag2047
aag2046
aag2053
asg1813
(dp2054
g305
g2053
sg454
g2052
sg621
g2051
sg125
g2050
sg142
g2049
sg181
g2048
sg561
g2047
ssbsg27
g2039
sbsVL1TRawToDigi_Stage2
p2055
g0
(g1843
g2
Ntp2056
Rp2057
(dp2058
g1804
g0
(g1807
g2
Ntp2059
Rp2060
(dp2061
g1811
(lp2062
Na(lp2063
g691
a(lp2064
g674
a(lp2065
g604
a(lp2066
g211
a(lp2067
g97
a(lp2068
g534
a(lp2069
g1091
a(lp2070
g1052
a(lp2071
g30
a(lp2072
g1549
a(lp2073
g1139
a(lp2074
g1164
ag2062
ag2073
aag2072
aag2071
aag2070
aag2069
aag2068
aag2067
aag2066
aag2065
aag2064
aag2063
aag2062
aag2074
asg1813
(dp2075
g1164
g2074
sg1139
g2073
sg1549
g2072
sg30
g2071
sg1052
g2070
sg1091
g2069
sg534
g2068
sg97
g2067
sg211
g2066
sg604
g2065
sg674
g2064
sg691
g2063
ssbsg27
g2055
sbsg1918
g1878
sg1940
g1930
sg1960
g1952
sg1990
g1972
sg2011
g2002
sg2035
g2023
sg1903
g1895
sg1915
g1907
ssV_Process__conditionaltasks
p2076
(dp2077
sV_Process__services
p2078
(dp2079
VMessageLogger
p2080
g0
(cFWCore.ParameterSet.Modules
Service
p2081
g2
Ntp2082
Rp2083
(dp2084
g17
g2080
sg19
(lp2085
VsuppressWarning
p2086
aVsuppressFwkInfo
p2087
aVsuppressInfo
p2088
aVsuppressDebug
p2089
aVdebugModules
p2090
aVcout
p2091
aVdefault
p2092
aVcerr
p2093
aVfiles
p2094
asg21
I00
sg22
g0
(g444
g2
Ntp2095
Rp2096
(dp2097
g21
I00
sg49
I00
sg23
I00
sg448
g0
(cFWCore.ParameterSet.Types
_PSetTemplate
p2098
g2
Ntp2099
Rp2100
(dp2101
V_pset
p2102
g0
(g358
g2
Ntp2103
Rp2104
(dp2105
g21
I00
sg49
I01
sg23
I00
sg19
(lp2106
VreportEvery
p2107
aVlimit
p2108
aVtimespan
p2109
asg22
Nsg2107
g0
(g75
g2
Ntp2110
Rp2111
(dp2112
g21
I00
sg49
I00
sg23
I00
sg50
I1
sbsg2108
g0
(g444
g2
Ntp2113
Rp2114
(dp2115
g21
I00
sg49
I00
sg23
I00
sg448
g75
sg450
Nsbsg2109
g0
(g444
g2
Ntp2116
Rp2117
(dp2118
g21
I00
sg49
I00
sg23
I00
sg448
g75
sg450
NsbsbsV_PSetTemplate__value
p2119
Nsbsg450
Nsbsg2086
g0
(g449
g62
(lp2120
tp2121
Rp2122
(dp2123
g21
I00
sg49
I00
sg23
I00
sg760
I1
sbsg23
I01
sg2087
g0
(g449
g62
(lp2124
tp2125
Rp2126
(dp2127
g21
I00
sg49
I00
sg23
I00
sg760
I1
sbsg2088
g0
(g449
g62
(lp2128
tp2129
Rp2130
(dp2131
g21
I00
sg49
I00
sg23
I00
sg760
I1
sbsg2089
g0
(g449
g62
(lp2132
tp2133
Rp2134
(dp2135
g21
I00
sg49
I00
sg23
I00
sg760
I1
sbsg2090
g0
(g449
g62
(lp2136
tp2137
Rp2138
(dp2139
g21
I00
sg49
I00
sg23
I00
sg760
I1
sbsg2091
g0
(g358
g2
Ntp2140
Rp2141
(dp2142
g21
I00
sg49
I00
sg23
I00
sg19
(lp2143
VnoLineBreaks
p2144
aVnoTimeStamps
p2145
aVlineLength
p2146
aVthreshold
p2147
aVstatisticsThreshold
p2148
aVenableStatistics
p2149
aVresetStatistics
p2150
aVenable
p2151
asg22
g2096
sg2144
g0
(g444
g2
Ntp2152
Rp2153
(dp2154
g21
I00
sg49
I00
sg23
I00
sg448
g71
sg450
Nsbsg2145
g0
(g444
g2
Ntp2155
Rp2156
(dp2157
g21
I00
sg49
I00
sg23
I00
sg448
g71
sg450
Nsbsg2146
g0
(g444
g2
Ntp2158
Rp2159
(dp2160
g21
I00
sg49
I00
sg23
I00
sg448
g75
sg450
Nsbsg2147
g0
(g444
g2
Ntp2161
Rp2162
(dp2163
g21
I00
sg49
I00
sg23
I00
sg448
g45
sg450
Nsbsg2148
g0
(g444
g2
Ntp2164
Rp2165
(dp2166
g21
I00
sg49
I00
sg23
I00
sg448
g45
sg450
Nsbsg2149
g0
(g71
g2
Ntp2167
Rp2168
(dp2169
g21
I00
sg49
I00
sg23
I00
sg50
I00
sbsg2150
g0
(g71
g2
Ntp2170
Rp2171
(dp2172
g21
I00
sg49
I00
sg23
I00
sg50
I00
sbsg2151
g0
(g71
g2
Ntp2173
Rp2174
(dp2175
g21
I00
sg49
I00
sg23
I00
sg50
I00
sbsbsg2092
g0
(g358
g2
Ntp2176
Rp2177
(dp2178
g21
I00
sg49
I00
sg23
I00
sg19
(lp2179
g2107
ag2108
ag2109
ag2144
ag2145
ag2146
ag2147
ag2148
asg22
g2096
sg2107
g0
(g75
g2
Ntp2180
Rp2181
(dp2182
g21
I00
sg49
I00
sg23
I00
sg50
I1
sbsg2108
g0
(g444
g2
Ntp2183
Rp2184
(dp2185
g21
I00
sg49
I00
sg23
I00
sg448
g75
sg450
Nsbsg2109
g0
(g444
g2
Ntp2186
Rp2187
(dp2188
g21
I00
sg49
I00
sg23
I00
sg448
g75
sg450
Nsbsg2144
g0
(g71
g2
Ntp2189
Rp2190
(dp2191
g21
I00
sg49
I00
sg23
I00
sg50
I00
sbsg2145
g0
(g71
g2
Ntp2192
Rp2193
(dp2194
g21
I00
sg49
I00
sg23
I00
sg50
I00
sbsg2146
g0
(g75
g2
Ntp2195
Rp2196
(dp2197
g21
I00
sg49
I00
sg23
I00
sg50
I80
sbsg2147
g0
(g45
g2
Ntp2198
Rp2199
(dp2200
g21
I00
sg49
I00
sg23
I00
sg50
VINFO
p2201
sbsg2148
g0
(g45
g2
Ntp2202
Rp2203
(dp2204
g21
I00
sg49
I00
sg23
I00
sg50
g2201
sbsbsg2093
g0
(g358
g2
Ntp2205
Rp2206
(dp2207
g21
I00
sg49
I00
sg23
I01
sg19
(lp2208
g2144
ag2145
ag2146
ag2147
ag2148
ag2151
ag2149
ag2150
ag2201
aVFwkReport
p2209
ag2092
aVRoot_NoDictionary
p2210
aVFwkSummary
p2211
asg22
g2096
sg2144
g0
(g444
g2
Ntp2212
Rp2213
(dp2214
g21
I00
sg49
I00
sg23
I00
sg448
g71
sg450
Nsbsg2145
g0
(g71
g2
Ntp2215
Rp2216
(dp2217
g21
I00
sg49
I00
sg23
I00
sg50
I00
sbsg2146
g0
(g444
g2
Ntp2218
Rp2219
(dp2220
g21
I00
sg49
I00
sg23
I00
sg448
g75
sg450
Nsbsg2147
g0
(g45
g2
Ntp2221
Rp2222
(dp2223
g21
I00
sg49
I00
sg23
I00
sg50
VDEBUG
p2224
sbsg2148
g0
(g45
g2
Ntp2225
Rp2226
(dp2227
g21
I00
sg49
I00
sg23
I00
sg50
VWARNING
p2228
sbsg2151
g0
(g71
g2
Ntp2229
Rp2230
(dp2231
g21
I00
sg49
I00
sg23
I00
sg50
I01
sbsg2149
g0
(g71
g2
Ntp2232
Rp2233
(dp2234
g21
I00
sg49
I00
sg23
I00
sg50
I00
sbsg2150
g0
(g71
g2
Ntp2235
Rp2236
(dp2237
g21
I00
sg49
I00
sg23
I00
sg50
I00
sbsg2201
g0
(g358
g2
Ntp2238
Rp2239
(dp2240
g21
I00
sg49
I00
sg23
I00
sg19
(lp2241
g2108
asg22
Nsg2108
g0
(g75
g2
Ntp2242
Rp2243
(dp2244
g21
I00
sg49
I00
sg23
I00
sg50
I0
sbsbsg2209
g0
(g358
g2
Ntp2245
Rp2246
(dp2247
g21
I00
sg49
I00
sg23
I01
sg19
(lp2248
g2107
ag2108
asg22
Nsg2107
g0
(g75
g2
Ntp2249
Rp2250
(dp2251
g21
I00
sg49
I00
sg23
I00
sg50
I1
sbsg2108
g0
(g75
g2
Ntp2252
Rp2253
(dp2254
g21
I00
sg49
I00
sg23
I00
sg50
I10000000
sbsbsg2092
g0
(g358
g2
Ntp2255
Rp2256
(dp2257
g21
I00
sg49
I00
sg23
I00
sg19
(lp2258
g2108
asg22
Nsg2108
g0
(g75
g2
Ntp2259
Rp2260
(dp2261
g21
I00
sg49
I00
sg23
I00
sg50
I10000000
sbsbsg2210
g0
(g358
g2
Ntp2262
Rp2263
(dp2264
g21
I00
sg49
I00
sg23
I00
sg19
(lp2265
g2108
asg22
Nsg2108
g0
(g75
g2
Ntp2266
Rp2267
(dp2268
g21
I00
sg49
I00
sg23
I00
sg50
I0
sbsbsg2211
g0
(g358
g2
Ntp2269
Rp2270
(dp2271
g21
I00
sg49
I00
sg23
I00
sg19
(lp2272
g2107
ag2108
asg22
Nsg2107
g0
(g75
g2
Ntp2273
Rp2274
(dp2275
g21
I00
sg49
I00
sg23
I00
sg50
I1
sbsg2108
g0
(g75
g2
Ntp2276
Rp2277
(dp2278
g21
I00
sg49
I00
sg23
I00
sg50
I10000000
sbsbsbsg2094
g0
(g358
g2
Ntp2279
Rp2280
(dp2281
g21
I00
sg49
I00
sg23
I00
sg19
(lp2282
sg22
g0
(g444
g2
Ntp2283
Rp2284
(dp2285
g21
I00
sg49
I00
sg23
I00
sg448
g0
(g2098
g2
Ntp2286
Rp2287
(dp2288
g2102
g0
(g358
g2
Ntp2289
Rp2290
(dp2291
g21
I00
sg49
I01
sg23
I00
sg19
(lp2292
g2144
ag2145
ag2146
ag2147
ag2148
ag2149
ag2150
aVfilename
p2293
aVextension
p2294
aVoutput
p2295
asg22
g2096
sg2144
g0
(g444
g2
Ntp2296
Rp2297
(dp2298
g21
I00
sg49
I00
sg23
I00
sg448
g71
sg450
Nsbsg2145
g0
(g444
g2
Ntp2299
Rp2300
(dp2301
g21
I00
sg49
I00
sg23
I00
sg448
g71
sg450
Nsbsg2146
g0
(g444
g2
Ntp2302
Rp2303
(dp2304
g21
I00
sg49
I00
sg23
I00
sg448
g75
sg450
Nsbsg2147
g0
(g444
g2
Ntp2305
Rp2306
(dp2307
g21
I00
sg49
I00
sg23
I00
sg448
g45
sg450
Nsbsg2148
g0
(g444
g2
Ntp2308
Rp2309
(dp2310
g21
I00
sg49
I00
sg23
I00
sg448
g45
sg450
Nsbsg2149
g0
(g71
g2
Ntp2311
Rp2312
(dp2313
g21
I00
sg49
I00
sg23
I00
sg50
I00
sbsg2150
g0
(g71
g2
Ntp2314
Rp2315
(dp2316
g21
I00
sg49
I00
sg23
I00
sg50
I00
sbsg2293
g0
(g444
g2
Ntp2317
Rp2318
(dp2319
g21
I00
sg49
I00
sg23
I00
sg448
g45
sg450
Nsbsg2294
g0
(g444
g2
Ntp2320
Rp2321
(dp2322
g21
I00
sg49
I00
sg23
I00
sg448
g45
sg450
Nsbsg2295
g0
(g444
g2
Ntp2323
Rp2324
(dp2325
g21
I00
sg49
I00
sg23
I00
sg448
g45
sg450
Nsbsbsg2119
Nsbsg450
Nsbsbsg24
g1586
sg26
I13
sV_inProcess
p2326
I00
sbsVDQMStore
p2327
g0
(g2081
g2
Ntp2328
Rp2329
(dp2330
g17
g2327
sg19
(lp2331
g459
aVsaveByLumi
p2332
aVMEsToSave
p2333
aVtrackME
p2334
aVassertLegacySafe
p2335
aVenableMultiThread
p2336
asg21
I00
sg22
Nsg459
g0
(g75
g2
Ntp2337
Rp2338
(dp2339
g21
I00
sg49
I00
sg23
I00
sg50
I0
sbsg23
I00
sg2332
g0
(g71
g2
Ntp2340
Rp2341
(dp2342
g21
I00
sg49
I00
sg23
I00
sg50
I00
sbsg2333
g0
(g449
g62
(lp2343
VHcal/DigiTask/Occupancy/depth/depth1
p2344
aVHcal/DigiTask/Occupancy/depth/depth2
p2345
aVHcal/DigiTask/Occupancy/depth/depth3
p2346
aVHcal/DigiTask/Occupancy/depth/depth4
p2347
aVHcal/DigiTask/Occupancy/depth/depth5
p2348
aVHcal/DigiTask/Occupancy/depth/depth6
p2349
aVHcal/DigiTask/Occupancy/depth/depth7
p2350
aVHcal/DigiTask/Occupancy/depth/depthHO
p2351
aVHcal/DigiTask/OccupancyCut/depth/depth1
p2352
aVHcal/DigiTask/OccupancyCut/depth/depth2
p2353
aVHcal/DigiTask/OccupancyCut/depth/depth3
p2354
aVHcal/DigiTask/OccupancyCut/depth/depth4
p2355
aVHcal/DigiTask/OccupancyCut/depth/depth5
p2356
aVHcal/DigiTask/OccupancyCut/depth/depth6
p2357
aVHcal/DigiTask/OccupancyCut/depth/depth7
p2358
aVHcal/DigiTask/OccupancyCut/depth/depthHO
p2359
aVEcalBarrel/EBOccupancyTask/EBOT digi occupancy
p2360
aVEcalEndcap/EEOccupancyTask/EEOT digi occupancy EE -
p2361
aVEcalEndcap/EEOccupancyTask/EEOT digi occupancy EE +
p2362
aVEcalBarrel/EBOccupancyTask/EBOT DCC entries
p2363
aVEcalEndcap/EEOccupancyTask/EEOT DCC entries
p2364
aVEcal/EventInfo/processedEvents
p2365
aVPixelPhase1/Tracks/charge_PXBarrel
p2366
aVPixelPhase1/Tracks/charge_PXForward
p2367
aVPixelPhase1/Tracks/PXBarrel/charge_PXLayer_1
p2368
aVPixelPhase1/Tracks/PXBarrel/charge_PXLayer_2
p2369
aVPixelPhase1/Tracks/PXBarrel/charge_PXLayer_3
p2370
aVPixelPhase1/Tracks/PXBarrel/charge_PXLayer_4
p2371
aVPixelPhase1/Tracks/PXForward/charge_PXDisk_+1
p2372
aVPixelPhase1/Tracks/PXForward/charge_PXDisk_+2
p2373
aVPixelPhase1/Tracks/PXForward/charge_PXDisk_+3
p2374
aVPixelPhase1/Tracks/PXForward/charge_PXDisk_-1
p2375
aVPixelPhase1/Tracks/PXForward/charge_PXDisk_-2
p2376
aVPixelPhase1/Tracks/PXForward/charge_PXDisk_-3
p2377
aVPixelPhase1/Tracks/PXBarrel/size_PXLayer_1
p2378
aVPixelPhase1/Tracks/PXBarrel/size_PXLayer_2
p2379
aVPixelPhase1/Tracks/PXBarrel/size_PXLayer_3
p2380
aVPixelPhase1/Tracks/PXBarrel/size_PXLayer_4
p2381
aVPixelPhase1/Tracks/PXForward/size_PXDisk_+1
p2382
aVPixelPhase1/Tracks/PXForward/size_PXDisk_+2
p2383
aVPixelPhase1/Tracks/PXForward/size_PXDisk_+3
p2384
aVPixelPhase1/Tracks/PXForward/size_PXDisk_-1
p2385
aVPixelPhase1/Tracks/PXForward/size_PXDisk_-2
p2386
aVPixelPhase1/Tracks/PXForward/size_PXDisk_-3
p2387
aVHLT/Vertexing/hltPixelVertices/hltPixelVertices/goodvtxNbr
p2388
aVPixelPhase1/Tracks/num_clusters_ontrack_PXBarrel
p2389
aVPixelPhase1/Tracks/num_clusters_ontrack_PXForward
p2390
aVPixelPhase1/Tracks/clusterposition_zphi_ontrack
p2391
aVPixelPhase1/Tracks/PXBarrel/clusterposition_zphi_ontrack_PXLayer_1
p2392
aVPixelPhase1/Tracks/PXBarrel/clusterposition_zphi_ontrack_PXLayer_2
p2393
aVPixelPhase1/Tracks/PXBarrel/clusterposition_zphi_ontrack_PXLayer_3
p2394
aVPixelPhase1/Tracks/PXBarrel/clusterposition_zphi_ontrack_PXLayer_4
p2395
aVPixelPhase1/Tracks/PXForward/clusterposition_xy_ontrack_PXDisk_+1
p2396
aVPixelPhase1/Tracks/PXForward/clusterposition_xy_ontrack_PXDisk_+2
p2397
aVPixelPhase1/Tracks/PXForward/clusterposition_xy_ontrack_PXDisk_+3
p2398
aVPixelPhase1/Tracks/PXForward/clusterposition_xy_ontrack_PXDisk_-1
p2399
aVPixelPhase1/Tracks/PXForward/clusterposition_xy_ontrack_PXDisk_-2
p2400
aVPixelPhase1/Tracks/PXForward/clusterposition_xy_ontrack_PXDisk_-3
p2401
aVSiStrip/MechanicalView/TEC/PLUS/wheel_1/NormalizedHitResiduals_TEC__wheel__1
p2402
aVSiStrip/MechanicalView/TEC/PLUS/wheel_2/NormalizedHitResiduals_TEC__wheel__2
p2403
aVSiStrip/MechanicalView/TEC/PLUS/wheel_3/NormalizedHitResiduals_TEC__wheel__3
p2404
aVSiStrip/MechanicalView/TEC/PLUS/wheel_4/NormalizedHitResiduals_TEC__wheel__4
p2405
aVSiStrip/MechanicalView/TEC/PLUS/wheel_5/NormalizedHitResiduals_TEC__wheel__5
p2406
aVSiStrip/MechanicalView/TEC/PLUS/wheel_6/NormalizedHitResiduals_TEC__wheel__6
p2407
aVSiStrip/MechanicalView/TEC/PLUS/wheel_7/NormalizedHitResiduals_TEC__wheel__7
p2408
aVSiStrip/MechanicalView/TEC/PLUS/wheel_8/NormalizedHitResiduals_TEC__wheel__8
p2409
aVSiStrip/MechanicalView/TEC/PLUS/wheel_9/NormalizedHitResiduals_TEC__wheel__9
p2410
aVSiStrip/MechanicalView/TEC/MINUS/wheel_1/NormalizedHitResiduals_TEC__wheel__1
p2411
aVSiStrip/MechanicalView/TEC/MINUS/wheel_2/NormalizedHitResiduals_TEC__wheel__2
p2412
aVSiStrip/MechanicalView/TEC/MINUS/wheel_3/NormalizedHitResiduals_TEC__wheel__3
p2413
aVSiStrip/MechanicalView/TEC/MINUS/wheel_4/NormalizedHitResiduals_TEC__wheel__4
p2414
aVSiStrip/MechanicalView/TEC/MINUS/wheel_5/NormalizedHitResiduals_TEC__wheel__5
p2415
aVSiStrip/MechanicalView/TEC/MINUS/wheel_6/NormalizedHitResiduals_TEC__wheel__6
p2416
aVSiStrip/MechanicalView/TEC/MINUS/wheel_7/NormalizedHitResiduals_TEC__wheel__7
p2417
aVSiStrip/MechanicalView/TEC/MINUS/wheel_8/NormalizedHitResiduals_TEC__wheel__8
p2418
aVSiStrip/MechanicalView/TEC/MINUS/wheel_9/NormalizedHitResiduals_TEC__wheel__9
p2419
aVSiStrip/MechanicalView/TEC/PLUS/wheel_1/Summary_ClusterStoNCorr__OnTrack__TEC__PLUS__wheel__1
p2420
aVSiStrip/MechanicalView/TEC/PLUS/wheel_2/Summary_ClusterStoNCorr__OnTrack__TEC__PLUS__wheel__2
p2421
aVSiStrip/MechanicalView/TEC/PLUS/wheel_3/Summary_ClusterStoNCorr__OnTrack__TEC__PLUS__wheel__3
p2422
aVSiStrip/MechanicalView/TEC/PLUS/wheel_4/Summary_ClusterStoNCorr__OnTrack__TEC__PLUS__wheel__4
p2423
aVSiStrip/MechanicalView/TEC/PLUS/wheel_5/Summary_ClusterStoNCorr__OnTrack__TEC__PLUS__wheel__5
p2424
aVSiStrip/MechanicalView/TEC/PLUS/wheel_6/Summary_ClusterStoNCorr__OnTrack__TEC__PLUS__wheel__6
p2425
aVSiStrip/MechanicalView/TEC/PLUS/wheel_7/Summary_ClusterStoNCorr__OnTrack__TEC__PLUS__wheel__7
p2426
aVSiStrip/MechanicalView/TEC/PLUS/wheel_8/Summary_ClusterStoNCorr__OnTrack__TEC__PLUS__wheel__8
p2427
aVSiStrip/MechanicalView/TEC/PLUS/wheel_9/Summary_ClusterStoNCorr__OnTrack__TEC__PLUS__wheel__9
p2428
aVSiStrip/MechanicalView/TEC/MINUS/wheel_1/Summary_ClusterStoNCorr__OnTrack__TEC__MINUS__wheel__1
p2429
aVSiStrip/MechanicalView/TEC/MINUS/wheel_2/Summary_ClusterStoNCorr__OnTrack__TEC__MINUS__wheel__2
p2430
aVSiStrip/MechanicalView/TEC/MINUS/wheel_3/Summary_ClusterStoNCorr__OnTrack__TEC__MINUS__wheel__3
p2431
aVSiStrip/MechanicalView/TEC/MINUS/wheel_4/Summary_ClusterStoNCorr__OnTrack__TEC__MINUS__wheel__4
p2432
aVSiStrip/MechanicalView/TEC/MINUS/wheel_5/Summary_ClusterStoNCorr__OnTrack__TEC__MINUS__wheel__5
p2433
aVSiStrip/MechanicalView/TEC/MINUS/wheel_6/Summary_ClusterStoNCorr__OnTrack__TEC__MINUS__wheel__6
p2434
aVSiStrip/MechanicalView/TEC/MINUS/wheel_7/Summary_ClusterStoNCorr__OnTrack__TEC__MINUS__wheel__7
p2435
aVSiStrip/MechanicalView/TEC/MINUS/wheel_8/Summary_ClusterStoNCorr__OnTrack__TEC__MINUS__wheel__8
p2436
aVSiStrip/MechanicalView/TEC/MINUS/wheel_9/Summary_ClusterStoNCorr__OnTrack__TEC__MINUS__wheel__9
p2437
aVSiStrip/MechanicalView/TIB/layer_1/NormalizedHitResiduals_TIB__Layer__1
p2438
aVSiStrip/MechanicalView/TIB/layer_2/NormalizedHitResiduals_TIB__Layer__2
p2439
aVSiStrip/MechanicalView/TIB/layer_3/NormalizedHitResiduals_TIB__Layer__3
p2440
aVSiStrip/MechanicalView/TIB/layer_4/NormalizedHitResiduals_TIB__Layer__4
p2441
aVSiStrip/MechanicalView/TIB/layer_1/Summary_ClusterStoNCorr__OnTrack__TIB__layer__1
p2442
aVSiStrip/MechanicalView/TIB/layer_2/Summary_ClusterStoNCorr__OnTrack__TIB__layer__2
p2443
aVSiStrip/MechanicalView/TIB/layer_3/Summary_ClusterStoNCorr__OnTrack__TIB__layer__3
p2444
aVSiStrip/MechanicalView/TIB/layer_4/Summary_ClusterStoNCorr__OnTrack__TIB__layer__4
p2445
aVSiStrip/MechanicalView/TID/PLUS/wheel_1/NormalizedHitResiduals_TID__wheel__1
p2446
aVSiStrip/MechanicalView/TID/PLUS/wheel_2/NormalizedHitResiduals_TID__wheel__2
p2447
aVSiStrip/MechanicalView/TID/PLUS/wheel_3/NormalizedHitResiduals_TID__wheel__3
p2448
aVSiStrip/MechanicalView/TID/MINUS/wheel_1/NormalizedHitResiduals_TID__wheel__1
p2449
aVSiStrip/MechanicalView/TID/MINUS/wheel_2/NormalizedHitResiduals_TID__wheel__2
p2450
aVSiStrip/MechanicalView/TID/MINUS/wheel_3/NormalizedHitResiduals_TID__wheel__3
p2451
aVSiStrip/MechanicalView/TID/PLUS/wheel_1/Summary_ClusterStoNCorr__OnTrack__TID__PLUS__wheel__1
p2452
aVSiStrip/MechanicalView/TID/PLUS/wheel_2/Summary_ClusterStoNCorr__OnTrack__TID__PLUS__wheel__2
p2453
aVSiStrip/MechanicalView/TID/PLUS/wheel_3/Summary_ClusterStoNCorr__OnTrack__TID__PLUS__wheel__3
p2454
aVSiStrip/MechanicalView/TID/MINUS/wheel_1/Summary_ClusterStoNCorr__OnTrack__TID__MINUS__wheel__1
p2455
aVSiStrip/MechanicalView/TID/MINUS/wheel_2/Summary_ClusterStoNCorr__OnTrack__TID__MINUS__wheel__2
p2456
aVSiStrip/MechanicalView/TID/MINUS/wheel_3/Summary_ClusterStoNCorr__OnTrack__TID__MINUS__wheel__3
p2457
aVSiStrip/MechanicalView/TOB/layer_1/NormalizedHitResiduals_TOB__Layer__1
p2458
aVSiStrip/MechanicalView/TOB/layer_2/NormalizedHitResiduals_TOB__Layer__2
p2459
aVSiStrip/MechanicalView/TOB/layer_3/NormalizedHitResiduals_TOB__Layer__3
p2460
aVSiStrip/MechanicalView/TOB/layer_4/NormalizedHitResiduals_TOB__Layer__4
p2461
aVSiStrip/MechanicalView/TOB/layer_5/NormalizedHitResiduals_TOB__Layer__5
p2462
aVSiStrip/MechanicalView/TOB/layer_6/NormalizedHitResiduals_TOB__Layer__6
p2463
aVSiStrip/MechanicalView/TOB/layer_1/Summary_ClusterStoNCorr__OnTrack__TOB__layer__1
p2464
aVSiStrip/MechanicalView/TOB/layer_2/Summary_ClusterStoNCorr__OnTrack__TOB__layer__2
p2465
aVSiStrip/MechanicalView/TOB/layer_3/Summary_ClusterStoNCorr__OnTrack__TOB__layer__3
p2466
aVSiStrip/MechanicalView/TOB/layer_4/Summary_ClusterStoNCorr__OnTrack__TOB__layer__4
p2467
aVSiStrip/MechanicalView/TOB/layer_5/Summary_ClusterStoNCorr__OnTrack__TOB__layer__5
p2468
aVSiStrip/MechanicalView/TOB/layer_6/Summary_ClusterStoNCorr__OnTrack__TOB__layer__6
p2469
aVSiStrip/MechanicalView/MainDiagonal Position
p2470
aVSiStrip/MechanicalView/NumberOfClustersInPixel
p2471
aVSiStrip/MechanicalView/NumberOfClustersInStrip
p2472
aVTracking/TrackParameters/generalTracks/LSanalysis/Chi2oNDF_lumiFlag_GenTk
p2473
aVTracking/TrackParameters/generalTracks/LSanalysis/NumberOfRecHitsPerTrack_lumiFlag_GenTk
p2474
aVTracking/TrackParameters/generalTracks/LSanalysis/NumberOfTracks_lumiFlag_GenTk
p2475
aVTracking/TrackParameters/highPurityTracks/pt_1/GeneralProperties/SIPDxyToPV_GenTk
p2476
aVTracking/TrackParameters/highPurityTracks/pt_1/GeneralProperties/SIPDzToPV_GenTk
p2477
aVTracking/TrackParameters/highPurityTracks/pt_1/GeneralProperties/SIP3DToPV_GenTk
p2478
aVTracking/TrackParameters/generalTracks/HitProperties/NumberOfMissingOuterRecHitsPerTrack_GenTk
p2479
aVTracking/TrackParameters/generalTracks/HitProperties/NumberMORecHitsPerTrackVsPt_GenTk
p2480
aVOfflinePV/offlinePrimaryVertices/tagVtxProb
p2481
aVOfflinePV/offlinePrimaryVertices/tagType
p2482
aVOfflinePV/Resolution/PV/pull_x
p2483
aVOfflinePV/Resolution/PV/pull_y
p2484
aVOfflinePV/Resolution/PV/pull_z
p2485
aVJetMET/Jet/Cleanedak4PFJetsCHS/CHFrac_highPt_Barrel
p2486
aVJetMET/Jet/Cleanedak4PFJetsCHS/CHFrac_highPt_EndCap
p2487
aVJetMET/Jet/Cleanedak4PFJetsCHS/CHFrac_mediumPt_Barrel
p2488
aVJetMET/Jet/Cleanedak4PFJetsCHS/CHFrac_mediumPt_EndCap
p2489
aVJetMET/Jet/Cleanedak4PFJetsCHS/CHFrac_lowPt_Barrel
p2490
aVJetMET/Jet/Cleanedak4PFJetsCHS/CHFrac_lowPt_EndCap
p2491
aVJetMET/Jet/Cleanedak4PFJetsCHS/ChMultiplicity_highPt_Barrel
p2492
aVJetMET/Jet/Cleanedak4PFJetsCHS/ChMultiplicity_highPt_EndCap
p2493
aVJetMET/Jet/Cleanedak4PFJetsCHS/ChMultiplicity_mediumPt_Barrel
p2494
aVJetMET/Jet/Cleanedak4PFJetsCHS/ChMultiplicity_mediumPt_EndCap
p2495
aVJetMET/Jet/Cleanedak4PFJetsCHS/ChMultiplicity_lowPt_Barrel
p2496
aVJetMET/Jet/Cleanedak4PFJetsCHS/ChMultiplicity_lowPt_EndCap
p2497
aVJetMET/Jet/Cleanedak4PFJetsCHS/Constituents
p2498
aVJetMET/Jet/Cleanedak4PFJetsCHS/Eta
p2499
aVJetMET/Jet/Cleanedak4PFJetsCHS/Eta_uncor
p2500
aVJetMET/Jet/Cleanedak4PFJetsCHS/JetEnergyCorr
p2501
aVJetMET/Jet/Cleanedak4PFJetsCHS/NJets
p2502
aVJetMET/Jet/Cleanedak4PFJetsCHS/Phi
p2503
aVJetMET/Jet/Cleanedak4PFJetsCHS/Phi_Barrel
p2504
aVJetMET/Jet/Cleanedak4PFJetsCHS/Phi_EndCap
p2505
aVJetMET/Jet/Cleanedak4PFJetsCHS/Pt
p2506
aVJetMET/MET/pfMETT1/Cleaned/METSig
p2507
aVJetMET/vertices
p2508
atp2509
Rp2510
(dp2511
g21
I00
sg49
I00
sg23
I00
sg760
I1
sbsg2334
g0
(g45
g2
Ntp2512
Rp2513
(dp2514
g21
I00
sg49
I00
sg23
I00
sg50
g59
sbsg2335
g0
(g71
g2
Ntp2515
Rp2516
(dp2517
g21
I00
sg49
I00
sg23
I00
sg50
I00
sbsg2336
g0
(g71
g2
Ntp2518
Rp2519
(dp2520
g21
I00
sg49
I00
sg23
I00
sg50
I01
sbsg24
g1586
sg26
I13
sg2326
I01
sbsVRandomNumberGeneratorService
p2521
g0
(g2081
g2
Ntp2522
Rp2523
(dp2524
g17
g2521
sg19
(lp2525
VexternalLHEProducer
p2526
aVgenerator
p2527
aVVtxSmeared
p2528
aVLHCTransport
p2529
aVhiSignalLHCTransport
p2530
aVg4SimHits
p2531
aVmix
p2532
aVmixData
p2533
aVsimSiStripDigiSimLink
p2534
aVsimMuonDTDigis
p2535
aVsimMuonCSCDigis
p2536
aVsimMuonRPCDigis
p2537
aVhiSignal
p2538
aVhiSignalG4SimHits
p2539
aVfamosPileUp
p2540
aVmixGenPU
p2541
aVmixSimCaloHits
p2542
aVmixRecoTracks
p2543
aVfastSimProducer
p2544
aVfastTrackerRecHits
p2545
aVecalRecHit
p2546
aVecalPreshowerRecHit
p2547
aVhbhereco
p2548
aVhoreco
p2549
aVhfreco
p2550
aVparamMuons
p2551
aVl1ParamMuons
p2552
aVMuonSimHits
p2553
aVCTPPSFastRecHits
p2554
aVsimBeamSpotFilter
p2555
aVRPixDetDigitizer
p2556
aVRPSiDetDigitizer
p2557
aVsaveFileName
p2558
asg21
I00
sg22
Nsg2526
g0
(g358
g2
Ntp2559
Rp2560
(dp2561
g21
I00
sg49
I01
sg23
I00
sg19
(lp2562
VinitialSeed
p2563
aVengineName
p2564
asg22
Nsg2563
g0
(g67
g2
Ntp2565
Rp2566
(dp2567
g21
I00
sg49
I00
sg23
I00
sg50
I234567
sbsg2564
g0
(g45
g2
Ntp2568
Rp2569
(dp2570
g21
I00
sg49
I00
sg23
I00
sg50
VMixMaxRng
p2571
sbsbsg23
I00
sg2527
g0
(g358
g2
Ntp2572
Rp2573
(dp2574
g21
I00
sg49
I01
sg23
I00
sg19
(lp2575
g2563
ag2564
asg22
Nsg2563
g0
(g67
g2
Ntp2576
Rp2577
(dp2578
g21
I00
sg49
I00
sg23
I00
sg50
I123456789
sbsg2564
g2569
sbsg2528
g0
(g358
g2
Ntp2579
Rp2580
(dp2581
g21
I00
sg49
I01
sg23
I00
sg19
(lp2582
g2563
ag2564
asg22
Nsg2563
g0
(g67
g2
Ntp2583
Rp2584
(dp2585
g21
I00
sg49
I00
sg23
I00
sg50
I98765432
sbsg2564
g2569
sbsg2529
g0
(g358
g2
Ntp2586
Rp2587
(dp2588
g21
I00
sg49
I01
sg23
I00
sg19
(lp2589
g2563
ag2564
asg22
Nsg2563
g0
(g67
g2
Ntp2590
Rp2591
(dp2592
g21
I00
sg49
I00
sg23
I00
sg50
I87654321
sbsg2564
g0
(g45
g2
Ntp2593
Rp2594
(dp2595
g21
I00
sg49
I00
sg23
I00
sg50
VTRandom3
p2596
sbsbsg2530
g0
(g358
g2
Ntp2597
Rp2598
(dp2599
g21
I00
sg49
I01
sg23
I00
sg19
(lp2600
g2563
ag2564
asg22
Nsg2563
g0
(g67
g2
Ntp2601
Rp2602
(dp2603
g21
I00
sg49
I00
sg23
I00
sg50
I88776655
sbsg2564
g0
(g45
g2
Ntp2604
Rp2605
(dp2606
g21
I00
sg49
I00
sg23
I00
sg50
g2571
sbsbsg2531
g0
(g358
g2
Ntp2607
Rp2608
(dp2609
g21
I00
sg49
I01
sg23
I00
sg19
(lp2610
g2563
ag2564
asg22
Nsg2563
g0
(g67
g2
Ntp2611
Rp2612
(dp2613
g21
I00
sg49
I00
sg23
I00
sg50
I11
sbsg2564
g2569
sbsg2532
g0
(g358
g2
Ntp2614
Rp2615
(dp2616
g21
I00
sg49
I01
sg23
I00
sg19
(lp2617
g2563
ag2564
asg22
Nsg2563
g0
(g67
g2
Ntp2618
Rp2619
(dp2620
g21
I00
sg49
I00
sg23
I00
sg50
I12345
sbsg2564
g2569
sbsg2533
g0
(g358
g2
Ntp2621
Rp2622
(dp2623
g21
I00
sg49
I01
sg23
I00
sg19
(lp2624
g2563
ag2564
asg22
Nsg2563
g0
(g67
g2
Ntp2625
Rp2626
(dp2627
g21
I00
sg49
I00
sg23
I00
sg50
I12345
sbsg2564
g2569
sbsg2534
g0
(g358
g2
Ntp2628
Rp2629
(dp2630
g21
I00
sg49
I01
sg23
I00
sg19
(lp2631
g2563
ag2564
asg22
Nsg2563
g0
(g67
g2
Ntp2632
Rp2633
(dp2634
g21
I00
sg49
I00
sg23
I00
sg50
I1234567
sbsg2564
g2569
sbsg2535
g0
(g358
g2
Ntp2635
Rp2636
(dp2637
g21
I00
sg49
I01
sg23
I00
sg19
(lp2638
g2563
ag2564
asg22
Nsg2563
g0
(g67
g2
Ntp2639
Rp2640
(dp2641
g21
I00
sg49
I00
sg23
I00
sg50
I1234567
sbsg2564
g2569
sbsg2536
g0
(g358
g2
Ntp2642
Rp2643
(dp2644
g21
I00
sg49
I01
sg23
I00
sg19
(lp2645
g2563
ag2564
asg22
Nsg2563
g0
(g67
g2
Ntp2646
Rp2647
(dp2648
g21
I00
sg49
I00
sg23
I00
sg50
I11223344
sbsg2564
g2569
sbsg2537
g0
(g358
g2
Ntp2649
Rp2650
(dp2651
g21
I00
sg49
I01
sg23
I00
sg19
(lp2652
g2563
ag2564
asg22
Nsg2563
g0
(g67
g2
Ntp2653
Rp2654
(dp2655
g21
I00
sg49
I00
sg23
I00
sg50
I1234567
sbsg2564
g2569
sbsg2538
g0
(g358
g2
Ntp2656
Rp2657
(dp2658
g21
I00
sg49
I01
sg23
I00
sg19
(lp2659
g2563
ag2564
asg22
Nsg2563
g0
(g67
g2
Ntp2660
Rp2661
(dp2662
g21
I00
sg49
I00
sg23
I00
sg50
I123456789
sbsg2564
g2569
sbsg2539
g0
(g358
g2
Ntp2663
Rp2664
(dp2665
g21
I00
sg49
I01
sg23
I00
sg19
(lp2666
g2563
ag2564
asg22
Nsg2563
g0
(g67
g2
Ntp2667
Rp2668
(dp2669
g21
I00
sg49
I00
sg23
I00
sg50
I11
sbsg2564
g2569
sbsg2540
g0
(g358
g2
Ntp2670
Rp2671
(dp2672
g21
I00
sg49
I01
sg23
I00
sg19
(lp2673
g2563
ag2564
asg22
Nsg2563
g0
(g67
g2
Ntp2674
Rp2675
(dp2676
g21
I00
sg49
I00
sg23
I00
sg50
I918273
sbsg2564
g2605
sbsg2541
g0
(g358
g2
Ntp2677
Rp2678
(dp2679
g21
I00
sg49
I01
sg23
I00
sg19
(lp2680
g2563
ag2564
asg22
Nsg2563
g0
(g67
g2
Ntp2681
Rp2682
(dp2683
g21
I00
sg49
I00
sg23
I00
sg50
I918273
sbsg2564
g2605
sbsg2542
g0
(g358
g2
Ntp2684
Rp2685
(dp2686
g21
I00
sg49
I01
sg23
I00
sg19
(lp2687
g2563
ag2564
asg22
Nsg2563
g0
(g67
g2
Ntp2688
Rp2689
(dp2690
g21
I00
sg49
I00
sg23
I00
sg50
I918273
sbsg2564
g2605
sbsg2543
g0
(g358
g2
Ntp2691
Rp2692
(dp2693
g21
I00
sg49
I01
sg23
I00
sg19
(lp2694
g2563
ag2564
asg22
Nsg2563
g0
(g67
g2
Ntp2695
Rp2696
(dp2697
g21
I00
sg49
I00
sg23
I00
sg50
I918273
sbsg2564
g2605
sbsg2544
g0
(g358
g2
Ntp2698
Rp2699
(dp2700
g21
I00
sg49
I01
sg23
I00
sg19
(lp2701
g2563
ag2564
asg22
Nsg2563
g0
(g67
g2
Ntp2702
Rp2703
(dp2704
g21
I00
sg49
I00
sg23
I00
sg50
I13579
sbsg2564
g2605
sbsg2545
g0
(g358
g2
Ntp2705
Rp2706
(dp2707
g21
I00
sg49
I01
sg23
I00
sg19
(lp2708
g2563
ag2564
asg22
Nsg2563
g0
(g67
g2
Ntp2709
Rp2710
(dp2711
g21
I00
sg49
I00
sg23
I00
sg50
I24680
sbsg2564
g2605
sbsg2546
g0
(g358
g2
Ntp2712
Rp2713
(dp2714
g21
I00
sg49
I01
sg23
I00
sg19
(lp2715
g2563
ag2564
asg22
Nsg2563
g0
(g67
g2
Ntp2716
Rp2717
(dp2718
g21
I00
sg49
I00
sg23
I00
sg50
I654321
sbsg2564
g2605
sbsg2547
g0
(g358
g2
Ntp2719
Rp2720
(dp2721
g21
I00
sg49
I01
sg23
I00
sg19
(lp2722
g2563
ag2564
asg22
Nsg2563
g0
(g67
g2
Ntp2723
Rp2724
(dp2725
g21
I00
sg49
I00
sg23
I00
sg50
I6541321
sbsg2564
g2605
sbsg2548
g0
(g358
g2
Ntp2726
Rp2727
(dp2728
g21
I00
sg49
I01
sg23
I00
sg19
(lp2729
g2563
ag2564
asg22
Nsg2563
g0
(g67
g2
Ntp2730
Rp2731
(dp2732
g21
I00
sg49
I00
sg23
I00
sg50
I541321
sbsg2564
g2605
sbsg2549
g0
(g358
g2
Ntp2733
Rp2734
(dp2735
g21
I00
sg49
I01
sg23
I00
sg19
(lp2736
g2563
ag2564
asg22
Nsg2563
g0
(g67
g2
Ntp2737
Rp2738
(dp2739
g21
I00
sg49
I00
sg23
I00
sg50
I541321
sbsg2564
g2605
sbsg2550
g0
(g358
g2
Ntp2740
Rp2741
(dp2742
g21
I00
sg49
I01
sg23
I00
sg19
(lp2743
g2563
ag2564
asg22
Nsg2563
g0
(g67
g2
Ntp2744
Rp2745
(dp2746
g21
I00
sg49
I00
sg23
I00
sg50
I541321
sbsg2564
g2605
sbsg2551
g0
(g358
g2
Ntp2747
Rp2748
(dp2749
g21
I00
sg49
I01
sg23
I00
sg19
(lp2750
g2563
ag2564
asg22
Nsg2563
g0
(g67
g2
Ntp2751
Rp2752
(dp2753
g21
I00
sg49
I00
sg23
I00
sg50
I54525
sbsg2564
g2605
sbsg2552
g0
(g358
g2
Ntp2754
Rp2755
(dp2756
g21
I00
sg49
I01
sg23
I00
sg19
(lp2757
g2563
ag2564
asg22
Nsg2563
g0
(g67
g2
Ntp2758
Rp2759
(dp2760
g21
I00
sg49
I00
sg23
I00
sg50
I6453209
sbsg2564
g2605
sbsg2553
g0
(g358
g2
Ntp2761
Rp2762
(dp2763
g21
I00
sg49
I01
sg23
I00
sg19
(lp2764
g2563
ag2564
asg22
Nsg2563
g0
(g67
g2
Ntp2765
Rp2766
(dp2767
g21
I00
sg49
I00
sg23
I00
sg50
I987346
sbsg2564
g2605
sbsg2554
g0
(g358
g2
Ntp2768
Rp2769
(dp2770
g21
I00
sg49
I01
sg23
I00
sg19
(lp2771
g2563
ag2564
asg22
Nsg2563
g0
(g67
g2
Ntp2772
Rp2773
(dp2774
g21
I00
sg49
I00
sg23
I00
sg50
I1357987
sbsg2564
g2605
sbsg2555
g0
(g358
g2
Ntp2775
Rp2776
(dp2777
g21
I00
sg49
I01
sg23
I00
sg19
(lp2778
g2563
ag2564
asg22
Nsg2563
g0
(g67
g2
Ntp2779
Rp2780
(dp2781
g21
I00
sg49
I00
sg23
I00
sg50
I87654321
sbsg2564
g2569
sbsg2556
g0
(g358
g2
Ntp2782
Rp2783
(dp2784
g21
I00
sg49
I01
sg23
I00
sg19
(lp2785
g2563
ag2564
asg22
Nsg2563
g0
(g67
g2
Ntp2786
Rp2787
(dp2788
g21
I00
sg49
I00
sg23
I00
sg50
I137137
sbsg2564
g2569
sbsg2557
g0
(g358
g2
Ntp2789
Rp2790
(dp2791
g21
I00
sg49
I01
sg23
I00
sg19
(lp2792
g2563
ag2564
asg22
Nsg2563
g0
(g67
g2
Ntp2793
Rp2794
(dp2795
g21
I00
sg49
I00
sg23
I00
sg50
I137137
sbsg2564
g2569
sbsg2558
g0
(g45
g2
Ntp2796
Rp2797
(dp2798
g21
I00
sg49
I00
sg23
I00
sg50
g59
sbsg24
g1586
sg26
I13
sg2326
I01
sbsVTFileService
p2799
g0
(g2081
g2
Ntp2800
Rp2801
(dp2802
g17
g2799
sg19
(lp2803
VfileName
p2804
asg21
I00
sg22
Nsg2804
g0
(g45
g2
Ntp2805
Rp2806
(dp2807
g21
I00
sg49
I01
sg23
I00
sg50
VRPCNtuple.root
p2808
sbsg23
I00
sg24
g1586
sg26
I13
sg2326
I01
sbssV_Process__essources
p2809
(dp2810
VHepPDTESSource
p2811
g0
(cFWCore.ParameterSet.Modules
ESSource
p2812
g2
Ntp2813
Rp2814
(dp2815
g17
g2811
sg19
(lp2816
VpdtFileName
p2817
asg21
I00
sg22
Nsg2817
g0
(g521
g2
Ntp2818
Rp2819
(dp2820
g21
I00
sg49
I01
sg23
I00
sg50
VSimGeneral/HepPDTESSource/data/pythiaparticle.tbl
p2821
sbsg23
I00
sg24
V/cvmfs/cms.cern.ch/slc7_amd64_gcc11/cms/cmssw-patch/CMSSW_13_0_5_patch1/src/SimGeneral/HepPDTESSource/python/pythiapdt_cfi.py
p2822
sg26
I3
sg27
g2811
sbsVeegeom
p2823
g0
(g2812
g2
Ntp2824
Rp2825
(dp2826
g17
VEmptyESSource
p2827
sg19
(lp2828
VrecordName
p2829
aViovIsRunNotTime
p2830
aVfirstValid
p2831
asg21
I00
sg22
Nsg2829
g0
(g45
g2
Ntp2832
Rp2833
(dp2834
g21
I00
sg49
I01
sg23
I00
sg50
VEcalMappingRcd
p2835
sbsg23
I00
sg2830
g0
(g71
g2
Ntp2836
Rp2837
(dp2838
g21
I00
sg49
I01
sg23
I00
sg50
I01
sbsg2831
g0
(g353
g62
(lp2839
I1
atp2840
Rp2841
(dp2842
g21
I00
sg49
I01
sg23
I00
sbsg24
V/cvmfs/cms.cern.ch/slc7_amd64_gcc11/cms/cmssw-patch/CMSSW_13_0_5_patch1/src/Geometry/EcalMapping/python/EcalMappingRecord_cfi.py
p2843
sg26
I3
sg27
g2823
sbsVGlobalTag
p2844
g0
(g2812
g2
Ntp2845
Rp2846
(dp2847
g17
VPoolDBESSource
p2848
sg19
(lp2849
VDBParameters
p2850
aVconnect
p2851
aVglobaltag
p2852
aVsnapshotTime
p2853
aVtoGet
p2854
aVDumpStat
p2855
aVReconnectEachRun
p2856
aVRefreshAlways
p2857
aVRefreshEachRun
p2858
aVRefreshOpenIOVs
p2859
aVpfnPostfix
p2860
aVpfnPrefix
p2861
asg21
I00
sg22
Nsg2850
g0
(g358
g2
Ntp2862
Rp2863
(dp2864
g21
I00
sg49
I01
sg23
I00
sg19
(lp2865
VauthenticationPath
p2866
aVauthenticationSystem
p2867
aVsecurity
p2868
aVmessageLevel
p2869
aVconnectionTimeout
p2870
asg22
Nsg2866
g0
(g45
g2
Ntp2871
Rp2872
(dp2873
g21
I00
sg49
I00
sg23
I00
sg50
g59
sbsg2867
g0
(g75
g2
Ntp2874
Rp2875
(dp2876
g21
I00
sg49
I00
sg23
I00
sg50
I0
sbsg2868
g0
(g45
g2
Ntp2877
Rp2878
(dp2879
g21
I00
sg49
I00
sg23
I00
sg50
g59
sbsg2869
g0
(g75
g2
Ntp2880
Rp2881
(dp2882
g21
I00
sg49
I00
sg23
I00
sg50
I0
sbsg2870
g0
(g75
g2
Ntp2883
Rp2884
(dp2885
g21
I00
sg49
I00
sg23
I00
sg50
I0
sbsbsg23
I01
sg2851
g0
(g45
g2
Ntp2886
Rp2887
(dp2888
g21
I00
sg49
I01
sg23
I00
sg50
Vfrontier://FrontierProd/CMS_CONDITIONS
p2889
sbsg2852
g0
(g45
g2
Ntp2890
Rp2891
(dp2892
g21
I00
sg49
I01
sg23
I01
sg50
V124X_dataRun3_Prompt_v4
p2893
sbsg2853
g0
(g45
g2
Ntp2894
Rp2895
(dp2896
g21
I00
sg49
I01
sg23
I00
sg50
g59
sbsg2854
g0
(cFWCore.ParameterSet.Types
VPSet
p2897
g62
(lp2898
tp2899
Rp2900
(dp2901
g21
I00
sg49
I01
sg23
I00
sg760
I1
sbsg2855
g0
(g71
g2
Ntp2902
Rp2903
(dp2904
g21
I00
sg49
I00
sg23
I00
sg50
I00
sbsg2856
g0
(g71
g2
Ntp2905
Rp2906
(dp2907
g21
I00
sg49
I00
sg23
I00
sg50
I00
sbsg2857
g0
(g71
g2
Ntp2908
Rp2909
(dp2910
g21
I00
sg49
I00
sg23
I00
sg50
I00
sbsg2858
g0
(g71
g2
Ntp2911
Rp2912
(dp2913
g21
I00
sg49
I00
sg23
I00
sg50
I00
sbsg2859
g0
(g71
g2
Ntp2914
Rp2915
(dp2916
g21
I00
sg49
I00
sg23
I00
sg50
I00
sbsg2860
g0
(g45
g2
Ntp2917
Rp2918
(dp2919
g21
I00
sg49
I00
sg23
I00
sg50
g59
sbsg2861
g0
(g45
g2
Ntp2920
Rp2921
(dp2922
g21
I00
sg49
I00
sg23
I00
sg50
g59
sbsg24
V/cvmfs/cms.cern.ch/slc7_amd64_gcc11/cms/cmssw-patch/CMSSW_13_0_5_patch1/src/CondCore/ESSources/python/CondDBESSource_cfi.py
p2923
sg26
I8
sg27
g2844
sbsVHcalTimeSlewEP
p2924
g0
(g2812
g2
Ntp2925
Rp2926
(dp2927
g17
g2924
sg19
(lp2928
VappendToDataLabel
p2929
aVtimeSlewParametersM2
p2930
aVtimeSlewParametersM3
p2931
asg21
I00
sg22
Nsg2929
g0
(g45
g2
Ntp2932
Rp2933
(dp2934
g21
I00
sg49
I01
sg23
I00
sg50
VHBHE
p2935
sbsg23
I00
sg2930
g0
(g2897
g62
(lp2936
g0
(g358
g2
Ntp2937
Rp2938
(dp2939
g21
I00
sg49
I01
sg23
I00
sg19
(lp2940
Vtzero
p2941
aVslope
p2942
aVtmax
p2943
asg22
Nsg2941
g0
(g406
g2
Ntp2944
Rp2945
(dp2946
g21
I00
sg49
I01
sg23
I00
sg50
F23.960177
sbsg2942
g0
(g406
g2
Ntp2947
Rp2948
(dp2949
g21
I00
sg49
I01
sg23
I00
sg50
F-3.178648
sbsg2943
g0
(g406
g2
Ntp2950
Rp2951
(dp2952
g21
I00
sg49
I01
sg23
I00
sg50
F16.0
sbsbag0
(g358
g2
Ntp2953
Rp2954
(dp2955
g21
I00
sg49
I01
sg23
I00
sg19
(lp2956
g2941
ag2942
ag2943
asg22
Nsg2941
g0
(g406
g2
Ntp2957
Rp2958
(dp2959
g21
I00
sg49
I01
sg23
I00
sg50
F11.977461
sbsg2942
g0
(g406
g2
Ntp2960
Rp2961
(dp2962
g21
I00
sg49
I01
sg23
I00
sg50
F-1.5610227
sbsg2943
g0
(g406
g2
Ntp2963
Rp2964
(dp2965
g21
I00
sg49
I01
sg23
I00
sg50
F10.0
sbsbag0
(g358
g2
Ntp2966
Rp2967
(dp2968
g21
I00
sg49
I01
sg23
I00
sg19
(lp2969
g2941
ag2942
ag2943
asg22
Nsg2941
g0
(g406
g2
Ntp2970
Rp2971
(dp2972
g21
I00
sg49
I01
sg23
I00
sg50
F9.109694
sbsg2942
g0
(g406
g2
Ntp2973
Rp2974
(dp2975
g21
I00
sg49
I01
sg23
I00
sg50
F-1.075824
sbsg2943
g0
(g406
g2
Ntp2976
Rp2977
(dp2978
g21
I00
sg49
I01
sg23
I00
sg50
F6.25
sbsbatp2979
Rp2980
(dp2981
g21
I00
sg49
I01
sg23
I00
sg760
I1
sbsg2931
g0
(g2897
g62
(lp2982
g0
(g358
g2
Ntp2983
Rp2984
(dp2985
g21
I00
sg49
I01
sg23
I00
sg19
(lp2986
Vcap
p2987
aVtspar0
p2988
aVtspar1
p2989
aVtspar2
p2990
aVtspar0_siPM
p2991
aVtspar1_siPM
p2992
aVtspar2_siPM
p2993
asg22
Nsg2987
g0
(g406
g2
Ntp2994
Rp2995
(dp2996
g21
I00
sg49
I01
sg23
I00
sg50
F6.0
sbsg2988
g0
(g406
g2
Ntp2997
Rp2998
(dp2999
g21
I00
sg49
I01
sg23
I00
sg50
F12.2999
sbsg2989
g0
(g406
g2
Ntp3000
Rp3001
(dp3002
g21
I00
sg49
I01
sg23
I00
sg50
F-2.19142
sbsg2990
g0
(g406
g2
Ntp3003
Rp3004
(dp3005
g21
I00
sg49
I01
sg23
I00
sg50
F0.0
sbsg2991
g0
(g406
g2
Ntp3006
Rp3007
(dp3008
g21
I00
sg49
I01
sg23
I00
sg50
F0.0
sbsg2992
g0
(g406
g2
Ntp3009
Rp3010
(dp3011
g21
I00
sg49
I01
sg23
I00
sg50
F0.0
sbsg2993
g0
(g406
g2
Ntp3012
Rp3013
(dp3014
g21
I00
sg49
I01
sg23
I00
sg50
F0.0
sbsbag0
(g358
g2
Ntp3015
Rp3016
(dp3017
g21
I00
sg49
I01
sg23
I00
sg19
(lp3018
g2987
ag2988
ag2989
ag2990
ag2991
ag2992
ag2993
asg22
Nsg2987
g0
(g406
g2
Ntp3019
Rp3020
(dp3021
g21
I00
sg49
I01
sg23
I00
sg50
F6.0
sbsg2988
g0
(g406
g2
Ntp3022
Rp3023
(dp3024
g21
I00
sg49
I01
sg23
I00
sg50
F15.5
sbsg2989
g0
(g406
g2
Ntp3025
Rp3026
(dp3027
g21
I00
sg49
I01
sg23
I00
sg50
F-3.2
sbsg2990
g0
(g406
g2
Ntp3028
Rp3029
(dp3030
g21
I00
sg49
I01
sg23
I00
sg50
F32.0
sbsg2991
g0
(g406
g2
Ntp3031
Rp3032
(dp3033
g21
I00
sg49
I01
sg23
I00
sg50
F0.0
sbsg2992
g0
(g406
g2
Ntp3034
Rp3035
(dp3036
g21
I00
sg49
I01
sg23
I00
sg50
F0.0
sbsg2993
g0
(g406
g2
Ntp3037
Rp3038
(dp3039
g21
I00
sg49
I01
sg23
I00
sg50
F0.0
sbsbag0
(g358
g2
Ntp3040
Rp3041
(dp3042
g21
I00
sg49
I01
sg23
I00
sg19
(lp3043
g2987
ag2988
ag2989
ag2990
ag2991
ag2992
ag2993
asg22
Nsg2987
g0
(g406
g2
Ntp3044
Rp3045
(dp3046
g21
I00
sg49
I01
sg23
I00
sg50
F6.0
sbsg2988
g0
(g406
g2
Ntp3047
Rp3048
(dp3049
g21
I00
sg49
I01
sg23
I00
sg50
F12.2999
sbsg2989
g0
(g406
g2
Ntp3050
Rp3051
(dp3052
g21
I00
sg49
I01
sg23
I00
sg50
F-2.19142
sbsg2990
g0
(g406
g2
Ntp3053
Rp3054
(dp3055
g21
I00
sg49
I01
sg23
I00
sg50
F0.0
sbsg2991
g0
(g406
g2
Ntp3056
Rp3057
(dp3058
g21
I00
sg49
I01
sg23
I00
sg50
F0.0
sbsg2992
g0
(g406
g2
Ntp3059
Rp3060
(dp3061
g21
I00
sg49
I01
sg23
I00
sg50
F0.0
sbsg2993
g0
(g406
g2
Ntp3062
Rp3063
(dp3064
g21
I00
sg49
I01
sg23
I00
sg50
F0.0
sbsbag0
(g358
g2
Ntp3065
Rp3066
(dp3067
g21
I00
sg49
I01
sg23
I00
sg19
(lp3068
g2987
ag2988
ag2989
ag2990
ag2991
ag2992
ag2993
asg22
Nsg2987
g0
(g406
g2
Ntp3069
Rp3070
(dp3071
g21
I00
sg49
I01
sg23
I00
sg50
F6.0
sbsg2988
g0
(g406
g2
Ntp3072
Rp3073
(dp3074
g21
I00
sg49
I01
sg23
I00
sg50
F12.2999
sbsg2989
g0
(g406
g2
Ntp3075
Rp3076
(dp3077
g21
I00
sg49
I01
sg23
I00
sg50
F-2.19142
sbsg2990
g0
(g406
g2
Ntp3078
Rp3079
(dp3080
g21
I00
sg49
I01
sg23
I00
sg50
F0.0
sbsg2991
g0
(g406
g2
Ntp3081
Rp3082
(dp3083
g21
I00
sg49
I01
sg23
I00
sg50
F0.0
sbsg2992
g0
(g406
g2
Ntp3084
Rp3085
(dp3086
g21
I00
sg49
I01
sg23
I00
sg50
F0.0
sbsg2993
g0
(g406
g2
Ntp3087
Rp3088
(dp3089
g21
I00
sg49
I01
sg23
I00
sg50
F0.0
sbsbatp3090
Rp3091
(dp3092
g21
I00
sg49
I01
sg23
I00
sg760
I1
sbsg24
V/cvmfs/cms.cern.ch/slc7_amd64_gcc11/cms/cmssw-patch/CMSSW_13_0_5_patch1/src/CalibCalorimetry/HcalPlugins/python/HcalTimeSlew_cff.py
p3093
sg26
I3
sg27
g2924
sbsVes_hardcode
p3094
g0
(g2812
g2
Ntp3095
Rp3096
(dp3097
g17
VHcalHardcodeCalibrations
p3098
sg19
(lp3099
g2854
aViLumi
p3100
aVHBRecalibration
p3101
aVHBreCalibCutoff
p3102
aVHBmeanenergies
p3103
aVHERecalibration
p3104
aVHEreCalibCutoff
p3105
aVHEmeanenergies
p3106
aVHFRecalibration
p3107
aVHFRecalParameterBlock
p3108
aVGainWidthsForTrigPrims
p3109
aVuseHBUpgrade
p3110
aVuseHEUpgrade
p3111
aVuseHFUpgrade
p3112
aVuseHOUpgrade
p3113
aVtestHFQIE10
p3114
aVtestHEPlan1
p3115
aVkillHE
p3116
aVuseLayer0Weight
p3117
aVuseIeta18depth1
p3118
aVhb
p3119
aVhe
p3120
aVhf
p3121
aVho
p3122
aVhbUpgrade
p3123
aVheUpgrade
p3124
aVhfUpgrade
p3125
aVSiPMCharacteristics
p3126
asg21
I00
sg22
Nsg2854
g0
(g449
g62
(lp3127
VGainWidths
p3128
atp3129
Rp3130
(dp3131
g21
I00
sg49
I00
sg23
I00
sg760
I1
sbsg23
I00
sg3100
g0
(g406
g2
Ntp3132
Rp3133
(dp3134
g21
I00
sg49
I01
sg23
I00
sg50
F-1.0
sbsg3101
g0
(g71
g2
Ntp3135
Rp3136
(dp3137
g21
I00
sg49
I01
sg23
I00
sg50
I00
sbsg3102
g0
(g406
g2
Ntp3138
Rp3139
(dp3140
g21
I00
sg49
I01
sg23
I00
sg50
F20.0
sbsg3103
g0
(g521
g2
Ntp3141
Rp3142
(dp3143
g21
I00
sg49
I01
sg23
I00
sg50
VCalibCalorimetry/HcalPlugins/data/meanenergiesHB.txt
p3144
sbsg3104
g0
(g71
g2
Ntp3145
Rp3146
(dp3147
g21
I00
sg49
I01
sg23
I00
sg50
I00
sbsg3105
g0
(g406
g2
Ntp3148
Rp3149
(dp3150
g21
I00
sg49
I01
sg23
I00
sg50
F20.0
sbsg3106
g0
(g521
g2
Ntp3151
Rp3152
(dp3153
g21
I00
sg49
I01
sg23
I00
sg50
VCalibCalorimetry/HcalPlugins/data/meanenergiesHE.txt
p3154
sbsg3107
g0
(g71
g2
Ntp3155
Rp3156
(dp3157
g21
I00
sg49
I01
sg23
I00
sg50
I00
sbsg3108
g0
(g358
g2
Ntp3158
Rp3159
(dp3160
g21
I00
sg49
I01
sg23
I00
sg19
(lp3161
VHFdepthOneParameterA
p3162
aVHFdepthOneParameterB
p3163
aVHFdepthTwoParameterA
p3164
aVHFdepthTwoParameterB
p3165
asg22
Nsg3162
g0
(g1723
g62
(lp3166
F0.004123
aF0.00602
aF0.008201
aF0.010489
aF0.013379
aF0.016997
aF0.021464
aF0.027371
aF0.034195
aF0.044807
aF0.058939
aF0.125497
atp3167
Rp3168
(dp3169
g21
I00
sg49
I01
sg23
I00
sbsg3163
g0
(g1723
g62
(lp3170
F-4e-06
aF-2e-06
aF0.0
aF4e-06
aF1.5e-05
aF2.6e-05
aF6.3e-05
aF8.4e-05
aF0.00016
aF0.000107
aF0.000425
aF0.000209
atp3171
Rp3172
(dp3173
g21
I00
sg49
I01
sg23
I00
sbsg3164
g0
(g1723
g62
(lp3174
F0.002861
aF0.004168
aF0.0064
aF0.008388
aF0.011601
aF0.014425
aF0.018633
aF0.023232
aF0.028274
aF0.035447
aF0.051579
aF0.086593
atp3175
Rp3176
(dp3177
g21
I00
sg49
I01
sg23
I00
sbsg3165
g0
(g1723
g62
(lp3178
F-2e-06
aF-0.0
aF-7e-06
aF-6e-06
aF-2e-06
aF1e-06
aF1.9e-05
aF3.1e-05
aF6.7e-05
aF1.2e-05
aF0.000157
aF-3e-06
atp3179
Rp3180
(dp3181
g21
I00
sg49
I01
sg23
I00
sbsg27
g3108
sbsg3109
g0
(g71
g2
Ntp3182
Rp3183
(dp3184
g21
I00
sg49
I01
sg23
I00
sg50
I00
sbsg3110
g0
(g71
g2
Ntp3185
Rp3186
(dp3187
g21
I00
sg49
I01
sg23
I00
sg50
I00
sbsg3111
g0
(g71
g2
Ntp3188
Rp3189
(dp3190
g21
I00
sg49
I01
sg23
I00
sg50
I00
sbsg3112
g0
(g71
g2
Ntp3191
Rp3192
(dp3193
g21
I00
sg49
I01
sg23
I00
sg50
I00
sbsg3113
g0
(g71
g2
Ntp3194
Rp3195
(dp3196
g21
I00
sg49
I01
sg23
I00
sg50
I01
sbsg3114
g0
(g71
g2
Ntp3197
Rp3198
(dp3199
g21
I00
sg49
I01
sg23
I00
sg50
I00
sbsg3115
g0
(g71
g2
Ntp3200
Rp3201
(dp3202
g21
I00
sg49
I01
sg23
I00
sg50
I00
sbsg3116
g0
(g71
g2
Ntp3203
Rp3204
(dp3205
g21
I00
sg49
I01
sg23
I00
sg50
I00
sbsg3117
g0
(g71
g2
Ntp3206
Rp3207
(dp3208
g21
I00
sg49
I01
sg23
I00
sg50
I00
sbsg3118
g0
(g71
g2
Ntp3209
Rp3210
(dp3211
g21
I00
sg49
I01
sg23
I00
sg50
I01
sbsg3119
g0
(g358
g2
Ntp3212
Rp3213
(dp3214
g21
I00
sg49
I01
sg23
I00
sg19
(lp3215
Vpedestal
p3216
aVpedestalWidth
p3217
aVgain
p3218
aVgainWidth
p3219
aVzsThreshold
p3220
aVqieType
p3221
aVqieOffset
p3222
aVqieSlope
p3223
aVmcShape
p3224
aVrecoShape
p3225
aVphotoelectronsToAnalog
p3226
aVdarkCurrent
p3227
aVnoiseCorrelation
p3228
aVdoRadiationDamage
p3229
asg22
Nsg3216
g0
(g406
g2
Ntp3230
Rp3231
(dp3232
g21
I00
sg49
I01
sg23
I00
sg50
F3.285
sbsg3217
g0
(g406
g2
Ntp3233
Rp3234
(dp3235
g21
I00
sg49
I01
sg23
I00
sg50
F0.809
sbsg3218
g0
(g1723
g62
(lp3236
F0.19
atp3237
Rp3238
(dp3239
g21
I00
sg49
I01
sg23
I00
sbsg3219
g0
(g1723
g62
(lp3240
F0.0
atp3241
Rp3242
(dp3243
g21
I00
sg49
I01
sg23
I00
sbsg3220
g0
(g75
g2
Ntp3244
Rp3245
(dp3246
g21
I00
sg49
I01
sg23
I00
sg50
I8
sbsg3221
g0
(g75
g2
Ntp3247
Rp3248
(dp3249
g21
I00
sg49
I01
sg23
I00
sg50
I0
sbsg3222
g0
(g1723
g62
(lp3250
F-0.49
aF1.8
aF7.2
aF37.9
atp3251
Rp3252
(dp3253
g21
I00
sg49
I01
sg23
I00
sbsg3223
g0
(g1723
g62
(lp3254
F0.912
aF0.917
aF0.922
aF0.923
atp3255
Rp3256
(dp3257
g21
I00
sg49
I01
sg23
I00
sbsg3224
g0
(g75
g2
Ntp3258
Rp3259
(dp3260
g21
I00
sg49
I01
sg23
I00
sg50
I125
sbsg3225
g0
(g75
g2
Ntp3261
Rp3262
(dp3263
g21
I00
sg49
I01
sg23
I00
sg50
I105
sbsg3226
g0
(g406
g2
Ntp3264
Rp3265
(dp3266
g21
I00
sg49
I01
sg23
I00
sg50
F0.3305
sbsg3227
g0
(g1723
g62
(lp3267
F0.0
atp3268
Rp3269
(dp3270
g21
I00
sg49
I01
sg23
I00
sbsg3228
g0
(g1723
g62
(lp3271
F0.0
atp3272
Rp3273
(dp3274
g21
I00
sg49
I01
sg23
I00
sbsg3229
g0
(g71
g2
Ntp3275
Rp3276
(dp3277
g21
I00
sg49
I01
sg23
I00
sg50
I00
sbsbsg3120
g0
(g358
g2
Ntp3278
Rp3279
(dp3280
g21
I00
sg49
I01
sg23
I00
sg19
(lp3281
g3216
ag3217
ag3218
ag3219
ag3220
ag3221
ag3222
ag3223
ag3224
ag3225
ag3226
ag3227
ag3228
ag3229
asg22
Nsg3216
g0
(g406
g2
Ntp3282
Rp3283
(dp3284
g21
I00
sg49
I01
sg23
I00
sg50
F3.163
sbsg3217
g0
(g406
g2
Ntp3285
Rp3286
(dp3287
g21
I00
sg49
I01
sg23
I00
sg50
F0.9698
sbsg3218
g0
(g1723
g62
(lp3288
F0.23
atp3289
Rp3290
(dp3291
g21
I00
sg49
I01
sg23
I00
sbsg3219
g0
(g1723
g62
(lp3292
I0
atp3293
Rp3294
(dp3295
g21
I00
sg49
I01
sg23
I00
sbsg3220
g0
(g75
g2
Ntp3296
Rp3297
(dp3298
g21
I00
sg49
I01
sg23
I00
sg50
I9
sbsg3221
g0
(g75
g2
Ntp3299
Rp3300
(dp3301
g21
I00
sg49
I01
sg23
I00
sg50
I0
sbsg3222
g0
(g1723
g62
(lp3302
F-0.38
aF2.0
aF7.6
aF39.6
atp3303
Rp3304
(dp3305
g21
I00
sg49
I01
sg23
I00
sbsg3223
g0
(g1723
g62
(lp3306
F0.912
aF0.916
aF0.92
aF0.922
atp3307
Rp3308
(dp3309
g21
I00
sg49
I01
sg23
I00
sbsg3224
g0
(g75
g2
Ntp3310
Rp3311
(dp3312
g21
I00
sg49
I01
sg23
I00
sg50
I125
sbsg3225
g0
(g75
g2
Ntp3313
Rp3314
(dp3315
g21
I00
sg49
I01
sg23
I00
sg50
I105
sbsg3226
g0
(g406
g2
Ntp3316
Rp3317
(dp3318
g21
I00
sg49
I01
sg23
I00
sg50
F0.3305
sbsg3227
g0
(g1723
g62
(lp3319
F0.0
atp3320
Rp3321
(dp3322
g21
I00
sg49
I01
sg23
I00
sbsg3228
g0
(g1723
g62
(lp3323
F0.0
atp3324
Rp3325
(dp3326
g21
I00
sg49
I01
sg23
I00
sbsg3229
g0
(g71
g2
Ntp3327
Rp3328
(dp3329
g21
I00
sg49
I01
sg23
I00
sg50
I00
sbsbsg3121
g0
(g358
g2
Ntp3330
Rp3331
(dp3332
g21
I00
sg49
I01
sg23
I00
sg19
(lp3333
g3216
ag3217
ag3218
ag3219
ag3220
ag3221
ag3222
ag3223
ag3224
ag3225
ag3226
ag3227
ag3228
ag3229
asg22
Nsg3216
g0
(g406
g2
Ntp3334
Rp3335
(dp3336
g21
I00
sg49
I01
sg23
I00
sg50
F9.354
sbsg3217
g0
(g406
g2
Ntp3337
Rp3338
(dp3339
g21
I00
sg49
I01
sg23
I00
sg50
F2.516
sbsg3218
g0
(g1723
g62
(lp3340
F0.14
aF0.135
atp3341
Rp3342
(dp3343
g21
I00
sg49
I01
sg23
I00
sbsg3219
g0
(g1723
g62
(lp3344
F0.0
aF0.0
atp3345
Rp3346
(dp3347
g21
I00
sg49
I01
sg23
I00
sbsg3220
g0
(g75
g2
Ntp3348
Rp3349
(dp3350
g21
I00
sg49
I01
sg23
I00
sg50
I-9999
sbsg3221
g0
(g75
g2
Ntp3351
Rp3352
(dp3353
g21
I00
sg49
I01
sg23
I00
sg50
I0
sbsg3222
g0
(g1723
g62
(lp3354
F-0.87
aF1.4
aF7.8
aF-29.6
atp3355
Rp3356
(dp3357
g21
I00
sg49
I01
sg23
I00
sbsg3223
g0
(g1723
g62
(lp3358
F0.359
aF0.358
aF0.36
aF0.367
atp3359
Rp3360
(dp3361
g21
I00
sg49
I01
sg23
I00
sbsg3224
g0
(g75
g2
Ntp3362
Rp3363
(dp3364
g21
I00
sg49
I01
sg23
I00
sg50
I301
sbsg3225
g0
(g75
g2
Ntp3365
Rp3366
(dp3367
g21
I00
sg49
I01
sg23
I00
sg50
I301
sbsg3226
g0
(g406
g2
Ntp3368
Rp3369
(dp3370
g21
I00
sg49
I01
sg23
I00
sg50
F0.0
sbsg3227
g0
(g1723
g62
(lp3371
F0.0
atp3372
Rp3373
(dp3374
g21
I00
sg49
I01
sg23
I00
sbsg3228
g0
(g1723
g62
(lp3375
F0.0
atp3376
Rp3377
(dp3378
g21
I00
sg49
I01
sg23
I00
sbsg3229
g0
(g71
g2
Ntp3379
Rp3380
(dp3381
g21
I00
sg49
I01
sg23
I00
sg50
I00
sbsbsg3122
g0
(g358
g2
Ntp3382
Rp3383
(dp3384
g21
I00
sg49
I01
sg23
I00
sg19
(lp3385
g3216
ag3217
ag3218
ag3219
ag3220
ag3221
ag3222
ag3223
ag3224
ag3225
ag3226
ag3227
ag3228
ag3229
asg22
Nsg3216
g0
(g406
g2
Ntp3386
Rp3387
(dp3388
g21
I00
sg49
I01
sg23
I00
sg50
F12.06
sbsg3217
g0
(g406
g2
Ntp3389
Rp3390
(dp3391
g21
I00
sg49
I01
sg23
I00
sg50
F0.6285
sbsg3218
g0
(g1723
g62
(lp3392
F0.006
aF0.0087
atp3393
Rp3394
(dp3395
g21
I00
sg49
I01
sg23
I00
sbsg3219
g0
(g1723
g62
(lp3396
F0.0
aF0.0
atp3397
Rp3398
(dp3399
g21
I00
sg49
I01
sg23
I00
sbsg3220
g0
(g75
g2
Ntp3400
Rp3401
(dp3402
g21
I00
sg49
I01
sg23
I00
sg50
I24
sbsg3221
g0
(g75
g2
Ntp3403
Rp3404
(dp3405
g21
I00
sg49
I01
sg23
I00
sg50
I0
sbsg3222
g0
(g1723
g62
(lp3406
F-0.44
aF1.4
aF7.1
aF38.5
atp3407
Rp3408
(dp3409
g21
I00
sg49
I01
sg23
I00
sbsg3223
g0
(g1723
g62
(lp3410
F0.907
aF0.915
aF0.92
aF0.921
atp3411
Rp3412
(dp3413
g21
I00
sg49
I01
sg23
I00
sbsg3224
g0
(g75
g2
Ntp3414
Rp3415
(dp3416
g21
I00
sg49
I01
sg23
I00
sg50
I201
sbsg3225
g0
(g75
g2
Ntp3417
Rp3418
(dp3419
g21
I00
sg49
I01
sg23
I00
sg50
I201
sbsg3226
g0
(g406
g2
Ntp3420
Rp3421
(dp3422
g21
I00
sg49
I01
sg23
I00
sg50
F4.0
sbsg3227
g0
(g1723
g62
(lp3423
F0.0
atp3424
Rp3425
(dp3426
g21
I00
sg49
I01
sg23
I00
sbsg3228
g0
(g1723
g62
(lp3427
F0.0
atp3428
Rp3429
(dp3430
g21
I00
sg49
I01
sg23
I00
sbsg3229
g0
(g71
g2
Ntp3431
Rp3432
(dp3433
g21
I00
sg49
I01
sg23
I00
sg50
I00
sbsbsg3123
g0
(g358
g2
Ntp3434
Rp3435
(dp3436
g21
I00
sg49
I01
sg23
I00
sg19
(lp3437
g3216
ag3217
ag3218
ag3219
ag3220
ag3221
ag3222
ag3223
ag3224
ag3225
ag3226
ag3227
ag3228
ag3229
aVradiationDamage
p3438
asg22
Nsg3216
g0
(g406
g2
Ntp3439
Rp3440
(dp3441
g21
I00
sg49
I01
sg23
I00
sg50
F17.3
sbsg3217
g0
(g406
g2
Ntp3442
Rp3443
(dp3444
g21
I00
sg49
I01
sg23
I00
sg50
F1.5
sbsg3218
g0
(g1723
g62
(lp3445
F0.0006252
atp3446
Rp3447
(dp3448
g21
I00
sg49
I01
sg23
I00
sbsg3219
g0
(g1723
g62
(lp3449
I0
atp3450
Rp3451
(dp3452
g21
I00
sg49
I01
sg23
I00
sbsg3220
g0
(g75
g2
Ntp3453
Rp3454
(dp3455
g21
I00
sg49
I01
sg23
I00
sg50
I16
sbsg3221
g0
(g75
g2
Ntp3456
Rp3457
(dp3458
g21
I00
sg49
I01
sg23
I00
sg50
I2
sbsg3222
g0
(g1723
g62
(lp3459
F0.0
aF0.0
aF0.0
aF0.0
atp3460
Rp3461
(dp3462
g21
I00
sg49
I01
sg23
I00
sbsg3223
g0
(g1723
g62
(lp3463
F0.05376
aF0.05376
aF0.05376
aF0.05376
atp3464
Rp3465
(dp3466
g21
I00
sg49
I01
sg23
I00
sbsg3224
g0
(g75
g2
Ntp3467
Rp3468
(dp3469
g21
I00
sg49
I01
sg23
I00
sg50
I206
sbsg3225
g0
(g75
g2
Ntp3470
Rp3471
(dp3472
g21
I00
sg49
I01
sg23
I00
sg50
I208
sbsg3226
g0
(g406
g2
Ntp3473
Rp3474
(dp3475
g21
I00
sg49
I01
sg23
I00
sg50
F40.0
sbsg3227
g0
(g1723
g62
(lp3476
F0.01
aF0.015
atp3477
Rp3478
(dp3479
g21
I00
sg49
I01
sg23
I00
sbsg3228
g0
(g1723
g62
(lp3480
F0.26
aF0.254
atp3481
Rp3482
(dp3483
g21
I00
sg49
I01
sg23
I00
sbsg3229
g0
(g71
g2
Ntp3484
Rp3485
(dp3486
g21
I00
sg49
I01
sg23
I00
sg50
I01
sbsg3438
g0
(g358
g2
Ntp3487
Rp3488
(dp3489
g21
I00
sg49
I01
sg23
I00
sg19
(lp3490
VtemperatureBase
p3491
aVtemperatureNew
p3492
aVintlumiOffset
p3493
aVdepVsTemp
p3494
aVintlumiToNeutrons
p3495
aVdepVsNeutrons
p3496
asg22
Nsg3491
g0
(g406
g2
Ntp3497
Rp3498
(dp3499
g21
I00
sg49
I01
sg23
I00
sg50
I20
sbsg3492
g0
(g406
g2
Ntp3500
Rp3501
(dp3502
g21
I00
sg49
I01
sg23
I00
sg50
I-5
sbsg3493
g0
(g406
g2
Ntp3503
Rp3504
(dp3505
g21
I00
sg49
I01
sg23
I00
sg50
I150
sbsg3494
g0
(g406
g2
Ntp3506
Rp3507
(dp3508
g21
I00
sg49
I01
sg23
I00
sg50
F0.0631
sbsg3495
g0
(g406
g2
Ntp3509
Rp3510
(dp3511
g21
I00
sg49
I01
sg23
I00
sg50
F367000000.0
sbsg3496
g0
(g1723
g62
(lp3512
F5.543e-10
aF8.012e-10
atp3513
Rp3514
(dp3515
g21
I00
sg49
I01
sg23
I00
sbsbsbsg3124
g0
(g358
g2
Ntp3516
Rp3517
(dp3518
g21
I00
sg49
I01
sg23
I00
sg19
(lp3519
g3216
ag3217
ag3218
ag3219
ag3220
ag3221
ag3222
ag3223
ag3224
ag3225
ag3226
ag3227
ag3228
ag3229
ag3438
asg22
Nsg3216
g0
(g406
g2
Ntp3520
Rp3521
(dp3522
g21
I00
sg49
I01
sg23
I00
sg50
F17.3
sbsg3217
g0
(g406
g2
Ntp3523
Rp3524
(dp3525
g21
I00
sg49
I01
sg23
I00
sg50
F1.5
sbsg3218
g0
(g1723
g62
(lp3526
F0.0006252
atp3527
Rp3528
(dp3529
g21
I00
sg49
I01
sg23
I00
sbsg3219
g0
(g1723
g62
(lp3530
I0
atp3531
Rp3532
(dp3533
g21
I00
sg49
I01
sg23
I00
sbsg3220
g0
(g75
g2
Ntp3534
Rp3535
(dp3536
g21
I00
sg49
I01
sg23
I00
sg50
I16
sbsg3221
g0
(g75
g2
Ntp3537
Rp3538
(dp3539
g21
I00
sg49
I01
sg23
I00
sg50
I2
sbsg3222
g0
(g1723
g62
(lp3540
F0.0
aF0.0
aF0.0
aF0.0
atp3541
Rp3542
(dp3543
g21
I00
sg49
I01
sg23
I00
sbsg3223
g0
(g1723
g62
(lp3544
F0.05376
aF0.05376
aF0.05376
aF0.05376
atp3545
Rp3546
(dp3547
g21
I00
sg49
I01
sg23
I00
sbsg3224
g0
(g75
g2
Ntp3548
Rp3549
(dp3550
g21
I00
sg49
I01
sg23
I00
sg50
I206
sbsg3225
g0
(g75
g2
Ntp3551
Rp3552
(dp3553
g21
I00
sg49
I01
sg23
I00
sg50
I208
sbsg3226
g0
(g406
g2
Ntp3554
Rp3555
(dp3556
g21
I00
sg49
I01
sg23
I00
sg50
F40.0
sbsg3227
g0
(g1723
g62
(lp3557
F0.01
aF0.015
atp3558
Rp3559
(dp3560
g21
I00
sg49
I01
sg23
I00
sbsg3228
g0
(g1723
g62
(lp3561
F0.26
aF0.254
atp3562
Rp3563
(dp3564
g21
I00
sg49
I01
sg23
I00
sbsg3229
g0
(g71
g2
Ntp3565
Rp3566
(dp3567
g21
I00
sg49
I01
sg23
I00
sg50
I01
sbsg3438
g0
(g358
g2
Ntp3568
Rp3569
(dp3570
g21
I00
sg49
I01
sg23
I00
sg19
(lp3571
g3491
ag3492
ag3493
ag3494
ag3495
ag3496
asg22
Nsg3491
g0
(g406
g2
Ntp3572
Rp3573
(dp3574
g21
I00
sg49
I01
sg23
I00
sg50
I20
sbsg3492
g0
(g406
g2
Ntp3575
Rp3576
(dp3577
g21
I00
sg49
I01
sg23
I00
sg50
I5
sbsg3493
g0
(g406
g2
Ntp3578
Rp3579
(dp3580
g21
I00
sg49
I01
sg23
I00
sg50
I75
sbsg3494
g0
(g406
g2
Ntp3581
Rp3582
(dp3583
g21
I00
sg49
I01
sg23
I00
sg50
F0.0631
sbsg3495
g0
(g406
g2
Ntp3584
Rp3585
(dp3586
g21
I00
sg49
I01
sg23
I00
sg50
F29200000.0
sbsg3496
g0
(g1723
g62
(lp3587
F5.543e-10
aF8.012e-10
atp3588
Rp3589
(dp3590
g21
I00
sg49
I01
sg23
I00
sbsbsbsg3125
g0
(g358
g2
Ntp3591
Rp3592
(dp3593
g21
I00
sg49
I01
sg23
I00
sg19
(lp3594
g3216
ag3217
ag3218
ag3219
ag3220
ag3221
ag3222
ag3223
ag3224
ag3225
ag3226
ag3227
ag3228
ag3229
asg22
Nsg3216
g0
(g406
g2
Ntp3595
Rp3596
(dp3597
g21
I00
sg49
I01
sg23
I00
sg50
F13.33
sbsg3217
g0
(g406
g2
Ntp3598
Rp3599
(dp3600
g21
I00
sg49
I01
sg23
I00
sg50
F3.33
sbsg3218
g0
(g1723
g62
(lp3601
F0.14
aF0.135
atp3602
Rp3603
(dp3604
g21
I00
sg49
I01
sg23
I00
sbsg3219
g0
(g1723
g62
(lp3605
F0.0
aF0.0
atp3606
Rp3607
(dp3608
g21
I00
sg49
I01
sg23
I00
sbsg3220
g0
(g75
g2
Ntp3609
Rp3610
(dp3611
g21
I00
sg49
I01
sg23
I00
sg50
I-9999
sbsg3221
g0
(g75
g2
Ntp3612
Rp3613
(dp3614
g21
I00
sg49
I01
sg23
I00
sg50
I1
sbsg3222
g0
(g1723
g62
(lp3615
F0.0697
aF-0.7405
aF12.38
aF-671.9
atp3616
Rp3617
(dp3618
g21
I00
sg49
I01
sg23
I00
sbsg3223
g0
(g1723
g62
(lp3619
F0.297
aF0.298
aF0.298
aF0.313
atp3620
Rp3621
(dp3622
g21
I00
sg49
I01
sg23
I00
sbsg3224
g0
(g75
g2
Ntp3623
Rp3624
(dp3625
g21
I00
sg49
I01
sg23
I00
sg50
I301
sbsg3225
g0
(g75
g2
Ntp3626
Rp3627
(dp3628
g21
I00
sg49
I01
sg23
I00
sg50
I301
sbsg3226
g0
(g406
g2
Ntp3629
Rp3630
(dp3631
g21
I00
sg49
I01
sg23
I00
sg50
F0.0
sbsg3227
g0
(g1723
g62
(lp3632
F0.0
atp3633
Rp3634
(dp3635
g21
I00
sg49
I01
sg23
I00
sbsg3228
g0
(g1723
g62
(lp3636
F0.0
atp3637
Rp3638
(dp3639
g21
I00
sg49
I01
sg23
I00
sbsg3229
g0
(g71
g2
Ntp3640
Rp3641
(dp3642
g21
I00
sg49
I01
sg23
I00
sg50
I00
sbsbsg3126
g0
(g2897
g62
(lp3643
g0
(g358
g2
Ntp3644
Rp3645
(dp3646
g21
I00
sg49
I01
sg23
I00
sg19
(lp3647
Vpixels
p3648
aVcrosstalk
p3649
aVnonlin1
p3650
aVnonlin2
p3651
aVnonlin3
p3652
asg22
Nsg3648
g0
(g75
g2
Ntp3653
Rp3654
(dp3655
g21
I00
sg49
I01
sg23
I00
sg50
I36000
sbsg3649
g0
(g406
g2
Ntp3656
Rp3657
(dp3658
g21
I00
sg49
I01
sg23
I00
sg50
F0.0
sbsg3650
g0
(g406
g2
Ntp3659
Rp3660
(dp3661
g21
I00
sg49
I01
sg23
I00
sg50
F1.0
sbsg3651
g0
(g406
g2
Ntp3662
Rp3663
(dp3664
g21
I00
sg49
I01
sg23
I00
sg50
F0.0
sbsg3652
g0
(g406
g2
Ntp3665
Rp3666
(dp3667
g21
I00
sg49
I01
sg23
I00
sg50
F0.0
sbsbag0
(g358
g2
Ntp3668
Rp3669
(dp3670
g21
I00
sg49
I01
sg23
I00
sg19
(lp3671
g3648
ag3649
ag3650
ag3651
ag3652
asg22
Nsg3648
g0
(g75
g2
Ntp3672
Rp3673
(dp3674
g21
I00
sg49
I01
sg23
I00
sg50
I2500
sbsg3649
g0
(g406
g2
Ntp3675
Rp3676
(dp3677
g21
I00
sg49
I01
sg23
I00
sg50
F0.0
sbsg3650
g0
(g406
g2
Ntp3678
Rp3679
(dp3680
g21
I00
sg49
I01
sg23
I00
sg50
F1.0
sbsg3651
g0
(g406
g2
Ntp3681
Rp3682
(dp3683
g21
I00
sg49
I01
sg23
I00
sg50
F0.0
sbsg3652
g0
(g406
g2
Ntp3684
Rp3685
(dp3686
g21
I00
sg49
I01
sg23
I00
sg50
F0.0
sbsbag0
(g358
g2
Ntp3687
Rp3688
(dp3689
g21
I00
sg49
I01
sg23
I00
sg19
(lp3690
g3648
ag3649
ag3650
ag3651
ag3652
asg22
Nsg3648
g0
(g75
g2
Ntp3691
Rp3692
(dp3693
g21
I00
sg49
I01
sg23
I00
sg50
I27370
sbsg3649
g0
(g406
g2
Ntp3694
Rp3695
(dp3696
g21
I00
sg49
I01
sg23
I00
sg50
F0.17
sbsg3650
g0
(g406
g2
Ntp3697
Rp3698
(dp3699
g21
I00
sg49
I01
sg23
I00
sg50
F1.00985
sbsg3651
g0
(g406
g2
Ntp3700
Rp3701
(dp3702
g21
I00
sg49
I01
sg23
I00
sg50
F7.84089e-06
sbsg3652
g0
(g406
g2
Ntp3703
Rp3704
(dp3705
g21
I00
sg49
I01
sg23
I00
sg50
F2.86282e-10
sbsbag0
(g358
g2
Ntp3706
Rp3707
(dp3708
g21
I00
sg49
I01
sg23
I00
sg19
(lp3709
g3648
ag3649
ag3650
ag3651
ag3652
asg22
Nsg3648
g0
(g75
g2
Ntp3710
Rp3711
(dp3712
g21
I00
sg49
I01
sg23
I00
sg50
I38018
sbsg3649
g0
(g406
g2
Ntp3713
Rp3714
(dp3715
g21
I00
sg49
I01
sg23
I00
sg50
F0.196
sbsg3650
g0
(g406
g2
Ntp3716
Rp3717
(dp3718
g21
I00
sg49
I01
sg23
I00
sg50
F1.00546
sbsg3651
g0
(g406
g2
Ntp3719
Rp3720
(dp3721
g21
I00
sg49
I01
sg23
I00
sg50
F6.40239e-06
sbsg3652
g0
(g406
g2
Ntp3722
Rp3723
(dp3724
g21
I00
sg49
I01
sg23
I00
sg50
F1.27011e-10
sbsbag0
(g358
g2
Ntp3725
Rp3726
(dp3727
g21
I00
sg49
I01
sg23
I00
sg19
(lp3728
g3648
ag3649
ag3650
ag3651
ag3652
asg22
Nsg3648
g0
(g75
g2
Ntp3729
Rp3730
(dp3731
g21
I00
sg49
I01
sg23
I00
sg50
I27370
sbsg3649
g0
(g406
g2
Ntp3732
Rp3733
(dp3734
g21
I00
sg49
I01
sg23
I00
sg50
F0.17
sbsg3650
g0
(g406
g2
Ntp3735
Rp3736
(dp3737
g21
I00
sg49
I01
sg23
I00
sg50
F1.00985
sbsg3651
g0
(g406
g2
Ntp3738
Rp3739
(dp3740
g21
I00
sg49
I01
sg23
I00
sg50
F7.84089e-06
sbsg3652
g0
(g406
g2
Ntp3741
Rp3742
(dp3743
g21
I00
sg49
I01
sg23
I00
sg50
F2.86282e-10
sbsbag0
(g358
g2
Ntp3744
Rp3745
(dp3746
g21
I00
sg49
I01
sg23
I00
sg19
(lp3747
g3648
ag3649
ag3650
ag3651
ag3652
asg22
Nsg3648
g0
(g75
g2
Ntp3748
Rp3749
(dp3750
g21
I00
sg49
I01
sg23
I00
sg50
I38018
sbsg3649
g0
(g406
g2
Ntp3751
Rp3752
(dp3753
g21
I00
sg49
I01
sg23
I00
sg50
F0.196
sbsg3650
g0
(g406
g2
Ntp3754
Rp3755
(dp3756
g21
I00
sg49
I01
sg23
I00
sg50
F1.00546
sbsg3651
g0
(g406
g2
Ntp3757
Rp3758
(dp3759
g21
I00
sg49
I01
sg23
I00
sg50
F6.40239e-06
sbsg3652
g0
(g406
g2
Ntp3760
Rp3761
(dp3762
g21
I00
sg49
I01
sg23
I00
sg50
F1.27011e-10
sbsbag0
(g358
g2
Ntp3763
Rp3764
(dp3765
g21
I00
sg49
I01
sg23
I00
sg19
(lp3766
g3648
ag3649
ag3650
ag3651
ag3652
asg22
Nsg3648
g0
(g75
g2
Ntp3767
Rp3768
(dp3769
g21
I00
sg49
I01
sg23
I00
sg50
I0
sbsg3649
g0
(g406
g2
Ntp3770
Rp3771
(dp3772
g21
I00
sg49
I01
sg23
I00
sg50
F0.0
sbsg3650
g0
(g406
g2
Ntp3773
Rp3774
(dp3775
g21
I00
sg49
I01
sg23
I00
sg50
F1.0
sbsg3651
g0
(g406
g2
Ntp3776
Rp3777
(dp3778
g21
I00
sg49
I01
sg23
I00
sg50
F0.0
sbsg3652
g0
(g406
g2
Ntp3779
Rp3780
(dp3781
g21
I00
sg49
I01
sg23
I00
sg50
F0.0
sbsbatp3782
Rp3783
(dp3784
g21
I00
sg49
I01
sg23
I00
sg760
I1
sbsg24
V/cvmfs/cms.cern.ch/slc7_amd64_gcc11/cms/cmssw-patch/CMSSW_13_0_5_patch1/src/CalibCalorimetry/HcalPlugins/python/Hcal_Conditions_forGlobalTag_cff.py
p3785
sg26
I16
sg27
g3094
sbsVtotemDAQMappingESSourceXML_TimingDiamond
p3786
g0
(g2812
g2
Ntp3787
Rp3788
(dp3789
g17
VTotemDAQMappingESSourceXML
p3790
sg19
(lp3791
g363
ag342
aVsampicSubDetId
p3792
aVconfiguration
p3793
asg21
I00
sg22
Nsg363
g0
(g67
g2
Ntp3794
Rp3795
(dp3796
g21
I00
sg49
I00
sg23
I00
sg50
I0
sbsg23
I00
sg342
g0
(g45
g2
Ntp3797
Rp3798
(dp3799
g21
I00
sg49
I00
sg23
I00
sg50
g352
sbsg3792
g0
(g67
g2
Ntp3800
Rp3801
(dp3802
g21
I00
sg49
I01
sg23
I00
sg50
I6
sbsg3793
g0
(g2897
g62
(lp3803
g0
(g358
g2
Ntp3804
Rp3805
(dp3806
g21
I00
sg49
I01
sg23
I00
sg19
(lp3807
VvalidityRange
p3808
aVmappingFileNames
p3809
aVmaskFileNames
p3810
asg22
Nsg3808
g0
(cFWCore.ParameterSet.Types
EventRange
p3811
g2
Ntp3812
Rp3813
(dp3814
g21
I00
sg49
I01
sg23
I00
sV_EventRange__start
p3815
I1
sV_EventRange__startLumi
p3816
I0
sV_EventRange__startSub
p3817
I1
sV_EventRange__end
p3818
I283819
sV_EventRange__endLumi
p3819
I0
sV_EventRange__endSub
p3820
I0
sbsg3809
g0
(g449
g62
(lp3821
tp3822
Rp3823
(dp3824
g21
I00
sg49
I01
sg23
I00
sg760
I1
sbsg3810
g0
(g449
g62
(lp3825
tp3826
Rp3827
(dp3828
g21
I00
sg49
I01
sg23
I00
sg760
I1
sbsbag0
(g358
g2
Ntp3829
Rp3830
(dp3831
g21
I00
sg49
I01
sg23
I00
sg19
(lp3832
g3808
ag3809
ag3810
asg22
Nsg3808
g0
(g3811
g2
Ntp3833
Rp3834
(dp3835
g21
I00
sg49
I01
sg23
I00
sg3815
I283820
sg3816
I0
sg3817
I1
sg3818
I292520
sg3819
I0
sg3820
I0
sbsg3809
g0
(g449
g62
(lp3836
VCondFormats/PPSObjects/xml/mapping_timing_diamond.xml
p3837
atp3838
Rp3839
(dp3840
g21
I00
sg49
I01
sg23
I00
sg760
I1
sbsg3810
g0
(g449
g62
(lp3841
tp3842
Rp3843
(dp3844
g21
I00
sg49
I01
sg23
I00
sg760
I1
sbsbag0
(g358
g2
Ntp3845
Rp3846
(dp3847
g21
I00
sg49
I01
sg23
I00
sg19
(lp3848
g3808
ag3809
ag3810
asg22
Nsg3808
g0
(g3811
g2
Ntp3849
Rp3850
(dp3851
g21
I00
sg49
I01
sg23
I00
sg3815
I292521
sg3816
I0
sg3817
I1
sg3818
I310000
sg3819
I0
sg3820
I0
sbsg3809
g0
(g449
g62
(lp3852
VCondFormats/PPSObjects/xml/mapping_timing_diamond_2017.xml
p3853
atp3854
Rp3855
(dp3856
g21
I00
sg49
I01
sg23
I00
sg760
I1
sbsg3810
g0
(g449
g62
(lp3857
tp3858
Rp3859
(dp3860
g21
I00
sg49
I01
sg23
I00
sg760
I1
sbsbag0
(g358
g2
Ntp3861
Rp3862
(dp3863
g21
I00
sg49
I01
sg23
I00
sg19
(lp3864
g3808
ag3809
ag3810
asg22
Nsg3808
g0
(g3811
g2
Ntp3865
Rp3866
(dp3867
g21
I00
sg49
I01
sg23
I00
sg3815
I310001
sg3816
I0
sg3817
I1
sg3818
I339999
sg3819
I0
sg3820
I0
sbsg3809
g0
(g449
g62
(lp3868
VCondFormats/PPSObjects/xml/mapping_timing_diamond_2018.xml
p3869
atp3870
Rp3871
(dp3872
g21
I00
sg49
I01
sg23
I00
sg760
I1
sbsg3810
g0
(g449
g62
(lp3873
tp3874
Rp3875
(dp3876
g21
I00
sg49
I01
sg23
I00
sg760
I1
sbsbag0
(g358
g2
Ntp3877
Rp3878
(dp3879
g21
I00
sg49
I01
sg23
I00
sg19
(lp3880
g3808
ag3809
ag3810
asg22
Nsg3808
g0
(g3811
g2
Ntp3881
Rp3882
(dp3883
g21
I00
sg49
I01
sg23
I00
sg3815
I340000
sg3816
I0
sg3817
I1
sg3818
I362919
sg3819
I0
sg3820
I0
sbsg3809
g0
(g449
g62
(lp3884
VCondFormats/PPSObjects/xml/mapping_timing_diamond_2022.xml
p3885
atp3886
Rp3887
(dp3888
g21
I00
sg49
I01
sg23
I00
sg760
I1
sbsg3810
g0
(g449
g62
(lp3889
tp3890
Rp3891
(dp3892
g21
I00
sg49
I01
sg23
I00
sg760
I1
sbsbag0
(g358
g2
Ntp3893
Rp3894
(dp3895
g21
I00
sg49
I01
sg23
I00
sg19
(lp3896
g3808
ag3809
ag3810
asg22
Nsg3808
g0
(g3811
g2
Ntp3897
Rp3898
(dp3899
g21
I00
sg49
I01
sg23
I00
sg3815
I362920
sg3816
I0
sg3817
I1
sg3818
I999999999
sg3819
I0
sg3820
I0
sbsg3809
g0
(g449
g62
(lp3900
VCondFormats/PPSObjects/xml/mapping_timing_diamond_2023.xml
p3901
atp3902
Rp3903
(dp3904
g21
I00
sg49
I01
sg23
I00
sg760
I1
sbsg3810
g0
(g449
g62
(lp3905
tp3906
Rp3907
(dp3908
g21
I00
sg49
I01
sg23
I00
sg760
I1
sbsbatp3909
Rp3910
(dp3911
g21
I00
sg49
I01
sg23
I00
sg760
I1
sbsg24
V/cvmfs/cms.cern.ch/slc7_amd64_gcc11/cms/cmssw-patch/CMSSW_13_0_5_patch1/src/EventFilter/CTPPSRawToDigi/python/ctppsRawToDigi_cff.py
p3912
sg26
I59
sg27
g3786
sbsVtotemDAQMappingESSourceXML_TotemT2
p3913
g0
(g2812
g2
Ntp3914
Rp3915
(dp3916
g17
g3790
sg19
(lp3917
g363
ag342
ag3793
ag3792
asg21
I00
sg22
Nsg363
g0
(g67
g2
Ntp3918
Rp3919
(dp3920
g21
I00
sg49
I00
sg23
I00
sg50
I0
sbsg23
I00
sg342
g0
(g45
g2
Ntp3921
Rp3922
(dp3923
g21
I00
sg49
I00
sg23
I01
sg50
g1442
sbsg3793
g0
(g2897
g62
(lp3924
g0
(g358
g2
Ntp3925
Rp3926
(dp3927
g21
I00
sg49
I01
sg23
I00
sg19
(lp3928
g3808
ag3809
ag3810
asg22
Nsg3808
g0
(g3811
g2
Ntp3929
Rp3930
(dp3931
g21
I00
sg49
I01
sg23
I00
sg3815
I1
sg3816
I0
sg3817
I1
sg3818
I999999999
sg3819
I0
sg3820
I0
sbsg3809
g0
(g449
g62
(lp3932
VCondFormats/PPSObjects/xml/mapping_totem_nt2_2021.xml
p3933
atp3934
Rp3935
(dp3936
g21
I00
sg49
I01
sg23
I00
sg760
I1
sbsg3810
g0
(g449
g62
(lp3937
tp3938
Rp3939
(dp3940
g21
I00
sg49
I01
sg23
I00
sg760
I1
sbsbatp3941
Rp3942
(dp3943
g21
I00
sg49
I01
sg23
I00
sg760
I1
sbsg3792
g0
(g67
g2
Ntp3944
Rp3945
(dp3946
g21
I00
sg49
I01
sg23
I00
sg50
I6
sbsg24
V/cvmfs/cms.cern.ch/slc7_amd64_gcc11/cms/cmssw-patch/CMSSW_13_0_5_patch1/src/CalibPPS/ESProducers/python/totemT2DAQMapping_cff.py
p3947
sg26
I5
sg27
g3913
sbsVtotemDAQMappingESSourceXML_TotemTiming
p3948
g0
(g2812
g2
Ntp3949
Rp3950
(dp3951
g17
g3790
sg19
(lp3952
g363
ag342
ag3792
ag3793
asg21
I00
sg22
Nsg363
g0
(g67
g2
Ntp3953
Rp3954
(dp3955
g21
I00
sg49
I00
sg23
I00
sg50
I0
sbsg23
I00
sg342
g0
(g45
g2
Ntp3956
Rp3957
(dp3958
g21
I00
sg49
I00
sg23
I00
sg50
g1506
sbsg3792
g0
(g67
g2
Ntp3959
Rp3960
(dp3961
g21
I00
sg49
I01
sg23
I00
sg50
I5
sbsg3793
g0
(g2897
g62
(lp3962
g0
(g358
g2
Ntp3963
Rp3964
(dp3965
g21
I00
sg49
I01
sg23
I00
sg19
(lp3966
g3808
ag3809
ag3810
asg22
Nsg3808
g0
(g3811
g2
Ntp3967
Rp3968
(dp3969
g21
I00
sg49
I01
sg23
I00
sg3815
I1
sg3816
I0
sg3817
I1
sg3818
I310000
sg3819
I0
sg3820
I0
sbsg3809
g0
(g449
g62
(lp3970
tp3971
Rp3972
(dp3973
g21
I00
sg49
I01
sg23
I00
sg760
I1
sbsg3810
g0
(g449
g62
(lp3974
tp3975
Rp3976
(dp3977
g21
I00
sg49
I01
sg23
I00
sg760
I1
sbsbag0
(g358
g2
Ntp3978
Rp3979
(dp3980
g21
I00
sg49
I01
sg23
I00
sg19
(lp3981
g3808
ag3809
ag3810
asg22
Nsg3808
g0
(g3811
g2
Ntp3982
Rp3983
(dp3984
g21
I00
sg49
I01
sg23
I00
sg3815
I310001
sg3816
I0
sg3817
I1
sg3818
I339999
sg3819
I0
sg3820
I0
sbsg3809
g0
(g449
g62
(lp3985
VCondFormats/PPSObjects/xml/mapping_totem_timing_2018.xml
p3986
atp3987
Rp3988
(dp3989
g21
I00
sg49
I01
sg23
I00
sg760
I1
sbsg3810
g0
(g449
g62
(lp3990
tp3991
Rp3992
(dp3993
g21
I00
sg49
I01
sg23
I00
sg760
I1
sbsbag0
(g358
g2
Ntp3994
Rp3995
(dp3996
g21
I00
sg49
I01
sg23
I00
sg19
(lp3997
g3808
ag3809
ag3810
asg22
Nsg3808
g0
(g3811
g2
Ntp3998
Rp3999
(dp4000
g21
I00
sg49
I01
sg23
I00
sg3815
I340000
sg3816
I0
sg3817
I1
sg3818
I999999999
sg3819
I0
sg3820
I0
sbsg3809
g0
(g449
g62
(lp4001
VCondFormats/PPSObjects/xml/mapping_totem_timing_2022.xml
p4002
atp4003
Rp4004
(dp4005
g21
I00
sg49
I01
sg23
I00
sg760
I1
sbsg3810
g0
(g449
g62
(lp4006
tp4007
Rp4008
(dp4009
g21
I00
sg49
I01
sg23
I00
sg760
I1
sbsbatp4010
Rp4011
(dp4012
g21
I00
sg49
I01
sg23
I00
sg760
I1
sbsg24
g3912
sg26
I108
sg27
g3948
sbsVtotemDAQMappingESSourceXML_TrackingStrip
p4013
g0
(g2812
g2
Ntp4014
Rp4015
(dp4016
g17
g3790
sg19
(lp4017
g363
ag342
ag3792
ag3793
asg21
I00
sg22
Nsg363
g0
(g67
g2
Ntp4018
Rp4019
(dp4020
g21
I00
sg49
I00
sg23
I00
sg50
I0
sbsg23
I00
sg342
g0
(g45
g2
Ntp4021
Rp4022
(dp4023
g21
I00
sg49
I00
sg23
I00
sg50
g1378
sbsg3792
g0
(g67
g2
Ntp4024
Rp4025
(dp4026
g21
I00
sg49
I01
sg23
I00
sg50
I6
sbsg3793
g0
(g2897
g62
(lp4027
g0
(g358
g2
Ntp4028
Rp4029
(dp4030
g21
I00
sg49
I01
sg23
I00
sg19
(lp4031
g3808
ag3809
ag3810
asg22
Nsg3808
g0
(g3811
g2
Ntp4032
Rp4033
(dp4034
g21
I00
sg49
I01
sg23
I00
sg3815
I1
sg3816
I0
sg3817
I1
sg3818
I280385
sg3819
I0
sg3820
I0
sbsg3809
g0
(g449
g62
(lp4035
VCondFormats/PPSObjects/xml/mapping_tracking_strip_2016_to_fill_5288.xml
p4036
atp4037
Rp4038
(dp4039
g21
I00
sg49
I01
sg23
I00
sg760
I1
sbsg3810
g0
(g449
g62
(lp4040
tp4041
Rp4042
(dp4043
g21
I00
sg49
I01
sg23
I00
sg760
I1
sbsbag0
(g358
g2
Ntp4044
Rp4045
(dp4046
g21
I00
sg49
I01
sg23
I00
sg19
(lp4047
g3808
ag3809
ag3810
asg22
Nsg3808
g0
(g3811
g2
Ntp4048
Rp4049
(dp4050
g21
I00
sg49
I01
sg23
I00
sg3815
I280386
sg3816
I0
sg3817
I1
sg3818
I281600
sg3819
I0
sg3820
I0
sbsg3809
g0
(g449
g62
(lp4051
tp4052
Rp4053
(dp4054
g21
I00
sg49
I01
sg23
I00
sg760
I1
sbsg3810
g0
(g449
g62
(lp4055
tp4056
Rp4057
(dp4058
g21
I00
sg49
I01
sg23
I00
sg760
I1
sbsbag0
(g358
g2
Ntp4059
Rp4060
(dp4061
g21
I00
sg49
I01
sg23
I00
sg19
(lp4062
g3808
ag3809
ag3810
asg22
Nsg3808
g0
(g3811
g2
Ntp4063
Rp4064
(dp4065
g21
I00
sg49
I01
sg23
I00
sg3815
I281601
sg3816
I0
sg3817
I1
sg3818
I290872
sg3819
I0
sg3820
I0
sbsg3809
g0
(g449
g62
(lp4066
VCondFormats/PPSObjects/xml/mapping_tracking_strip_2016_from_fill_5330.xml
p4067
atp4068
Rp4069
(dp4070
g21
I00
sg49
I01
sg23
I00
sg760
I1
sbsg3810
g0
(g449
g62
(lp4071
tp4072
Rp4073
(dp4074
g21
I00
sg49
I01
sg23
I00
sg760
I1
sbsbag0
(g358
g2
Ntp4075
Rp4076
(dp4077
g21
I00
sg49
I01
sg23
I00
sg19
(lp4078
g3808
ag3809
ag3810
asg22
Nsg3808
g0
(g3811
g2
Ntp4079
Rp4080
(dp4081
g21
I00
sg49
I01
sg23
I00
sg3815
I290873
sg3816
I0
sg3817
I1
sg3818
I311625
sg3819
I0
sg3820
I0
sbsg3809
g0
(g449
g62
(lp4082
VCondFormats/PPSObjects/xml/mapping_tracking_strip_2017.xml
p4083
atp4084
Rp4085
(dp4086
g21
I00
sg49
I01
sg23
I00
sg760
I1
sbsg3810
g0
(g449
g62
(lp4087
tp4088
Rp4089
(dp4090
g21
I00
sg49
I01
sg23
I00
sg760
I1
sbsbag0
(g358
g2
Ntp4091
Rp4092
(dp4093
g21
I00
sg49
I01
sg23
I00
sg19
(lp4094
g3808
ag3809
ag3810
asg22
Nsg3808
g0
(g3811
g2
Ntp4095
Rp4096
(dp4097
g21
I00
sg49
I01
sg23
I00
sg3815
I311626
sg3816
I0
sg3817
I1
sg3818
I339999
sg3819
I0
sg3820
I0
sbsg3809
g0
(g449
g62
(lp4098
VCondFormats/PPSObjects/xml/mapping_tracking_strip_2018.xml
p4099
atp4100
Rp4101
(dp4102
g21
I00
sg49
I01
sg23
I00
sg760
I1
sbsg3810
g0
(g449
g62
(lp4103
tp4104
Rp4105
(dp4106
g21
I00
sg49
I01
sg23
I00
sg760
I1
sbsbag0
(g358
g2
Ntp4107
Rp4108
(dp4109
g21
I00
sg49
I01
sg23
I00
sg19
(lp4110
g3808
ag3809
ag3810
asg22
Nsg3808
g0
(g3811
g2
Ntp4111
Rp4112
(dp4113
g21
I00
sg49
I01
sg23
I00
sg3815
I340000
sg3816
I0
sg3817
I1
sg3818
I999999999
sg3819
I0
sg3820
I0
sbsg3809
g0
(g449
g62
(lp4114
VCondFormats/PPSObjects/xml/mapping_tracking_strip_2022.xml
p4115
atp4116
Rp4117
(dp4118
g21
I00
sg49
I01
sg23
I00
sg760
I1
sbsg3810
g0
(g449
g62
(lp4119
tp4120
Rp4121
(dp4122
g21
I00
sg49
I01
sg23
I00
sg760
I1
sbsbatp4123
Rp4124
(dp4125
g21
I00
sg49
I01
sg23
I00
sg760
I1
sbsg24
g3912
sg26
I4
sg27
g4013
sbssV_Process__esproducers
p4126
(dp4127
VCSCGeometryESModule
p4128
g0
(cFWCore.ParameterSet.Modules
ESProducer
p4129
g2
Ntp4130
Rp4131
(dp4132
g17
g4128
sg19
(lp4133
VfromDDD
p4134
aVfromDD4hep
p4135
aValignmentsLabel
p4136
ag2929
aVuseRealWireGeometry
p4137
aVuseOnlyWiresInME1a
p4138
aVuseGangedStripsInME1a
p4139
aVuseCentreTIOffsets
p4140
aVapplyAlignment
p4141
aVdebugV
p4142
asg21
I00
sg22
Nsg4134
g0
(g71
g2
Ntp4143
Rp4144
(dp4145
g21
I00
sg49
I01
sg23
I00
sg50
I00
sbsg23
I00
sg4135
g0
(g71
g2
Ntp4146
Rp4147
(dp4148
g21
I00
sg49
I01
sg23
I00
sg50
I00
sbsg4136
g0
(g45
g2
Ntp4149
Rp4150
(dp4151
g21
I00
sg49
I01
sg23
I00
sg50
g59
sbsg2929
g0
(g45
g2
Ntp4152
Rp4153
(dp4154
g21
I00
sg49
I01
sg23
I00
sg50
g59
sbsg4137
g0
(g71
g2
Ntp4155
Rp4156
(dp4157
g21
I00
sg49
I01
sg23
I00
sg50
I01
sbsg4138
g0
(g71
g2
Ntp4158
Rp4159
(dp4160
g21
I00
sg49
I01
sg23
I00
sg50
I00
sbsg4139
g0
(g71
g2
Ntp4161
Rp4162
(dp4163
g21
I00
sg49
I01
sg23
I00
sg50
I01
sbsg4140
g0
(g71
g2
Ntp4164
Rp4165
(dp4166
g21
I00
sg49
I01
sg23
I00
sg50
I00
sbsg4141
g0
(g71
g2
Ntp4167
Rp4168
(dp4169
g21
I00
sg49
I01
sg23
I00
sg50
I01
sbsg4142
g0
(g71
g2
Ntp4170
Rp4171
(dp4172
g21
I00
sg49
I00
sg23
I00
sg50
I00
sbsg24
g1586
sg26
I55
sg27
g4128
sbsVCaloGeometryBuilder
p4173
g0
(g4129
g2
Ntp4174
Rp4175
(dp4176
g17
g4173
sg19
(lp4177
VSelectedCalos
p4178
asg21
I00
sg22
Nsg4178
g0
(g449
g62
(lp4179
VHCAL
p4180
aVZDC
p4181
aVCASTOR
p4182
aVEcalBarrel
p4183
aVEcalEndcap
p4184
aVEcalPreshower
p4185
aVTOWER
p4186
atp4187
Rp4188
(dp4189
g21
I00
sg49
I01
sg23
I00
sg760
I1
sbsg23
I00
sg24
g1586
sg26
I55
sg27
g4173
sbsVCaloTopologyBuilder
p4190
g0
(g4129
g2
Ntp4191
Rp4192
(dp4193
g17
g4190
sg19
(lp4194
sg21
I00
sg22
Nsg23
I00
sg24
g1586
sg26
I55
sg27
g4190
sbsVCaloTowerGeometryFromDBEP
p4195
g0
(g4129
g2
Ntp4196
Rp4197
(dp4198
g17
g4195
sg19
(lp4199
g4141
asg21
I00
sg22
Nsg4141
g0
(g71
g2
Ntp4200
Rp4201
(dp4202
g21
I00
sg49
I01
sg23
I00
sg50
I00
sbsg23
I00
sg24
g1586
sg26
I55
sg27
g4195
sbsVCaloTowerTopologyEP
p4203
g0
(g4129
g2
Ntp4204
Rp4205
(dp4206
g17
g4203
sg19
(lp4207
sg21
I00
sg22
Nsg23
I00
sg24
g1586
sg26
I55
sg27
g4203
sbsVCastorGeometryFromDBEP
p4208
g0
(g4129
g2
Ntp4209
Rp4210
(dp4211
g17
g4208
sg19
(lp4212
g4141
asg21
I00
sg22
Nsg4141
g0
(g71
g2
Ntp4213
Rp4214
(dp4215
g21
I00
sg49
I01
sg23
I00
sg50
I00
sbsg23
I00
sg24
g1586
sg26
I55
sg27
g4208
sbsVDTGeometryESModule
p4216
g0
(g4129
g2
Ntp4217
Rp4218
(dp4219
g17
g4216
sg19
(lp4220
g4134
ag4135
aVDDDetector
p4221
ag4136
ag2929
aVattribute
p4222
aVvalue
p4223
ag4141
asg21
I00
sg22
Nsg4134
g0
(g71
g2
Ntp4224
Rp4225
(dp4226
g21
I00
sg49
I01
sg23
I01
sg50
I00
sbsg23
I01
sg4135
g0
(g71
g2
Ntp4227
Rp4228
(dp4229
g21
I00
sg49
I01
sg23
I00
sg50
I00
sbsg4221
g0
(cFWCore.ParameterSet.Types
ESInputTag
p4230
g2
Ntp4231
Rp4232
(dp4233
g21
I00
sg49
I01
sg23
I00
sV_ESInputTag__moduleLabel
p4234
g59
sV_ESInputTag__data
p4235
g59
sbsg4136
g0
(g45
g2
Ntp4236
Rp4237
(dp4238
g21
I00
sg49
I01
sg23
I00
sg50
g59
sbsg2929
g0
(g45
g2
Ntp4239
Rp4240
(dp4241
g21
I00
sg49
I01
sg23
I00
sg50
g59
sbsg4222
g0
(g45
g2
Ntp4242
Rp4243
(dp4244
g21
I00
sg49
I01
sg23
I00
sg50
VMuStructure
p4245
sbsg4223
g0
(g45
g2
Ntp4246
Rp4247
(dp4248
g21
I00
sg49
I01
sg23
I00
sg50
VMuonBarrelDT
p4249
sbsg4141
g0
(g71
g2
Ntp4250
Rp4251
(dp4252
g21
I00
sg49
I01
sg23
I00
sg50
I01
sbsg24
g1586
sg26
I55
sg27
g4216
sbsVEcalBarrelGeometryFromDBEP
p4253
g0
(g4129
g2
Ntp4254
Rp4255
(dp4256
g17
g4253
sg19
(lp4257
g4141
asg21
I00
sg22
Nsg4141
g0
(g71
g2
Ntp4258
Rp4259
(dp4260
g21
I00
sg49
I01
sg23
I01
sg50
I01
sbsg23
I01
sg24
g1586
sg26
I55
sg27
g4253
sbsVEcalElectronicsMappingBuilder
p4261
g0
(g4129
g2
Ntp4262
Rp4263
(dp4264
g17
g4261
sg19
(lp4265
sg21
I00
sg22
Nsg23
I00
sg24
g1586
sg26
I55
sg27
g4261
sbsVEcalEndcapGeometryFromDBEP
p4266
g0
(g4129
g2
Ntp4267
Rp4268
(dp4269
g17
g4266
sg19
(lp4270
g4141
asg21
I00
sg22
Nsg4141
g0
(g71
g2
Ntp4271
Rp4272
(dp4273
g21
I00
sg49
I01
sg23
I01
sg50
I01
sbsg23
I01
sg24
g1586
sg26
I55
sg27
g4266
sbsVEcalPreshowerGeometryFromDBEP
p4274
g0
(g4129
g2
Ntp4275
Rp4276
(dp4277
g17
g4274
sg19
(lp4278
g4141
asg21
I00
sg22
Nsg4141
g0
(g71
g2
Ntp4279
Rp4280
(dp4281
g21
I00
sg49
I01
sg23
I01
sg50
I01
sbsg23
I01
sg24
g1586
sg26
I55
sg27
g4274
sbsVEcalTrigTowerConstituentsMapBuilder
p4282
g0
(g4129
g2
Ntp4283
Rp4284
(dp4285
g17
g4282
sg19
(lp4286
VMapFile
p4287
asg21
I00
sg22
Nsg4287
g0
(g45
g2
Ntp4288
Rp4289
(dp4290
g21
I00
sg49
I00
sg23
I00
sg50
VGeometry/EcalMapping/data/EndCap_TTMap.txt
p4291
sbsg23
I00
sg24
g1586
sg26
I55
sg27
g4282
sbsVGlobalTrackingGeometryESProducer
p4292
g0
(g4129
g2
Ntp4293
Rp4294
(dp4295
g17
g4292
sg19
(lp4296
sg21
I00
sg22
Nsg23
I00
sg24
g1586
sg26
I55
sg27
g4292
sbsVHcalAlignmentEP
p4297
g0
(g4129
g2
Ntp4298
Rp4299
(dp4300
g17
g4297
sg19
(lp4301
sg21
I00
sg22
Nsg23
I00
sg24
g1586
sg26
I55
sg27
g4297
sbsVHcalGeometryFromDBEP
p4302
g0
(g4129
g2
Ntp4303
Rp4304
(dp4305
g17
g4302
sg19
(lp4306
g4141
asg21
I00
sg22
Nsg4141
g0
(g71
g2
Ntp4307
Rp4308
(dp4309
g21
I00
sg49
I01
sg23
I01
sg50
I01
sbsg23
I01
sg24
g1586
sg26
I55
sg27
g4302
sbsVMuonDetLayerGeometryESProducer
p4310
g0
(g4129
g2
Ntp4311
Rp4312
(dp4313
g17
g4310
sg19
(lp4314
sg21
I00
sg22
Nsg23
I00
sg24
g1586
sg26
I55
sg27
g4310
sbsVRPCGeometryESModule
p4315
g0
(g4129
g2
Ntp4316
Rp4317
(dp4318
g17
g4315
sg19
(lp4319
g4134
ag4135
asg21
I00
sg22
Nsg4134
g0
(g71
g2
Ntp4320
Rp4321
(dp4322
g21
I00
sg49
I00
sg23
I00
sg50
I00
sbsg23
I00
sg4135
g0
(g71
g2
Ntp4323
Rp4324
(dp4325
g21
I00
sg49
I00
sg23
I00
sg50
I00
sbsg24
g1586
sg26
I55
sg27
g4315
sbsVTrackerRecoGeometryESProducer
p4326
g0
(g4129
g2
Ntp4327
Rp4328
(dp4329
g17
g4326
sg19
(lp4330
VusePhase2Stacks
p4331
asg21
I00
sg22
Nsg4331
g0
(g71
g2
Ntp4332
Rp4333
(dp4334
g21
I00
sg49
I01
sg23
I00
sg50
I00
sbsg23
I00
sg24
g1586
sg26
I55
sg27
g4326
sbsVZdcGeometryFromDBEP
p4335
g0
(g4129
g2
Ntp4336
Rp4337
(dp4338
g17
g4335
sg19
(lp4339
g4141
asg21
I00
sg22
Nsg4141
g0
(g71
g2
Ntp4340
Rp4341
(dp4342
g21
I00
sg49
I01
sg23
I00
sg50
I00
sbsg23
I00
sg24
g1586
sg26
I55
sg27
g4335
sbsVfakeForIdealAlignment
p4343
g0
(g4129
g2
Ntp4344
Rp4345
(dp4346
g17
VFakeAlignmentProducer
p4347
sg19
(lp4348
g2929
asg21
I00
sg22
Nsg2929
g0
(g45
g2
Ntp4349
Rp4350
(dp4351
g21
I00
sg49
I01
sg23
I01
sg50
VfakeForIdeal
p4352
sbsg23
I01
sg24
V/cvmfs/cms.cern.ch/slc7_amd64_gcc11/cms/cmssw-patch/CMSSW_13_0_5_patch1/src/Alignment/CommonAlignmentProducer/python/fakeForIdealAlignmentProducer_cfi.py
p4353
sg26
I5
sg27
g4343
sbsVhcalDDDRecConstants
p4354
g0
(g4129
g2
Ntp4355
Rp4356
(dp4357
g17
VHcalDDDRecConstantsESModule
p4358
sg19
(lp4359
g2929
asg21
I00
sg22
Nsg2929
g0
(g45
g2
Ntp4360
Rp4361
(dp4362
g21
I00
sg49
I01
sg23
I00
sg50
g59
sbsg23
I00
sg24
g1586
sg26
I55
sg27
g4354
sbsVhcalDDDSimConstants
p4363
g0
(g4129
g2
Ntp4364
Rp4365
(dp4366
g17
VHcalDDDSimConstantsESModule
p4367
sg19
(lp4368
g2929
asg21
I00
sg22
Nsg2929
g0
(g45
g2
Ntp4369
Rp4370
(dp4371
g21
I00
sg49
I01
sg23
I00
sg50
g59
sbsg23
I00
sg24
g1586
sg26
I55
sg27
g4363
sbsVhcalTopologyIdeal
p4372
g0
(g4129
g2
Ntp4373
Rp4374
(dp4375
g17
VHcalTopologyIdealEP
p4376
sg19
(lp4377
VExclude
p4378
aVMergePosition
p4379
ag2929
asg21
I00
sg22
Nsg4378
g0
(g45
g2
Ntp4380
Rp4381
(dp4382
g21
I00
sg49
I00
sg23
I00
sg50
g59
sbsg23
I00
sg4379
g0
(g71
g2
Ntp4383
Rp4384
(dp4385
g21
I00
sg49
I00
sg23
I00
sg50
I00
sbsg2929
g0
(g45
g2
Ntp4386
Rp4387
(dp4388
g21
I00
sg49
I01
sg23
I00
sg50
g59
sbsg24
g1586
sg26
I55
sg27
g4372
sbsVidealForDigiCSCGeometry
p4389
g0
(g4129
g2
Ntp4390
Rp4391
(dp4392
g17
g4128
sg19
(lp4393
g4134
ag4135
ag4136
ag2929
ag4137
ag4138
ag4139
ag4140
ag4141
ag4142
asg21
I00
sg22
Nsg4134
g0
(g71
g2
Ntp4394
Rp4395
(dp4396
g21
I00
sg49
I01
sg23
I00
sg50
I00
sbsg23
I01
sg4135
g0
(g71
g2
Ntp4397
Rp4398
(dp4399
g21
I00
sg49
I01
sg23
I00
sg50
I00
sbsg4136
g0
(g45
g2
Ntp4400
Rp4401
(dp4402
g21
I00
sg49
I01
sg23
I01
sg50
g4352
sbsg2929
g0
(g45
g2
Ntp4403
Rp4404
(dp4405
g21
I00
sg49
I01
sg23
I01
sg50
VidealForDigi
p4406
sbsg4137
g0
(g71
g2
Ntp4407
Rp4408
(dp4409
g21
I00
sg49
I01
sg23
I00
sg50
I01
sbsg4138
g0
(g71
g2
Ntp4410
Rp4411
(dp4412
g21
I00
sg49
I01
sg23
I00
sg50
I00
sbsg4139
g0
(g71
g2
Ntp4413
Rp4414
(dp4415
g21
I00
sg49
I01
sg23
I00
sg50
I01
sbsg4140
g0
(g71
g2
Ntp4416
Rp4417
(dp4418
g21
I00
sg49
I01
sg23
I00
sg50
I00
sbsg4141
g0
(g71
g2
Ntp4419
Rp4420
(dp4421
g21
I00
sg49
I01
sg23
I01
sg50
I00
sbsg4142
g0
(g71
g2
Ntp4422
Rp4423
(dp4424
g21
I00
sg49
I00
sg23
I00
sg50
I00
sbsg24
V/cvmfs/cms.cern.ch/slc7_amd64_gcc11/cms/cmssw-patch/CMSSW_13_0_5_patch1/src/Geometry/CSCGeometryBuilder/python/idealForDigiCscGeometryDB_cff.py
p4425
sg26
I8
sg27
g4389
sbsVidealForDigiDTGeometry
p4426
g0
(g4129
g2
Ntp4427
Rp4428
(dp4429
g17
g4216
sg19
(lp4430
g4134
ag4135
ag4221
ag4136
ag2929
ag4222
ag4223
ag4141
asg21
I00
sg22
Nsg4134
g0
(g71
g2
Ntp4431
Rp4432
(dp4433
g21
I00
sg49
I01
sg23
I01
sg50
I00
sbsg23
I01
sg4135
g0
(g71
g2
Ntp4434
Rp4435
(dp4436
g21
I00
sg49
I01
sg23
I00
sg50
I00
sbsg4221
g0
(g4230
g2
Ntp4437
Rp4438
(dp4439
g21
I00
sg49
I01
sg23
I00
sg4234
g59
sg4235
g59
sbsg4136
g0
(g45
g2
Ntp4440
Rp4441
(dp4442
g21
I00
sg49
I01
sg23
I01
sg50
g4352
sbsg2929
g0
(g45
g2
Ntp4443
Rp4444
(dp4445
g21
I00
sg49
I01
sg23
I01
sg50
g4406
sbsg4222
g0
(g45
g2
Ntp4446
Rp4447
(dp4448
g21
I00
sg49
I01
sg23
I00
sg50
g4245
sbsg4223
g0
(g45
g2
Ntp4449
Rp4450
(dp4451
g21
I00
sg49
I01
sg23
I00
sg50
g4249
sbsg4141
g0
(g71
g2
Ntp4452
Rp4453
(dp4454
g21
I00
sg49
I01
sg23
I01
sg50
I00
sbsg24
V/cvmfs/cms.cern.ch/slc7_amd64_gcc11/cms/cmssw-patch/CMSSW_13_0_5_patch1/src/Geometry/DTGeometryBuilder/python/idealForDigiDtGeometryDB_cff.py
p4455
sg26
I8
sg27
g4426
sbsVidealForDigiTrackerGeometry
p4456
g0
(g4129
g2
Ntp4457
Rp4458
(dp4459
g17
VTrackerDigiGeometryESModule
p4460
sg19
(lp4461
g2929
ag4134
ag4141
ag4136
asg21
I00
sg22
Nsg2929
g0
(g45
g2
Ntp4462
Rp4463
(dp4464
g21
I00
sg49
I01
sg23
I01
sg50
g4406
sbsg23
I01
sg4134
g0
(g71
g2
Ntp4465
Rp4466
(dp4467
g21
I00
sg49
I01
sg23
I00
sg50
I00
sbsg4141
g0
(g71
g2
Ntp4468
Rp4469
(dp4470
g21
I00
sg49
I01
sg23
I01
sg50
I00
sbsg4136
g0
(g45
g2
Ntp4471
Rp4472
(dp4473
g21
I00
sg49
I01
sg23
I01
sg50
g4352
sbsg24
V/cvmfs/cms.cern.ch/slc7_amd64_gcc11/cms/cmssw-patch/CMSSW_13_0_5_patch1/src/Geometry/TrackerGeometryBuilder/python/idealForDigiTrackerGeometryDB_cff.py
p4474
sg26
I8
sg27
g4456
sbsVmuonGeometryConstants
p4475
g0
(g4129
g2
Ntp4476
Rp4477
(dp4478
g17
VMuonGeometryConstantsESModule
p4479
sg19
(lp4480
g4135
ag2929
asg21
I00
sg22
Nsg4135
g0
(g71
g2
Ntp4481
Rp4482
(dp4483
g21
I00
sg49
I01
sg23
I00
sg50
I00
sbsg23
I00
sg2929
g0
(g45
g2
Ntp4484
Rp4485
(dp4486
g21
I00
sg49
I01
sg23
I00
sg50
g59
sbsg24
g1586
sg26
I55
sg27
g4475
sbsVtrackerGeometryDB
p4487
g0
(g4129
g2
Ntp4488
Rp4489
(dp4490
g17
g4460
sg19
(lp4491
g2929
ag4134
ag4141
ag4136
asg21
I00
sg22
Nsg2929
g0
(g45
g2
Ntp4492
Rp4493
(dp4494
g21
I00
sg49
I01
sg23
I00
sg50
g59
sbsg23
I00
sg4134
g0
(g71
g2
Ntp4495
Rp4496
(dp4497
g21
I00
sg49
I01
sg23
I00
sg50
I00
sbsg4141
g0
(g71
g2
Ntp4498
Rp4499
(dp4500
g21
I00
sg49
I01
sg23
I00
sg50
I01
sbsg4136
g0
(g45
g2
Ntp4501
Rp4502
(dp4503
g21
I00
sg49
I01
sg23
I00
sg50
g59
sbsg24
g1586
sg26
I55
sg27
g4487
sbsVtrackerNumberingGeometryDB
p4504
g0
(g4129
g2
Ntp4505
Rp4506
(dp4507
g17
VTrackerGeometricDetESModule
p4508
sg19
(lp4509
g4134
ag4135
ag2929
asg21
I00
sg22
Nsg4134
g0
(g71
g2
Ntp4510
Rp4511
(dp4512
g21
I00
sg49
I01
sg23
I00
sg50
I00
sbsg23
I00
sg4135
g0
(g71
g2
Ntp4513
Rp4514
(dp4515
g21
I00
sg49
I01
sg23
I00
sg50
I00
sbsg2929
g0
(g45
g2
Ntp4516
Rp4517
(dp4518
g21
I00
sg49
I01
sg23
I00
sg50
g59
sbsg24
g1586
sg26
I55
sg27
g4504
sbsVtrackerTopology
p4519
g0
(g4129
g2
Ntp4520
Rp4521
(dp4522
g17
VTrackerTopologyEP
p4523
sg19
(lp4524
g2929
asg21
I00
sg22
Nsg2929
g0
(g45
g2
Ntp4525
Rp4526
(dp4527
g21
I00
sg49
I01
sg23
I00
sg50
g59
sbsg23
I00
sg24
g1586
sg26
I55
sg27
g4519
sbsVMuonNumberingInitialization
p4528
g0
(g4129
g2
Ntp4529
Rp4530
(dp4531
g17
g4528
sg19
(lp4532
sg21
I00
sg22
Nsg23
I00
sg24
g1586
sg26
I55
sg27
g4528
sbsVXMLFromDBSource
p4533
g0
(g4129
g2
Ntp4534
Rp4535
(dp4536
g17
VXMLIdealGeometryESProducer
p4537
sg19
(lp4538
VrootDDName
p4539
aVlabel
p4540
asg21
I00
sg22
Nsg4539
g0
(g45
g2
Ntp4541
Rp4542
(dp4543
g21
I00
sg49
I01
sg23
I00
sg50
Vcms:OCMS
p4544
sbsg23
I00
sg4540
g0
(g45
g2
Ntp4545
Rp4546
(dp4547
g21
I00
sg49
I01
sg23
I00
sg50
VExtended
p4548
sbsg24
g1586
sg26
I55
sg27
g4533
sbsVcaloSimulationParameters
p4549
g0
(g4129
g2
Ntp4550
Rp4551
(dp4552
g17
VCaloSimParametersESModule
p4553
sg19
(lp4554
g4135
ag2929
asg21
I00
sg22
Nsg4135
g0
(g71
g2
Ntp4555
Rp4556
(dp4557
g21
I00
sg49
I01
sg23
I00
sg50
I00
sbsg23
I00
sg2929
g0
(g45
g2
Ntp4558
Rp4559
(dp4560
g21
I00
sg49
I01
sg23
I00
sg50
g59
sbsg24
g1586
sg26
I55
sg27
g4549
sbsVecalSimulationParametersEB
p4561
g0
(g4129
g2
Ntp4562
Rp4563
(dp4564
g17
VEcalSimParametersESModule
p4565
sg19
(lp4566
g4135
aVname
p4567
ag2929
asg21
I00
sg22
Nsg4135
g0
(g71
g2
Ntp4568
Rp4569
(dp4570
g21
I00
sg49
I01
sg23
I00
sg50
I00
sbsg23
I00
sg4567
g0
(g45
g2
Ntp4571
Rp4572
(dp4573
g21
I00
sg49
I01
sg23
I00
sg50
VEcalHitsEB
p4574
sbsg2929
g0
(g45
g2
Ntp4575
Rp4576
(dp4577
g21
I00
sg49
I01
sg23
I00
sg50
g59
sbsg24
g1586
sg26
I55
sg27
g4561
sbsVecalSimulationParametersEE
p4578
g0
(g4129
g2
Ntp4579
Rp4580
(dp4581
g17
g4565
sg19
(lp4582
g4135
ag4567
ag2929
asg21
I00
sg22
Nsg4135
g0
(g71
g2
Ntp4583
Rp4584
(dp4585
g21
I00
sg49
I01
sg23
I00
sg50
I00
sbsg23
I00
sg4567
g0
(g45
g2
Ntp4586
Rp4587
(dp4588
g21
I00
sg49
I01
sg23
I00
sg50
VEcalHitsEE
p4589
sbsg2929
g0
(g45
g2
Ntp4590
Rp4591
(dp4592
g21
I00
sg49
I01
sg23
I00
sg50
g59
sbsg24
V/cvmfs/cms.cern.ch/slc7_amd64_gcc11/cms/cmssw-patch/CMSSW_13_0_5_patch1/src/Geometry/EcalCommonData/python/ecalSimulationParameters_cff.py
p4593
sg26
I11
sg27
g4578
sbsVecalSimulationParametersES
p4594
g0
(g4129
g2
Ntp4595
Rp4596
(dp4597
g17
g4565
sg19
(lp4598
g4135
ag4567
ag2929
asg21
I00
sg22
Nsg4135
g0
(g71
g2
Ntp4599
Rp4600
(dp4601
g21
I00
sg49
I01
sg23
I00
sg50
I00
sbsg23
I00
sg4567
g0
(g45
g2
Ntp4602
Rp4603
(dp4604
g21
I00
sg49
I01
sg23
I00
sg50
VEcalHitsES
p4605
sbsg2929
g0
(g45
g2
Ntp4606
Rp4607
(dp4608
g21
I00
sg49
I01
sg23
I00
sg50
g59
sbsg24
g4593
sg26
I14
sg27
g4594
sbsVhcalSimulationConstants
p4609
g0
(g4129
g2
Ntp4610
Rp4611
(dp4612
g17
VHcalSimulationConstantsESModule
p4613
sg19
(lp4614
g2929
asg21
I00
sg22
Nsg2929
g0
(g45
g2
Ntp4615
Rp4616
(dp4617
g21
I00
sg49
I01
sg23
I00
sg50
g59
sbsg23
I00
sg24
g1586
sg26
I55
sg27
g4609
sbsVhcalSimulationParameters
p4618
g0
(g4129
g2
Ntp4619
Rp4620
(dp4621
g17
VHcalSimParametersESModule
p4622
sg19
(lp4623
g4135
ag2929
asg21
I00
sg22
Nsg4135
g0
(g71
g2
Ntp4624
Rp4625
(dp4626
g21
I00
sg49
I01
sg23
I00
sg50
I00
sbsg23
I00
sg2929
g0
(g45
g2
Ntp4627
Rp4628
(dp4629
g21
I00
sg49
I01
sg23
I00
sg50
g59
sbsg24
g1586
sg26
I55
sg27
g4618
sbsVmuonOffsetESProducer
p4630
g0
(g4129
g2
Ntp4631
Rp4632
(dp4633
g17
VMuonOffsetESProducer
p4634
sg19
(lp4635
g4135
aVnames
p4636
ag2929
asg21
I00
sg22
Nsg4135
g0
(g71
g2
Ntp4637
Rp4638
(dp4639
g21
I00
sg49
I01
sg23
I00
sg50
I00
sbsg23
I00
sg4636
g0
(g449
g62
(lp4640
VMuonCommonNumbering
p4641
aVMuonBarrel
p4642
aVMuonEndcap
p4643
aVMuonBarrelWheels
p4644
aVMuonBarrelStation1
p4645
aVMuonBarrelStation2
p4646
aVMuonBarrelStation3
p4647
aVMuonBarrelStation4
p4648
aVMuonBarrelSuperLayer
p4649
aVMuonBarrelLayer
p4650
aVMuonBarrelWire
p4651
aVMuonRpcPlane1I
p4652
aVMuonRpcPlane1O
p4653
aVMuonRpcPlane2I
p4654
aVMuonRpcPlane2O
p4655
aVMuonRpcPlane3S
p4656
aVMuonRpcPlane4
p4657
aVMuonRpcChamberLeft
p4658
aVMuonRpcChamberMiddle
p4659
aVMuonRpcChamberRight
p4660
aVMuonRpcEndcap1
p4661
aVMuonRpcEndcap2
p4662
aVMuonRpcEndcap3
p4663
aVMuonRpcEndcap4
p4664
aVMuonRpcEndcapSector
p4665
aVMuonRpcEndcapChamberB1
p4666
aVMuonRpcEndcapChamberB2
p4667
aVMuonRpcEndcapChamberB3
p4668
aVMuonRpcEndcapChamberC1
p4669
aVMuonRpcEndcapChamberC2
p4670
aVMuonRpcEndcapChamberC3
p4671
aVMuonRpcEndcapChamberE1
p4672
aVMuonRpcEndcapChamberE2
p4673
aVMuonRpcEndcapChamberE3
p4674
aVMuonRpcEndcapChamberF1
p4675
aVMuonRpcEndcapChamberF2
p4676
aVMuonRpcEndcapChamberF3
p4677
aVMuonEndcapStation1
p4678
aVMuonEndcapStation2
p4679
aVMuonEndcapStation3
p4680
aVMuonEndcapStation4
p4681
aVMuonEndcapSubrings
p4682
aVMuonEndcapSectors
p4683
aVMuonEndcapLayers
p4684
aVMuonEndcapRing1
p4685
aVMuonEndcapRing2
p4686
aVMuonEndcapRing3
p4687
aVMuonEndcapRingA
p4688
aVMuonGEMEndcap
p4689
aVMuonGEMSector
p4690
aVMuonGEMChamber
p4691
atp4692
Rp4693
(dp4694
g21
I00
sg49
I01
sg23
I00
sg760
I1
sbsg2929
g0
(g45
g2
Ntp4695
Rp4696
(dp4697
g21
I00
sg49
I01
sg23
I00
sg50
g59
sbsg24
g1586
sg26
I55
sg27
g4630
sbsVCastorDbProducer
p4698
g0
(g4129
g2
Ntp4699
Rp4700
(dp4701
g17
g4698
sg19
(lp4702
g2929
asg21
I00
sg22
Nsg2929
g0
(g45
g2
Ntp4703
Rp4704
(dp4705
g21
I00
sg49
I01
sg23
I00
sg50
g59
sbsg23
I00
sg24
g1586
sg26
I55
sg27
g4698
sbsVEcalLaserCorrectionService
p4706
g0
(g4129
g2
Ntp4707
Rp4708
(dp4709
g17
g4706
sg19
(lp4710
VmaxExtrapolationTimeInSec
p4711
asg21
I00
sg22
Nsg4711
g0
(g67
g2
Ntp4712
Rp4713
(dp4714
g21
I00
sg49
I01
sg23
I00
sg50
I0
sbsg23
I00
sg24
g1586
sg26
I55
sg27
g4706
sbsVEcalLaserCorrectionServiceMC
p4715
g0
(g4129
g2
Ntp4716
Rp4717
(dp4718
g17
g4715
sg19
(lp4719
g2929
asg21
I00
sg22
Nsg2929
g0
(g45
g2
Ntp4720
Rp4721
(dp4722
g21
I00
sg49
I01
sg23
I00
sg50
g59
sbsg23
I00
sg24
g1586
sg26
I55
sg27
g4715
sbsVSiStripRecHitMatcherESProducer
p4723
g0
(g4129
g2
Ntp4724
Rp4725
(dp4726
g17
g4723
sg19
(lp4727
VComponentName
p4728
aVNSigmaInside
p4729
aVPreFilter
p4730
asg21
I00
sg22
Nsg4728
g0
(g45
g2
Ntp4731
Rp4732
(dp4733
g21
I00
sg49
I01
sg23
I00
sg50
VStandardMatcher
p4734
sbsg23
I00
sg4729
g0
(g406
g2
Ntp4735
Rp4736
(dp4737
g21
I00
sg49
I01
sg23
I00
sg50
F3.0
sbsg4730
g0
(g71
g2
Ntp4738
Rp4739
(dp4740
g21
I00
sg49
I01
sg23
I00
sg50
I00
sbsg24
g1586
sg26
I55
sg27
g4723
sbsVStripCPEfromTrackAngleESProducer
p4741
g0
(g4129
g2
Ntp4742
Rp4743
(dp4744
g17
VStripCPEESProducer
p4745
sg19
(lp4746
g4728
aVComponentType
p4747
aVparameters
p4748
asg21
I00
sg22
Nsg4728
g0
(g45
g2
Ntp4749
Rp4750
(dp4751
g21
I00
sg49
I01
sg23
I01
sg50
VStripCPEfromTrackAngle
p4752
sbsg23
I00
sg4747
g0
(g45
g2
Ntp4753
Rp4754
(dp4755
g21
I00
sg49
I01
sg23
I01
sg50
g4752
sbsg4748
g0
(g358
g2
Ntp4756
Rp4757
(dp4758
g21
I00
sg49
I01
sg23
I00
sg19
(lp4759
VmLC_P0
p4760
aVmLC_P1
p4761
aVmLC_P2
p4762
aVmTIB_P0
p4763
aVmTIB_P1
p4764
aVmTOB_P0
p4765
aVmTOB_P1
p4766
aVmTID_P0
p4767
aVmTID_P1
p4768
aVmTEC_P0
p4769
aVmTEC_P1
p4770
aVuseLegacyError
p4771
aVmaxChgOneMIP
p4772
asg22
Nsg4760
g0
(g406
g2
Ntp4773
Rp4774
(dp4775
g21
I00
sg49
I01
sg23
I00
sg50
F-0.326
sbsg4761
g0
(g406
g2
Ntp4776
Rp4777
(dp4778
g21
I00
sg49
I01
sg23
I00
sg50
F0.618
sbsg4762
g0
(g406
g2
Ntp4779
Rp4780
(dp4781
g21
I00
sg49
I01
sg23
I00
sg50
F0.3
sbsg4763
g0
(g406
g2
Ntp4782
Rp4783
(dp4784
g21
I00
sg49
I01
sg23
I00
sg50
F-0.742
sbsg4764
g0
(g406
g2
Ntp4785
Rp4786
(dp4787
g21
I00
sg49
I01
sg23
I00
sg50
F0.202
sbsg4765
g0
(g406
g2
Ntp4788
Rp4789
(dp4790
g21
I00
sg49
I01
sg23
I00
sg50
F-1.026
sbsg4766
g0
(g406
g2
Ntp4791
Rp4792
(dp4793
g21
I00
sg49
I01
sg23
I00
sg50
F0.253
sbsg4767
g0
(g406
g2
Ntp4794
Rp4795
(dp4796
g21
I00
sg49
I01
sg23
I00
sg50
F-1.427
sbsg4768
g0
(g406
g2
Ntp4797
Rp4798
(dp4799
g21
I00
sg49
I01
sg23
I00
sg50
F0.433
sbsg4769
g0
(g406
g2
Ntp4800
Rp4801
(dp4802
g21
I00
sg49
I01
sg23
I00
sg50
F-1.885
sbsg4770
g0
(g406
g2
Ntp4803
Rp4804
(dp4805
g21
I00
sg49
I01
sg23
I00
sg50
F0.471
sbsg4771
g0
(g71
g2
Ntp4806
Rp4807
(dp4808
g21
I00
sg49
I01
sg23
I00
sg50
I00
sbsg4772
g0
(g406
g2
Ntp4809
Rp4810
(dp4811
g21
I00
sg49
I01
sg23
I00
sg50
F6000.0
sbsbsg24
V/cvmfs/cms.cern.ch/slc7_amd64_gcc11/cms/cmssw-patch/CMSSW_13_0_5_patch1/src/RecoLocalTracker/SiStripRecHitConverter/python/StripCPEfromTrackAngle_cfi.py
p4812
sg26
I4
sg27
g4741
sbsVctppsBeamParametersFromLHCInfoESSource
p4813
g0
(g4129
g2
Ntp4814
Rp4815
(dp4816
g17
VCTPPSBeamParametersFromLHCInfoESSource
p4817
sg19
(lp4818
VlhcInfoLabel
p4819
aVbeamDivX45
p4820
aVbeamDivY45
p4821
aVbeamDivX56
p4822
aVbeamDivY56
p4823
aVvtxOffsetX45
p4824
aVvtxOffsetY45
p4825
aVvtxOffsetZ45
p4826
aVvtxOffsetX56
p4827
aVvtxOffsetY56
p4828
aVvtxOffsetZ56
p4829
aVvtxStddevX
p4830
aVvtxStddevY
p4831
aVvtxStddevZ
p4832
ag2929
asg21
I00
sg22
Nsg4819
g0
(g45
g2
Ntp4833
Rp4834
(dp4835
g21
I00
sg49
I01
sg23
I00
sg50
g59
sbsg23
I00
sg4820
g0
(g406
g2
Ntp4836
Rp4837
(dp4838
g21
I00
sg49
I01
sg23
I00
sg50
F0.1
sbsg4821
g0
(g406
g2
Ntp4839
Rp4840
(dp4841
g21
I00
sg49
I01
sg23
I00
sg50
F0.1
sbsg4822
g0
(g406
g2
Ntp4842
Rp4843
(dp4844
g21
I00
sg49
I01
sg23
I00
sg50
F0.1
sbsg4823
g0
(g406
g2
Ntp4845
Rp4846
(dp4847
g21
I00
sg49
I01
sg23
I00
sg50
F0.1
sbsg4824
g0
(g406
g2
Ntp4848
Rp4849
(dp4850
g21
I00
sg49
I01
sg23
I00
sg50
F0.01
sbsg4825
g0
(g406
g2
Ntp4851
Rp4852
(dp4853
g21
I00
sg49
I01
sg23
I00
sg50
F0.01
sbsg4826
g0
(g406
g2
Ntp4854
Rp4855
(dp4856
g21
I00
sg49
I01
sg23
I00
sg50
F0.01
sbsg4827
g0
(g406
g2
Ntp4857
Rp4858
(dp4859
g21
I00
sg49
I01
sg23
I00
sg50
F0.01
sbsg4828
g0
(g406
g2
Ntp4860
Rp4861
(dp4862
g21
I00
sg49
I01
sg23
I00
sg50
F0.01
sbsg4829
g0
(g406
g2
Ntp4863
Rp4864
(dp4865
g21
I00
sg49
I01
sg23
I00
sg50
F0.01
sbsg4830
g0
(g406
g2
Ntp4866
Rp4867
(dp4868
g21
I00
sg49
I01
sg23
I00
sg50
F0.02
sbsg4831
g0
(g406
g2
Ntp4869
Rp4870
(dp4871
g21
I00
sg49
I01
sg23
I00
sg50
F0.02
sbsg4832
g0
(g406
g2
Ntp4872
Rp4873
(dp4874
g21
I00
sg49
I01
sg23
I00
sg50
F0.02
sbsg2929
g0
(g45
g2
Ntp4875
Rp4876
(dp4877
g21
I00
sg49
I01
sg23
I00
sg50
g59
sbsg24
g1586
sg26
I55
sg27
g4813
sbsVctppsInterpolatedOpticalFunctionsESSource
p4878
g0
(g4129
g2
Ntp4879
Rp4880
(dp4881
g17
VCTPPSInterpolatedOpticalFunctionsESSource
p4882
sg19
(lp4883
g4819
aVopticsLabel
p4884
ag2929
asg21
I00
sg22
Nsg4819
g0
(g45
g2
Ntp4885
Rp4886
(dp4887
g21
I00
sg49
I01
sg23
I00
sg50
g59
sbsg23
I01
sg4884
g0
(g45
g2
Ntp4888
Rp4889
(dp4890
g21
I00
sg49
I01
sg23
I00
sg50
g59
sbsg2929
g0
(g45
g2
Ntp4891
Rp4892
(dp4893
g21
I00
sg49
I01
sg23
I00
sg50
g59
sbsg24
g1586
sg26
I55
sg27
g4878
sbsVhcal_db_producer
p4894
g0
(g4129
g2
Ntp4895
Rp4896
(dp4897
g17
VHcalDbProducer
p4898
sg19
(lp4899
Vdump
p4900
aVfile
p4901
asg21
I00
sg22
Nsg4900
g0
(g449
g62
(lp4902
g59
atp4903
Rp4904
(dp4905
g21
I00
sg49
I00
sg23
I00
sg760
I1
sbsg23
I00
sg4901
g0
(g45
g2
Ntp4906
Rp4907
(dp4908
g21
I00
sg49
I00
sg23
I00
sg50
g59
sbsg24
g1586
sg26
I55
sg27
g4894
sbsVmultipleScatteringParametrisationMakerESProducer
p4909
g0
(g4129
g2
Ntp4910
Rp4911
(dp4912
g17
VMultipleScatteringParametrisationMakerESProducer
p4913
sg19
(lp4914
g2929
asg21
I00
sg22
Nsg2929
g0
(g45
g2
Ntp4915
Rp4916
(dp4917
g21
I00
sg49
I01
sg23
I00
sg50
g59
sbsg23
I00
sg24
g1586
sg26
I55
sg27
g4909
sbsVsiPixelQualityESProducer
p4918
g0
(g4129
g2
Ntp4919
Rp4920
(dp4921
g17
VSiPixelQualityESProducer
p4922
sg19
(lp4923
VsiPixelQualityLabel
p4924
aVsiPixelQualityLabel_RawToDigi
p4925
aVListOfRecordToMerge
p4926
ag2929
asg21
I00
sg22
Nsg4924
g0
(g45
g2
Ntp4927
Rp4928
(dp4929
g21
I00
sg49
I01
sg23
I00
sg50
g59
sbsg23
I01
sg4925
g0
(g45
g2
Ntp4930
Rp4931
(dp4932
g21
I00
sg49
I01
sg23
I00
sg50
g59
sbsg4926
g0
(g2897
g62
(lp4933
g0
(g358
g2
Ntp4934
Rp4935
(dp4936
g21
I00
sg49
I01
sg23
I00
sg19
(lp4937
Vrecord
p4938
aVtag
p4939
asg22
Nsg4938
g0
(g45
g2
Ntp4940
Rp4941
(dp4942
g21
I00
sg49
I01
sg23
I00
sg50
VSiPixelQualityFromDbRcd
p4943
sbsg4939
g0
(g45
g2
Ntp4944
Rp4945
(dp4946
g21
I00
sg49
I01
sg23
I00
sg50
g59
sbsbag0
(g358
g2
Ntp4947
Rp4948
(dp4949
g21
I00
sg49
I01
sg23
I00
sg19
(lp4950
g4938
ag4939
asg22
Nsg4938
g0
(g45
g2
Ntp4951
Rp4952
(dp4953
g21
I00
sg49
I01
sg23
I00
sg50
VSiPixelDetVOffRcd
p4954
sbsg4939
g0
(g45
g2
Ntp4955
Rp4956
(dp4957
g21
I00
sg49
I01
sg23
I00
sg50
g59
sbsbatp4958
Rp4959
(dp4960
g21
I00
sg49
I01
sg23
I00
sg760
I1
sbsg2929
g0
(g45
g2
Ntp4961
Rp4962
(dp4963
g21
I00
sg49
I01
sg23
I00
sg50
g59
sbsg24
g1586
sg26
I55
sg27
g4918
sbsVsiStripBackPlaneCorrectionDepESProducer
p4964
g0
(g4129
g2
Ntp4965
Rp4966
(dp4967
g17
VSiStripBackPlaneCorrectionDepESProducer
p4968
sg19
(lp4969
VLatencyRecord
p4970
aVBackPlaneCorrectionPeakMode
p4971
aVBackPlaneCorrectionDeconvMode
p4972
asg21
I00
sg22
Nsg4970
g0
(g358
g2
Ntp4973
Rp4974
(dp4975
g21
I00
sg49
I01
sg23
I00
sg19
(lp4976
g4938
ag4540
asg22
Nsg4938
g0
(g45
g2
Ntp4977
Rp4978
(dp4979
g21
I00
sg49
I01
sg23
I00
sg50
VSiStripLatencyRcd
p4980
sbsg4540
g0
(g45
g2
Ntp4981
Rp4982
(dp4983
g21
I00
sg49
I00
sg23
I00
sg50
g59
sbsbsg23
I00
sg4971
g0
(g358
g2
Ntp4984
Rp4985
(dp4986
g21
I00
sg49
I01
sg23
I00
sg19
(lp4987
g4938
ag4540
asg22
Nsg4938
g0
(g45
g2
Ntp4988
Rp4989
(dp4990
g21
I00
sg49
I01
sg23
I00
sg50
VSiStripBackPlaneCorrectionRcd
p4991
sbsg4540
g0
(g45
g2
Ntp4992
Rp4993
(dp4994
g21
I00
sg49
I00
sg23
I00
sg50
Vpeak
p4995
sbsbsg4972
g0
(g358
g2
Ntp4996
Rp4997
(dp4998
g21
I00
sg49
I01
sg23
I00
sg19
(lp4999
g4938
ag4540
asg22
Nsg4938
g0
(g45
g2
Ntp5000
Rp5001
(dp5002
g21
I00
sg49
I01
sg23
I00
sg50
g4991
sbsg4540
g0
(g45
g2
Ntp5003
Rp5004
(dp5005
g21
I00
sg49
I00
sg23
I00
sg50
Vdeconvolution
p5006
sbsbsg24
g1586
sg26
I55
sg27
g4964
sbsVsiStripGainESProducer
p5007
g0
(g4129
g2
Ntp5008
Rp5009
(dp5010
g17
VSiStripGainESProducer
p5011
sg19
(lp5012
g2929
aVprintDebug
p5013
aVAutomaticNormalization
p5014
aVAPVGain
p5015
asg21
I00
sg22
Nsg2929
g0
(g45
g2
Ntp5016
Rp5017
(dp5018
g21
I00
sg49
I01
sg23
I00
sg50
g59
sbsg23
I00
sg5013
g0
(g71
g2
Ntp5019
Rp5020
(dp5021
g21
I00
sg49
I00
sg23
I00
sg50
I00
sbsg5014
g0
(g71
g2
Ntp5022
Rp5023
(dp5024
g21
I00
sg49
I01
sg23
I00
sg50
I00
sbsg5015
g0
(g2897
g62
(lp5025
g0
(g358
g2
Ntp5026
Rp5027
(dp5028
g21
I00
sg49
I01
sg23
I00
sg19
(lp5029
VRecord
p5030
ag1316
aVNormalizationFactor
p5031
asg22
Nsg5030
g0
(g45
g2
Ntp5032
Rp5033
(dp5034
g21
I00
sg49
I01
sg23
I00
sg50
VSiStripApvGainRcd
p5035
sbsg1316
g0
(g45
g2
Ntp5036
Rp5037
(dp5038
g21
I00
sg49
I00
sg23
I00
sg50
g59
sbsg5031
g0
(g406
g2
Ntp5039
Rp5040
(dp5041
g21
I00
sg49
I00
sg23
I00
sg50
F1.0
sbsbag0
(g358
g2
Ntp5042
Rp5043
(dp5044
g21
I00
sg49
I01
sg23
I00
sg19
(lp5045
g5030
ag1316
ag5031
asg22
Nsg5030
g0
(g45
g2
Ntp5046
Rp5047
(dp5048
g21
I00
sg49
I01
sg23
I00
sg50
VSiStripApvGain2Rcd
p5049
sbsg1316
g0
(g45
g2
Ntp5050
Rp5051
(dp5052
g21
I00
sg49
I00
sg23
I00
sg50
g59
sbsg5031
g0
(g406
g2
Ntp5053
Rp5054
(dp5055
g21
I00
sg49
I00
sg23
I00
sg50
F1.0
sbsbatp5056
Rp5057
(dp5058
g21
I00
sg49
I01
sg23
I00
sg760
I1
sbsg24
g1586
sg26
I55
sg27
g5007
sbsVsiStripLorentzAngleDepESProducer
p5059
g0
(g4129
g2
Ntp5060
Rp5061
(dp5062
g17
VSiStripLorentzAngleDepESProducer
p5063
sg19
(lp5064
g4970
aVLorentzAnglePeakMode
p5065
aVLorentzAngleDeconvMode
p5066
asg21
I00
sg22
Nsg4970
g0
(g358
g2
Ntp5067
Rp5068
(dp5069
g21
I00
sg49
I01
sg23
I00
sg19
(lp5070
g4938
ag4540
asg22
Nsg4938
g0
(g45
g2
Ntp5071
Rp5072
(dp5073
g21
I00
sg49
I01
sg23
I00
sg50
g4980
sbsg4540
g0
(g45
g2
Ntp5074
Rp5075
(dp5076
g21
I00
sg49
I00
sg23
I00
sg50
g59
sbsbsg23
I00
sg5065
g0
(g358
g2
Ntp5077
Rp5078
(dp5079
g21
I00
sg49
I01
sg23
I00
sg19
(lp5080
g4938
ag4540
asg22
Nsg4938
g0
(g45
g2
Ntp5081
Rp5082
(dp5083
g21
I00
sg49
I01
sg23
I00
sg50
VSiStripLorentzAngleRcd
p5084
sbsg4540
g0
(g45
g2
Ntp5085
Rp5086
(dp5087
g21
I00
sg49
I00
sg23
I00
sg50
g4995
sbsbsg5066
g0
(g358
g2
Ntp5088
Rp5089
(dp5090
g21
I00
sg49
I01
sg23
I00
sg19
(lp5091
g4938
ag4540
asg22
Nsg4938
g0
(g45
g2
Ntp5092
Rp5093
(dp5094
g21
I00
sg49
I01
sg23
I00
sg50
g5084
sbsg4540
g0
(g45
g2
Ntp5095
Rp5096
(dp5097
g21
I00
sg49
I00
sg23
I00
sg50
g5006
sbsbsg24
g1586
sg26
I55
sg27
g5059
sbsVsiStripQualityESProducer
p5098
g0
(g4129
g2
Ntp5099
Rp5100
(dp5101
g17
VSiStripQualityESProducer
p5102
sg19
(lp5103
g2929
ag4926
aVReduceGranularity
p5104
aVThresholdForReducedGranularity
p5105
aVPrintDebugOutput
p5106
aVUseEmptyRunInfo
p5107
asg21
I00
sg22
Nsg2929
g0
(g45
g2
Ntp5108
Rp5109
(dp5110
g21
I00
sg49
I01
sg23
I00
sg50
g59
sbsg23
I01
sg4926
g0
(g2897
g62
(lp5111
g0
(g358
g2
Ntp5112
Rp5113
(dp5114
g21
I00
sg49
I01
sg23
I00
sg19
(lp5115
g4938
ag4939
asg22
Nsg4938
g0
(g45
g2
Ntp5116
Rp5117
(dp5118
g21
I00
sg49
I01
sg23
I00
sg50
VSiStripDetVOffRcd
p5119
sbsg4939
g0
(g45
g2
Ntp5120
Rp5121
(dp5122
g21
I00
sg49
I01
sg23
I00
sg50
g59
sbsbag0
(g358
g2
Ntp5123
Rp5124
(dp5125
g21
I00
sg49
I01
sg23
I00
sg19
(lp5126
g4938
ag4939
asg22
Nsg4938
g0
(g45
g2
Ntp5127
Rp5128
(dp5129
g21
I00
sg49
I01
sg23
I00
sg50
VSiStripDetCablingRcd
p5130
sbsg4939
g0
(g45
g2
Ntp5131
Rp5132
(dp5133
g21
I00
sg49
I01
sg23
I00
sg50
g59
sbsbag0
(g358
g2
Ntp5134
Rp5135
(dp5136
g21
I00
sg49
I01
sg23
I00
sg19
(lp5137
g4938
ag4939
asg22
Nsg4938
g0
(g45
g2
Ntp5138
Rp5139
(dp5140
g21
I00
sg49
I01
sg23
I00
sg50
VRunInfoRcd
p5141
sbsg4939
g0
(g45
g2
Ntp5142
Rp5143
(dp5144
g21
I00
sg49
I01
sg23
I00
sg50
g59
sbsbag0
(g358
g2
Ntp5145
Rp5146
(dp5147
g21
I00
sg49
I01
sg23
I00
sg19
(lp5148
g4938
ag4939
asg22
Nsg4938
g0
(g45
g2
Ntp5149
Rp5150
(dp5151
g21
I00
sg49
I01
sg23
I00
sg50
VSiStripBadChannelRcd
p5152
sbsg4939
g0
(g45
g2
Ntp5153
Rp5154
(dp5155
g21
I00
sg49
I01
sg23
I00
sg50
g59
sbsbag0
(g358
g2
Ntp5156
Rp5157
(dp5158
g21
I00
sg49
I01
sg23
I00
sg19
(lp5159
g4938
ag4939
asg22
Nsg4938
g0
(g45
g2
Ntp5160
Rp5161
(dp5162
g21
I00
sg49
I01
sg23
I00
sg50
VSiStripBadFiberRcd
p5163
sbsg4939
g0
(g45
g2
Ntp5164
Rp5165
(dp5166
g21
I00
sg49
I01
sg23
I00
sg50
g59
sbsbag0
(g358
g2
Ntp5167
Rp5168
(dp5169
g21
I00
sg49
I01
sg23
I00
sg19
(lp5170
g4938
ag4939
asg22
Nsg4938
g0
(g45
g2
Ntp5171
Rp5172
(dp5173
g21
I00
sg49
I01
sg23
I00
sg50
VSiStripBadModuleRcd
p5174
sbsg4939
g0
(g45
g2
Ntp5175
Rp5176
(dp5177
g21
I00
sg49
I01
sg23
I00
sg50
g59
sbsbag0
(g358
g2
Ntp5178
Rp5179
(dp5180
g21
I00
sg49
I01
sg23
I00
sg19
(lp5181
g4938
ag4939
asg22
Nsg4938
g0
(g45
g2
Ntp5182
Rp5183
(dp5184
g21
I00
sg49
I01
sg23
I00
sg50
VSiStripBadStripRcd
p5185
sbsg4939
g0
(g45
g2
Ntp5186
Rp5187
(dp5188
g21
I00
sg49
I01
sg23
I00
sg50
g59
sbsbatp5189
Rp5190
(dp5191
g21
I00
sg49
I01
sg23
I00
sg760
I1
sbsg5104
g0
(g71
g2
Ntp5192
Rp5193
(dp5194
g21
I00
sg49
I01
sg23
I00
sg50
I00
sbsg5105
g0
(g406
g2
Ntp5195
Rp5196
(dp5197
g21
I00
sg49
I01
sg23
I00
sg50
F0.3
sbsg5106
g0
(g71
g2
Ntp5198
Rp5199
(dp5200
g21
I00
sg49
I01
sg23
I00
sg50
I00
sbsg5107
g0
(g71
g2
Ntp5201
Rp5202
(dp5203
g21
I00
sg49
I01
sg23
I00
sg50
I00
sbsg24
g1586
sg26
I55
sg27
g5098
sbsVsistripconn
p5204
g0
(g4129
g2
Ntp5205
Rp5206
(dp5207
g17
VSiStripConnectivity
p5208
sg19
(lp5209
sg21
I00
sg22
Nsg23
I00
sg24
g1586
sg26
I55
sg27
g5204
sbsVstripCPEESProducer
p5210
g0
(g4129
g2
Ntp5211
Rp5212
(dp5213
g17
g4745
sg19
(lp5214
g4728
ag4747
ag4748
asg21
I00
sg22
Nsg4728
g0
(g45
g2
Ntp5215
Rp5216
(dp5217
g21
I00
sg49
I01
sg23
I00
sg50
VstripCPE
p5218
sbsg23
I00
sg4747
g0
(g45
g2
Ntp5219
Rp5220
(dp5221
g21
I00
sg49
I01
sg23
I00
sg50
VSimpleStripCPE
p5222
sbsg4748
g0
(g358
g2
Ntp5223
Rp5224
(dp5225
g21
I00
sg49
I01
sg23
I00
sg19
(lp5226
sg22
Nsbsg24
g1586
sg26
I55
sg27
g5210
sbsVecalElectronicsMappingGPUESProducer
p5227
g0
(g4129
g2
Ntp5228
Rp5229
(dp5230
g17
VEcalElectronicsMappingGPUESProducer
p5231
sg19
(lp5232
g4728
ag4540
ag2929
asg21
I00
sg22
Nsg4728
g0
(g45
g2
Ntp5233
Rp5234
(dp5235
g21
I00
sg49
I01
sg23
I00
sg50
g59
sbsg23
I00
sg4540
g0
(g45
g2
Ntp5236
Rp5237
(dp5238
g21
I00
sg49
I01
sg23
I00
sg50
g59
sbsg2929
g0
(g45
g2
Ntp5239
Rp5240
(dp5241
g21
I00
sg49
I01
sg23
I00
sg50
g59
sbsg24
g1586
sg26
I55
sg27
g5227
sbssV_Process__esprefers
p5242
(dp5243
Ves_prefer_hcalHardcode
p5244
g0
(cFWCore.ParameterSet.Modules
ESPrefer
p5245
g2
Ntp5246
Rp5247
(dp5248
g17
g3098
sg19
(lp5249
sg21
I00
sg22
Nsg23
I00
sg24
g1586
sg26
I91
sV_targetLabel
p5250
g3094
sg27
g5244
sbssV_Process__aliases
p5251
(dp5252
sV_Process__psets
p5253
(dp5254
VmaxLuminosityBlocks
p5255
g0
(g358
g2
Ntp5256
Rp5257
(dp5258
g21
I00
sg49
I00
sg23
I00
sg19
(lp5259
Vinput
p5260
asg22
Nsg5260
g0
(g75
g2
Ntp5261
Rp5262
(dp5263
g21
I00
sg49
I00
sg23
I00
sg50
I-1
sbsg27
g5255
sbsVoptions
p5264
g0
(g358
g2
Ntp5265
Rp5266
(dp5267
g21
I00
sg49
I00
sg23
I01
sg19
(lp5268
VnumberOfThreads
p5269
aVnumberOfStreams
p5270
aVnumberOfConcurrentRuns
p5271
aVnumberOfConcurrentLuminosityBlocks
p5272
aVeventSetup
p5273
aVaccelerators
p5274
aVwantSummary
p5275
aVfileMode
p5276
aVforceEventSetupCacheClearOnNewRun
p5277
aVthrowIfIllegalParameter
p5278
aVprintDependencies
p5279
aVdeleteNonConsumedUnscheduledModules
p5280
aVsizeOfStackForThreadsInKB
p5281
aVRethrow
p5282
aVSkipEvent
p5283
aVFailPath
p5284
aVIgnoreCompletely
p5285
aVcanDeleteEarly
p5286
aVholdsReferencesToDeleteEarly
p5287
aVmodulesToIgnoreForDeleteEarly
p5288
aVdumpOptions
p5289
aVallowUnscheduled
p5290
aVemptyRunLumiMode
p5291
aVmakeTriggerResults
p5292
asg22
Nsg5269
g0
(g67
g2
Ntp5293
Rp5294
(dp5295
g21
I00
sg49
I00
sg23
I00
sg50
I1
sbsg5270
g0
(g67
g2
Ntp5296
Rp5297
(dp5298
g21
I00
sg49
I00
sg23
I00
sg50
I0
sbsg5271
g0
(g67
g2
Ntp5299
Rp5300
(dp5301
g21
I00
sg49
I00
sg23
I00
sg50
I1
sbsg5272
g0
(g67
g2
Ntp5302
Rp5303
(dp5304
g21
I00
sg49
I00
sg23
I00
sg50
I0
sbsg5273
g0
(g358
g2
Ntp5305
Rp5306
(dp5307
g21
I00
sg49
I00
sg23
I00
sg19
(lp5308
VnumberOfConcurrentIOVs
p5309
aVforceNumberOfConcurrentIOVs
p5310
asg22
Nsg5309
g0
(g67
g2
Ntp5311
Rp5312
(dp5313
g21
I00
sg49
I00
sg23
I00
sg50
I0
sbsg5310
g0
(g358
g2
Ntp5314
Rp5315
(dp5316
g21
I00
sg49
I00
sg23
I00
sg19
(lp5317
sg22
g0
(cFWCore.ParameterSet.Types
_RequiredParameter
p5318
g2
Ntp5319
Rp5320
(dp5321
g21
I00
sg49
I00
sg23
I00
sg448
g67
sg450
Nsbsbsbsg5274
g0
(g449
g62
(lp5322
V*
p5323
atp5324
Rp5325
(dp5326
g21
I00
sg49
I00
sg23
I00
sg760
I1
sbsg5275
g0
(g71
g2
Ntp5327
Rp5328
(dp5329
g21
I00
sg49
I00
sg23
I00
sg50
I00
sbsg5276
g0
(g45
g2
Ntp5330
Rp5331
(dp5332
g21
I00
sg49
I00
sg23
I00
sg50
VFULLMERGE
p5333
sbsg5277
g0
(g71
g2
Ntp5334
Rp5335
(dp5336
g21
I00
sg49
I00
sg23
I00
sg50
I00
sbsg5278
g0
(g71
g2
Ntp5337
Rp5338
(dp5339
g21
I00
sg49
I00
sg23
I00
sg50
I01
sbsg5279
g0
(g71
g2
Ntp5340
Rp5341
(dp5342
g21
I00
sg49
I00
sg23
I00
sg50
I00
sbsg5280
g0
(g71
g2
Ntp5343
Rp5344
(dp5345
g21
I00
sg49
I00
sg23
I00
sg50
I01
sbsg5281
g0
(g444
g2
Ntp5346
Rp5347
(dp5348
g21
I00
sg49
I00
sg23
I00
sg448
g67
sg450
Nsbsg5282
g0
(g449
g62
(lp5349
tp5350
Rp5351
(dp5352
g21
I00
sg49
I00
sg23
I00
sg760
I1
sbsg5283
g0
(g449
g62
(lp5353
tp5354
Rp5355
(dp5356
g21
I00
sg49
I00
sg23
I00
sg760
I1
sbsg5284
g0
(g449
g62
(lp5357
tp5358
Rp5359
(dp5360
g21
I00
sg49
I00
sg23
I00
sg760
I1
sbsg5285
g0
(g449
g62
(lp5361
tp5362
Rp5363
(dp5364
g21
I00
sg49
I00
sg23
I00
sg760
I1
sbsg5286
g0
(g449
g62
(lp5365
tp5366
Rp5367
(dp5368
g21
I00
sg49
I00
sg23
I00
sg760
I1
sbsg5287
g0
(g2897
g62
(lp5369
tp5370
Rp5371
(dp5372
g21
I00
sg49
I00
sg23
I00
sg760
I1
sbsg5288
g0
(g449
g62
(lp5373
tp5374
Rp5375
(dp5376
g21
I00
sg49
I00
sg23
I00
sg760
I1
sbsg5289
g0
(g71
g2
Ntp5377
Rp5378
(dp5379
g21
I00
sg49
I00
sg23
I00
sg50
I00
sbsg5290
g0
(cFWCore.ParameterSet.Types
_ObsoleteParameter
p5380
g2
Ntp5381
Rp5382
(dp5383
g21
I00
sg49
I00
sg23
I00
sg448
g71
sg450
Nsbsg5291
g0
(g5380
g2
Ntp5384
Rp5385
(dp5386
g21
I00
sg49
I00
sg23
I00
sg448
g45
sg450
Nsbsg5292
g0
(g5380
g2
Ntp5387
Rp5388
(dp5389
g21
I00
sg49
I00
sg23
I00
sg448
g71
sg450
Nsbsg27
g5264
sbsVnanoDQMIO_perLSoutput
p5390
g0
(g358
g2
Ntp5391
Rp5392
(dp5393
g21
I00
sg49
I01
sg23
I00
sg19
(lp5394
g2333
asg22
Nsg2333
g0
(g449
g62
(lp5395
g2344
ag2345
ag2346
ag2347
ag2348
ag2349
ag2350
ag2351
ag2352
ag2353
ag2354
ag2355
ag2356
ag2357
ag2358
ag2359
ag2360
ag2361
ag2362
ag2363
ag2364
ag2365
ag2366
ag2367
ag2368
ag2369
ag2370
ag2371
ag2372
ag2373
ag2374
ag2375
ag2376
ag2377
ag2378
ag2379
ag2380
ag2381
ag2382
ag2383
ag2384
ag2385
ag2386
ag2387
ag2388
ag2389
ag2390
ag2391
ag2392
ag2393
ag2394
ag2395
ag2396
ag2397
ag2398
ag2399
ag2400
ag2401
ag2402
ag2403
ag2404
ag2405
ag2406
ag2407
ag2408
ag2409
ag2410
ag2411
ag2412
ag2413
ag2414
ag2415
ag2416
ag2417
ag2418
ag2419
ag2420
ag2421
ag2422
ag2423
ag2424
ag2425
ag2426
ag2427
ag2428
ag2429
ag2430
ag2431
ag2432
ag2433
ag2434
ag2435
ag2436
ag2437
ag2438
ag2439
ag2440
ag2441
ag2442
ag2443
ag2444
ag2445
ag2446
ag2447
ag2448
ag2449
ag2450
ag2451
ag2452
ag2453
ag2454
ag2455
ag2456
ag2457
ag2458
ag2459
ag2460
ag2461
ag2462
ag2463
ag2464
ag2465
ag2466
ag2467
ag2468
ag2469
ag2470
ag2471
ag2472
ag2473
ag2474
ag2475
ag2476
ag2477
ag2478
ag2479
ag2480
ag2481
ag2482
ag2483
ag2484
ag2485
ag2486
ag2487
ag2488
ag2489
ag2490
ag2491
ag2492
ag2493
ag2494
ag2495
ag2496
ag2497
ag2498
ag2499
ag2500
ag2501
ag2502
ag2503
ag2504
ag2505
ag2506
ag2507
ag2508
atp5396
Rp5397
(dp5398
g21
I00
sg49
I00
sg23
I00
sg760
I1
sbsg27
g5390
sbsVCondDB
p5399
g0
(g358
g2
Ntp5400
Rp5401
(dp5402
g21
I00
sg49
I01
sg23
I00
sg19
(lp5403
g2850
ag2851
asg22
Nsg2850
g0
(g358
g2
Ntp5404
Rp5405
(dp5406
g21
I00
sg49
I01
sg23
I00
sg19
(lp5407
g2866
ag2867
ag2868
ag2869
ag2870
asg22
Nsg2866
g0
(g45
g2
Ntp5408
Rp5409
(dp5410
g21
I00
sg49
I00
sg23
I00
sg50
g59
sbsg2867
g0
(g75
g2
Ntp5411
Rp5412
(dp5413
g21
I00
sg49
I00
sg23
I00
sg50
I0
sbsg2868
g0
(g45
g2
Ntp5414
Rp5415
(dp5416
g21
I00
sg49
I00
sg23
I00
sg50
g59
sbsg2869
g0
(g75
g2
Ntp5417
Rp5418
(dp5419
g21
I00
sg49
I00
sg23
I00
sg50
I0
sbsg2870
g0
(g75
g2
Ntp5420
Rp5421
(dp5422
g21
I00
sg49
I00
sg23
I00
sg50
I0
sbsbsg2851
g0
(g45
g2
Ntp5423
Rp5424
(dp5425
g21
I00
sg49
I01
sg23
I00
sg50
g59
sbsg27
g5399
sbsg3108
g3159
sVmaxEvents
p5426
g0
(g358
g2
Ntp5427
Rp5428
(dp5429
g21
I00
sg49
I00
sg23
I01
sg19
(lp5430
g5260
ag2295
asg22
Nsg5260
g0
(g75
g2
Ntp5431
Rp5432
(dp5433
g21
I00
sg49
I00
sg23
I00
sg50
I2
sbsg2295
g0
(g444
g2
Ntp5434
Rp5435
(dp5436
g21
I00
sg49
I00
sg23
I00
sg448
g0
(cFWCore.ParameterSet.Types
_AllowedParameterTypes
p5437
g2
Ntp5438
Rp5439
(dp5440
V_AllowedParameterTypes__types
p5441
(g75
g358
tp5442
sV_AllowedParameterTypes__value
p5443
NsV__name__
p5444
Vallowed(cms.int32,cms.PSet)
p5445
sbsg450
Nsbsg27
g5426
sbssV_Process__vpsets
p5446
(dp5447
sV_cloneToObjectDict
p5448
(dp5449
L140197785129600L
g0
(g358
g2
Ntp5450
Rp5451
(dp5452
g21
I00
sg49
I00
sg23
I01
sg19
(lp5453
g5269
ag5270
ag5271
ag5272
ag5273
ag5274
ag5275
ag5276
ag5277
ag5278
ag5279
ag5280
ag5281
ag5282
ag5283
ag5284
ag5285
ag5286
ag5287
ag5288
ag5289
ag5290
ag5291
ag5292
asg22
Nsg5269
g0
(g67
g2
Ntp5454
Rp5455
(dp5456
g21
I00
sg49
I00
sg23
I00
sg50
I1
sbsg5270
g0
(g67
g2
Ntp5457
Rp5458
(dp5459
g21
I00
sg49
I00
sg23
I00
sg50
I0
sbsg5271
g0
(g67
g2
Ntp5460
Rp5461
(dp5462
g21
I00
sg49
I00
sg23
I00
sg50
I1
sbsg5272
g0
(g67
g2
Ntp5463
Rp5464
(dp5465
g21
I00
sg49
I00
sg23
I00
sg50
I0
sbsg5273
g0
(g358
g2
Ntp5466
Rp5467
(dp5468
g21
I00
sg49
I00
sg23
I00
sg19
(lp5469
g5309
ag5310
asg22
Nsg5309
g0
(g67
g2
Ntp5470
Rp5471
(dp5472
g21
I00
sg49
I00
sg23
I00
sg50
I0
sbsg5310
g0
(g358
g2
Ntp5473
Rp5474
(dp5475
g21
I00
sg49
I00
sg23
I00
sg19
(lp5476
sg22
g0
(g5318
g2
Ntp5477
Rp5478
(dp5479
g21
I00
sg49
I00
sg23
I00
sg448
g67
sg450
Nsbsbsbsg5274
g0
(g449
g62
(lp5480
g5323
atp5481
Rp5482
(dp5483
g21
I00
sg49
I00
sg23
I00
sg760
I1
sbsg5275
g0
(g71
g2
Ntp5484
Rp5485
(dp5486
g21
I00
sg49
I00
sg23
I00
sg50
I00
sbsg5276
g0
(g45
g2
Ntp5487
Rp5488
(dp5489
g21
I00
sg49
I00
sg23
I00
sg50
g5333
sbsg5277
g0
(g71
g2
Ntp5490
Rp5491
(dp5492
g21
I00
sg49
I00
sg23
I00
sg50
I00
sbsg5278
g0
(g71
g2
Ntp5493
Rp5494
(dp5495
g21
I00
sg49
I00
sg23
I00
sg50
I01
sbsg5279
g0
(g71
g2
Ntp5496
Rp5497
(dp5498
g21
I00
sg49
I00
sg23
I00
sg50
I00
sbsg5280
g0
(g71
g2
Ntp5499
Rp5500
(dp5501
g21
I00
sg49
I00
sg23
I00
sg50
I01
sbsg5281
g0
(g444
g2
Ntp5502
Rp5503
(dp5504
g21
I00
sg49
I00
sg23
I00
sg448
g67
sg450
Nsbsg5282
g0
(g449
g62
(lp5505
tp5506
Rp5507
(dp5508
g21
I00
sg49
I00
sg23
I00
sg760
I1
sbsg5283
g0
(g449
g62
(lp5509
tp5510
Rp5511
(dp5512
g21
I00
sg49
I00
sg23
I00
sg760
I1
sbsg5284
g0
(g449
g62
(lp5513
tp5514
Rp5515
(dp5516
g21
I00
sg49
I00
sg23
I00
sg760
I1
sbsg5285
g0
(g449
g62
(lp5517
tp5518
Rp5519
(dp5520
g21
I00
sg49
I00
sg23
I00
sg760
I1
sbsg5286
g0
(g449
g62
(lp5521
tp5522
Rp5523
(dp5524
g21
I00
sg49
I00
sg23
I00
sg760
I1
sbsg5287
g0
(g2897
g62
(lp5525
tp5526
Rp5527
(dp5528
g21
I00
sg49
I00
sg23
I00
sg760
I1
sbsg5288
g0
(g449
g62
(lp5529
tp5530
Rp5531
(dp5532
g21
I00
sg49
I00
sg23
I00
sg760
I1
sbsg5289
g0
(g71
g2
Ntp5533
Rp5534
(dp5535
g21
I00
sg49
I00
sg23
I00
sg50
I00
sbsg5290
g0
(g5380
g2
Ntp5536
Rp5537
(dp5538
g21
I00
sg49
I00
sg23
I00
sg448
g71
sg450
Nsbsg5291
g0
(g5380
g2
Ntp5539
Rp5540
(dp5541
g21
I00
sg49
I00
sg23
I00
sg448
g45
sg450
Nsbsg5292
g0
(g5380
g2
Ntp5542
Rp5543
(dp5544
g21
I00
sg49
I00
sg23
I00
sg448
g71
sg450
Nsbsg27
NsbsL140197758024096L
g0
(g358
g2
Ntp5545
Rp5546
(dp5547
g21
I00
sg49
I00
sg23
I01
sg19
(lp5548
g5260
ag2295
asg22
Nsg5260
g0
(g444
g2
Ntp5549
Rp5550
(dp5551
g21
I00
sg49
I00
sg23
I00
sg448
g75
sg450
Nsbsg2295
g0
(g444
g2
Ntp5552
Rp5553
(dp5554
g21
I00
sg49
I00
sg23
I00
sg448
g0
(g5437
g2
Ntp5555
Rp5556
(dp5557
g5441
(g75
g358
tp5558
sg5443
Nsg5444
Vallowed(cms.int32,cms.PSet)
p5559
sbsg450
Nsbsg27
NsbsL140197785294640L
g5257
sL140197754664848L
g5266
sL140197754497152L
g2814
sL140197756058160L
g5392
sL140197786195040L
g15
sL140197754244736L
g4131
sL140197754751920L
g4175
sL140197754243920L
g4192
sL140197754000768L
g4197
sL140197754002256L
g4205
sL140197753996960L
g4210
sL140197758167456L
g4218
sL140197754001584L
g4255
sL140197754751440L
g4263
sL140197754002160L
g4268
sL140197754001872L
g4276
sL140197754243872L
g4284
sL140197786432512L
g4294
sL140197754000816L
g4299
sL140197754752736L
g4304
sL140197786432080L
g4312
sL140197754244496L
g4317
sL140197754243632L
g4328
sL140197754002736L
g4337
sL140197753995520L
g2825
sL140197753998160L
g4345
sL140197753996384L
g4356
sL140197753996192L
g4365
sL140197753999568L
g4374
sL140197753998352L
g4391
sL140197753995808L
g4428
sL140197753996720L
g4458
sL140197754750624L
g4477
sL140197786431744L
g4489
sL140197786432896L
g4506
sL140197786434192L
g4521
sL140197754004288L
g4530
sL140197754004624L
g4535
sL140197756174000L
g4551
sL140197787668688L
g4563
sL140197754003664L
g4580
sL140197753994688L
g4596
sL140197756601488L
g4611
sL140197756600624L
g4620
sL140197756173136L
g4632
sL140197751731728L
g4700
sL140197786401664L
g5401
sL140197754020864L
g4708
sL140197754021584L
g4717
sL140197754020000L
g2846
sL140197787612112L
g3159
sL140197787612352L
g2926
sL140197751819328L
g4725
sL140197751818464L
g4743
sL140197751867952L
g4815
sL140197751868480L
g4880
sL140197751731440L
g3096
sL140197751731680L
g5247
sL140197754023456L
g4896
sL140197751852048L
g4911
sL140197751852240L
g4920
sL140197751762608L
g4966
sL140197751760928L
g5009
sL140197751761696L
g5061
sL140197751850464L
g5100
sL140197751758912L
g5206
sL140197751817408L
g5212
sL140197750993440L
g30
sL140197751034208L
g97
sL140197750873824L
g125
sL140197750965104L
g142
sL140197750964624L
g181
sL140197751035072L
g211
sL140197751246080L
g238
sL140197751355520L
g305
sL140197750596032L
g337
sL140197750652016L
g422
sL140197751355376L
g454
sL140197751551216L
g1582
sL140197751113808L
g468
sL140197751114624L
g5229
sL140197751849936L
g503
sL140197750996608L
g534
sL140197751355088L
g561
sL140197751035504L
g604
sL140197750880240L
g621
sL140197750921680L
g650
sL140197751035696L
g674
sL140197751036080L
g691
sL140197756602016L
g708
sL140197750680304L
g789
sL140197750680448L
g804
sL140197751865408L
g828
sL140197754020816L
g921
sL140197751275184L
g1000
sL140197751179536L
g1036
sL140197750996128L
g1052
sL140197751323952L
g1066
sL140197751354512L
g1079
sL140197750966880L
g1091
sL140197750966448L
g1139
sL140197751288400L
g1164
sL140197751353600L
g1179
sL140197751869344L
g1193
sL140197751869296L
g1225
sL140197751390416L
g1677
sL140197751865744L
g1239
sL140197751551072L
g1251
sL140197751552752L
g1306
sL140197751291424L
g1345
sL140197751307856L
g1357
sL140197750611776L
g3788
sL140197750634528L
g3915
sL140197750597760L
g3950
sL140197751072032L
g4015
sL140197751072608L
g1369
sL140197750650000L
g1433
sL140197750633760L
g1497
sL140197751036320L
g1549
sL140197750873104L
g1836
sL140197751354560L
g1870
sL140197750678624L
g1922
sL140197750679008L
g1944
sL140197750651248L
g1964
sL140197750678240L
g1994
sL140197750597952L
g2015
sL140197751355808L
g1845
sL140197750921632L
g1853
sL140197750965680L
g2041
sL140197750965824L
g2057
sL140197751307712L
g1878
sL140197750678432L
g1930
sL140197750678816L
g1952
sL140197750677952L
g1972
sL140197750677664L
g2002
sL140197750597520L
g2023
sL140197751551360L
g1895
sL140197751868768L
g1907
sL140197756601968L
g5428
sL140197750703248L
g1769
sL140197750703920L
g1797
ssV_Process__InExtendCall
p5560
I00
sV_Process__partialschedules
p5561
(dp5562
sV_Process__isStrict
p5563
I00
sV_Process__modifiers
p5564
(tsV_Process__accelerators
p5565
(dp5566
sg5255
g5257
sg2080
g2083
sg5264
g5266
sg2327
g2329
sg2811
g2814
sg2521
g2523
sg5390
g5392
sg12
g15
sg4128
g4131
sg4173
g4175
sg4190
g4192
sg4195
g4197
sg4203
g4205
sg4208
g4210
sg4216
g4218
sg4253
g4255
sg4261
g4263
sg4266
g4268
sg4274
g4276
sg4282
g4284
sg4292
g4294
sg4297
g4299
sg4302
g4304
sg4310
g4312
sg4315
g4317
sg4326
g4328
sg4335
g4337
sg2823
g2825
sg4343
g4345
sg4354
g4356
sg4363
g4365
sg4372
g4374
sg4389
g4391
sg4426
g4428
sg4456
g4458
sg4475
g4477
sg4487
g4489
sg4504
g4506
sg4519
g4521
sg4528
g4530
sg4533
g4535
sg4549
g4551
sg4561
g4563
sg4578
g4580
sg4594
g4596
sg4609
g4611
sg4618
g4620
sg4630
g4632
sg4698
g4700
sg5399
g5401
sg4706
g4708
sg4715
g4717
sg2844
g2846
sg3108
g3159
sg2924
g2926
sg4723
g4725
sg4741
g4743
sg4813
g4815
sg4878
g4880
sg3094
g3096
sg5244
g5247
sg4894
g4896
sg4909
g4911
sg4918
g4920
sg4964
g4966
sg5007
g5009
sg5059
g5061
sg5098
g5100
sg5204
g5206
sg5210
g5212
sg28
g30
sg95
g97
sg123
g125
sg140
g142
sg179
g181
sg209
g211
sg236
g238
sg303
g305
sg335
g337
sg420
g422
sg452
g454
sg1579
g1582
sg466
g468
sg5227
g5229
sg501
g503
sg532
g534
sg559
g561
sg602
g604
sg619
g621
sg648
g650
sg672
g674
sg689
g691
sg706
g708
sg787
g789
sg802
g804
sg826
g828
sg919
g921
sg998
g1000
sg1034
g1036
sg1050
g1052
sg1064
g1066
sg1077
g1079
sg1089
g1091
sg1137
g1139
sg1162
g1164
sg1177
g1179
sg1191
g1193
sg1205
g1225
sg1675
g1677
sg1237
g1239
sg1249
g1251
sg1304
g1306
sg1343
g1345
sg1355
g1357
sg3786
g3788
sg3913
g3915
sg3948
g3950
sg4013
g4015
sg1367
g1369
sg1431
g1433
sg1495
g1497
sg1547
g1549
sg32
g1836
sg345
g1870
sg1920
g1922
sg1942
g1944
sg1962
g1964
sg1992
g1994
sg2013
g2015
sg1867
g1845
sg1865
g1853
sg2039
g2041
sg2055
g2057
sg1918
g1878
sg1940
g1930
sg1960
g1952
sg1990
g1972
sg2011
g2002
sg2035
g2023
sg1903
g1895
sg1915
g1907
sg5426
g5428
sVsource
p5567
g1750
sg1752
g1750
sg1766
g1769
sg2799
g2801
sg1794
g1797
sb.