ccopy_reg
_reconstructor
p0
(cFWCore.ParameterSet.Config
Process
p1
c__builtin__
object
p2
Ntp3
Rp4
(dp5
V_Process__name
p6
VDemo
p7
sV_Process__filters
p8
(dp9
sV_Process__producers
p10
(dp11
VrandomEngineStateProducer
p12
g0
(cFWCore.ParameterSet.Modules
EDProducer
p13
g2
Ntp14
Rp15
(dp16
V_TypedParameterizable__type
p17
VRandomEngineStateProducer
p18
sV_Parameterizable__parameterNames
p19
(lp20
sV_isFrozen
p21
I00
sV_Parameterizable__validator
p22
NsV_isModified
p23
I00
sV_filename
p24
V/cvmfs/cms.cern.ch/slc7_amd64_gcc10/cms/cmssw/CMSSW_12_4_7/python/IOMC/RandomEngine/IOMC_cff.py
p25
sV_lineNumber
p26
I172
sV_Labelable__label
p27
g12
sbsVbmtfDigis
p28
g0
(g13
g2
Ntp29
Rp30
(dp31
g17
VL1TRawToDigi
p32
sg19
(lp33
VSetup
p34
aVInputLabel
p35
aVFedIds
p36
aVFWId
p37
aVFWOverride
p38
aVlenSlinkHeader
p39
aVlenSlinkTrailer
p40
aVlenAMCHeader
p41
aVlenAMCTrailer
p42
aVlenAMC13Header
p43
aVlenAMC13Trailer
p44
asg21
I00
sg22
Nsg34
g0
(cFWCore.ParameterSet.Types
string
p45
g2
Ntp46
Rp47
(dp48
g21
I00
sV_ParameterTypeBase__isTracked
p49
I01
sg23
I00
sV_value
p50
Vstage2::BMTFSetup
p51
sbsg23
I00
sg35
g0
(cFWCore.ParameterSet.Types
InputTag
p52
g2
Ntp53
Rp54
(dp55
g21
I00
sg49
I01
sg23
I00
sV_InputTag__moduleLabel
p56
VrawDataCollector
p57
sV_InputTag__productInstance
p58
V
p59
sV_InputTag__processName
p60
g59
sbsg36
g0
(cFWCore.ParameterSet.Types
vint32
p61
c__builtin__
list
p62
(lp63
I1376
aI1377
atp64
Rp65
(dp66
g21
I00
sg49
I01
sg23
I00
sbsg37
g0
(cFWCore.ParameterSet.Types
uint32
p67
g2
Ntp68
Rp69
(dp70
g21
I00
sg49
I01
sg23
I00
sg50
I1
sbsg38
g0
(cFWCore.ParameterSet.Types
bool
p71
g2
Ntp72
Rp73
(dp74
g21
I00
sg49
I01
sg23
I00
sg50
I00
sbsg39
g0
(cFWCore.ParameterSet.Types
int32
p75
g2
Ntp76
Rp77
(dp78
g21
I00
sg49
I00
sg23
I00
sg50
I8
sbsg40
g0
(g75
g2
Ntp79
Rp80
(dp81
g21
I00
sg49
I00
sg23
I00
sg50
I8
sbsg41
g0
(g75
g2
Ntp82
Rp83
(dp84
g21
I00
sg49
I00
sg23
I00
sg50
I8
sbsg42
g0
(g75
g2
Ntp85
Rp86
(dp87
g21
I00
sg49
I00
sg23
I00
sg50
I0
sbsg43
g0
(g75
g2
Ntp88
Rp89
(dp90
g21
I00
sg49
I00
sg23
I00
sg50
I8
sbsg44
g0
(g75
g2
Ntp91
Rp92
(dp93
g21
I00
sg49
I00
sg23
I00
sg50
I8
sbsg24
V/cvmfs/cms.cern.ch/slc7_amd64_gcc10/cms/cmssw/CMSSW_12_4_7/python/EventFilter/L1TRawToDigi/bmtfDigis_cfi.py
p94
sg26
I3
sg27
g28
sbsVcaloLayer1Digis
p95
g0
(g13
g2
Ntp96
Rp97
(dp98
g17
g32
sg19
(lp99
g34
ag35
ag36
ag37
aVdebug
p100
aVCTP7
p101
asg21
I00
sg22
Nsg34
g0
(g45
g2
Ntp102
Rp103
(dp104
g21
I00
sg49
I01
sg23
I00
sg50
Vstage2::CaloLayer1Setup
p105
sbsg23
I00
sg35
g0
(g52
g2
Ntp106
Rp107
(dp108
g21
I00
sg49
I01
sg23
I00
sg56
g57
sg58
g59
sg60
g59
sbsg36
g0
(g61
g62
(lp109
I1354
aI1356
aI1358
atp110
Rp111
(dp112
g21
I00
sg49
I01
sg23
I00
sbsg37
g0
(g67
g2
Ntp113
Rp114
(dp115
g21
I00
sg49
I01
sg23
I00
sg50
I305419896
sbsg100
g0
(g71
g2
Ntp116
Rp117
(dp118
g21
I00
sg49
I00
sg23
I00
sg50
I00
sbsg101
g0
(g71
g2
Ntp119
Rp120
(dp121
g21
I00
sg49
I00
sg23
I00
sg50
I01
sbsg24
V/cvmfs/cms.cern.ch/slc7_amd64_gcc10/cms/cmssw/CMSSW_12_4_7/python/EventFilter/L1TRawToDigi/caloLayer1Digis_cfi.py
p122
sg26
I3
sg27
g95
sbsVcaloStage1Digis
p123
g0
(g13
g2
Ntp124
Rp125
(dp126
g17
g32
sg19
(lp127
g35
ag34
ag36
asg21
I00
sg22
Nsg35
g0
(g52
g2
Ntp128
Rp129
(dp130
g21
I00
sg49
I01
sg23
I00
sg56
g57
sg58
g59
sg60
g59
sbsg23
I00
sg34
g0
(g45
g2
Ntp131
Rp132
(dp133
g21
I00
sg49
I01
sg23
I00
sg50
Vstage1::CaloSetup
p134
sbsg36
g0
(g61
g62
(lp135
I1352
atp136
Rp137
(dp138
g21
I00
sg49
I01
sg23
I00
sbsg24
V/cvmfs/cms.cern.ch/slc7_amd64_gcc10/cms/cmssw/CMSSW_12_4_7/python/EventFilter/L1TRawToDigi/caloStage1Digis_cfi.py
p139
sg26
I3
sg27
g123
sbsVcaloStage1FinalDigis
p140
g0
(g13
g2
Ntp141
Rp142
(dp143
g17
VL1TPhysicalEtAdder
p144
sg19
(lp145
VInputCollection
p146
aVInputRlxTauCollection
p147
aVInputIsoTauCollection
p148
aVInputPreGtJetCollection
p149
aVInputHFSumsCollection
p150
aVInputHFCountsCollection
p151
asg21
I00
sg22
Nsg146
g0
(g52
g2
Ntp152
Rp153
(dp154
g21
I00
sg49
I01
sg23
I00
sg56
g123
sg58
g59
sg60
g59
sbsg23
I00
sg147
g0
(g52
g2
Ntp155
Rp156
(dp157
g21
I00
sg49
I01
sg23
I00
sg56
VcaloStage1Digis
p158
sg58
VrlxTaus
p159
sg60
g59
sbsg148
g0
(g52
g2
Ntp160
Rp161
(dp162
g21
I00
sg49
I01
sg23
I00
sg56
VcaloStage1Digis
p163
sg58
VisoTaus
p164
sg60
g59
sbsg149
g0
(g52
g2
Ntp165
Rp166
(dp167
g21
I00
sg49
I01
sg23
I00
sg56
g123
sg58
g59
sg60
g59
sbsg150
g0
(g52
g2
Ntp168
Rp169
(dp170
g21
I00
sg49
I01
sg23
I00
sg56
VcaloStage1Digis
p171
sg58
VHFRingSums
p172
sg60
g59
sbsg151
g0
(g52
g2
Ntp173
Rp174
(dp175
g21
I00
sg49
I01
sg23
I00
sg56
VcaloStage1Digis
p176
sg58
VHFBitCounts
p177
sg60
g59
sbsg24
V/cvmfs/cms.cern.ch/slc7_amd64_gcc10/cms/cmssw/CMSSW_12_4_7/python/L1Trigger/L1TCalorimeter/caloStage1FinalDigis_cfi.py
p178
sg26
I3
sg27
g140
sbsVcaloStage1LegacyFormatDigis
p179
g0
(g13
g2
Ntp180
Rp181
(dp182
g17
VL1TCaloUpgradeToGCTConverter
p183
sg19
(lp184
g146
ag147
ag148
ag150
ag151
asg21
I00
sg22
Nsg146
g0
(g52
g2
Ntp185
Rp186
(dp187
g21
I00
sg49
I01
sg23
I00
sg56
g123
sg58
g59
sg60
g59
sbsg23
I00
sg147
g0
(g52
g2
Ntp188
Rp189
(dp190
g21
I00
sg49
I01
sg23
I00
sg56
VcaloStage1Digis
p191
sg58
VrlxTaus
p192
sg60
g59
sbsg148
g0
(g52
g2
Ntp193
Rp194
(dp195
g21
I00
sg49
I01
sg23
I00
sg56
VcaloStage1Digis
p196
sg58
VisoTaus
p197
sg60
g59
sbsg150
g0
(g52
g2
Ntp198
Rp199
(dp200
g21
I00
sg49
I01
sg23
I00
sg56
VcaloStage1Digis
p201
sg58
VHFRingSums
p202
sg60
g59
sbsg151
g0
(g52
g2
Ntp203
Rp204
(dp205
g21
I00
sg49
I01
sg23
I00
sg56
VcaloStage1Digis
p206
sg58
VHFBitCounts
p207
sg60
g59
sbsg24
V/cvmfs/cms.cern.ch/slc7_amd64_gcc10/cms/cmssw/CMSSW_12_4_7/python/L1Trigger/L1TCalorimeter/caloStage1LegacyFormatDigis_cfi.py
p208
sg26
I3
sg27
g179
sbsVcaloStage2Digis
p209
g0
(g13
g2
Ntp210
Rp211
(dp212
g17
g32
sg19
(lp213
g35
ag34
ag36
ag37
ag38
aVTMTCheck
p214
asg21
I00
sg22
Nsg35
g0
(g52
g2
Ntp215
Rp216
(dp217
g21
I00
sg49
I01
sg23
I00
sg56
g57
sg58
g59
sg60
g59
sbsg23
I00
sg34
g0
(g45
g2
Ntp218
Rp219
(dp220
g21
I00
sg49
I01
sg23
I00
sg50
Vstage2::CaloSetup
p221
sbsg36
g0
(g61
g62
(lp222
I1360
aI1366
atp223
Rp224
(dp225
g21
I00
sg49
I01
sg23
I00
sbsg37
g0
(g67
g2
Ntp226
Rp227
(dp228
g21
I00
sg49
I01
sg23
I00
sg50
I0
sbsg38
g0
(g71
g2
Ntp229
Rp230
(dp231
g21
I00
sg49
I01
sg23
I00
sg50
I00
sbsg214
g0
(g71
g2
Ntp232
Rp233
(dp234
g21
I00
sg49
I01
sg23
I00
sg50
I01
sbsg24
V/cvmfs/cms.cern.ch/slc7_amd64_gcc10/cms/cmssw/CMSSW_12_4_7/python/EventFilter/L1TRawToDigi/caloStage2Digis_cfi.py
p235
sg26
I3
sg27
g209
sbsVcastorDigis
p236
g0
(g13
g2
Ntp237
Rp238
(dp239
g17
VCastorRawToDigi
p240
sg19
(lp241
VFilterDataQuality
p242
aVCastorFirstFED
p243
aVZDCFirstFED
p244
aVFEDs
p245
aVExceptionEmptyData
p246
aVComplainEmptyData
p247
aVfirstSample
p248
aVlastSample
p249
aVUnpackTTP
p250
aVsilent
p251
ag35
aVCastorCtdc
p252
aVUseNominalOrbitMessageTime
p253
aVExpectedOrbitMessageTime
p254
aVUnpackZDC
p255
asg21
I00
sg22
Nsg242
g0
(g71
g2
Ntp256
Rp257
(dp258
g21
I00
sg49
I01
sg23
I00
sg50
I01
sbsg23
I01
sg243
g0
(g75
g2
Ntp259
Rp260
(dp261
g21
I00
sg49
I01
sg23
I00
sg50
I690
sbsg244
g0
(g75
g2
Ntp262
Rp263
(dp264
g21
I00
sg49
I01
sg23
I00
sg50
I693
sbsg245
g0
(g61
g62
(lp265
I690
aI691
aI692
aI693
aI722
atp266
Rp267
(dp268
g21
I00
sg49
I00
sg23
I00
sbsg246
g0
(g71
g2
Ntp269
Rp270
(dp271
g21
I00
sg49
I00
sg23
I00
sg50
I00
sbsg247
g0
(g71
g2
Ntp272
Rp273
(dp274
g21
I00
sg49
I00
sg23
I00
sg50
I00
sbsg248
g0
(g75
g2
Ntp275
Rp276
(dp277
g21
I00
sg49
I01
sg23
I00
sg50
I0
sbsg249
g0
(g75
g2
Ntp278
Rp279
(dp280
g21
I00
sg49
I01
sg23
I00
sg50
I9
sbsg250
g0
(g71
g2
Ntp281
Rp282
(dp283
g21
I00
sg49
I01
sg23
I00
sg50
I01
sbsg251
g0
(g71
g2
Ntp284
Rp285
(dp286
g21
I00
sg49
I00
sg23
I00
sg50
I00
sbsg35
g0
(g52
g2
Ntp287
Rp288
(dp289
g21
I00
sg49
I01
sg23
I01
sg56
g57
sg58
g59
sg60
g59
sbsg252
g0
(g71
g2
Ntp290
Rp291
(dp292
g21
I00
sg49
I01
sg23
I00
sg50
I00
sbsg253
g0
(g71
g2
Ntp293
Rp294
(dp295
g21
I00
sg49
I01
sg23
I00
sg50
I01
sbsg254
g0
(g75
g2
Ntp296
Rp297
(dp298
g21
I00
sg49
I01
sg23
I00
sg50
I-1
sbsg255
g0
(g71
g2
Ntp299
Rp300
(dp301
g21
I00
sg49
I01
sg23
I00
sg50
I01
sbsg24
V/cvmfs/cms.cern.ch/slc7_amd64_gcc10/cms/cmssw/CMSSW_12_4_7/python/Configuration/StandardSequences/RawToDigi_cff.py
p302
sg26
I34
sg27
g236
sbsVcsctfDigis
p303
g0
(g13
g2
Ntp304
Rp305
(dp306
g17
VCSCTFUnpacker
p307
sg19
(lp308
VMaxBX
p309
aVMinBX
p310
aVslot2sector
p311
aVmappingFile
p312
aVswapME1strips
p313
aVproducer
p314
asg21
I00
sg22
Nsg309
g0
(g75
g2
Ntp315
Rp316
(dp317
g21
I00
sg49
I01
sg23
I00
sg50
I11
sbsg23
I00
sg310
g0
(g75
g2
Ntp318
Rp319
(dp320
g21
I00
sg49
I01
sg23
I00
sg50
I5
sbsg311
g0
(g61
g62
(lp321
I0
aI0
aI0
aI0
aI0
aI0
aI0
aI0
aI0
aI0
aI0
aI0
aI0
aI0
aI0
aI0
aI0
aI0
aI0
aI0
aI0
aI0
atp322
Rp323
(dp324
g21
I00
sg49
I01
sg23
I00
sbsg312
g0
(g45
g2
Ntp325
Rp326
(dp327
g21
I00
sg49
I01
sg23
I00
sg50
g59
sbsg313
g0
(g71
g2
Ntp328
Rp329
(dp330
g21
I00
sg49
I01
sg23
I00
sg50
I00
sbsg314
g0
(g52
g2
Ntp331
Rp332
(dp333
g21
I00
sg49
I01
sg23
I01
sg56
g57
sg58
g59
sg60
g59
sbsg24
V/cvmfs/cms.cern.ch/slc7_amd64_gcc10/cms/cmssw/CMSSW_12_4_7/python/L1Trigger/Configuration/L1TRawToDigi_cff.py
p334
sg26
I17
sg27
g303
sbsVctppsDiamondRawToDigi
p335
g0
(g13
g2
Ntp336
Rp337
(dp338
g17
VTotemVFATRawToDigi
p339
sg19
(lp340
VrawDataTag
p341
aVsubSystem
p342
aVfedIds
p343
aVRawUnpacking
p344
aVRawToDigi
p345
asg21
I00
sg22
Nsg341
g0
(g52
g2
Ntp346
Rp347
(dp348
g21
I00
sg49
I01
sg23
I00
sg56
g57
sg58
g59
sg60
g59
sbsg23
I01
sg342
g0
(g45
g2
Ntp349
Rp350
(dp351
g21
I00
sg49
I01
sg23
I01
sg50
VTimingDiamond
p352
sbsg343
g0
(cFWCore.ParameterSet.Types
vuint32
p353
g62
(lp354
I579
aI581
aI582
aI583
atp355
Rp356
(dp357
g21
I00
sg49
I01
sg23
I01
sbsg344
g0
(cFWCore.ParameterSet.Types
PSet
p358
g2
Ntp359
Rp360
(dp361
g21
I00
sg49
I01
sg23
I00
sg19
(lp362
Vverbosity
p363
asg22
Nsg363
g0
(g67
g2
Ntp364
Rp365
(dp366
g21
I00
sg49
I00
sg23
I00
sg50
I0
sbsbsg345
g0
(g358
g2
Ntp367
Rp368
(dp369
g21
I00
sg49
I01
sg23
I01
sg19
(lp370
g363
aVtestFootprint
p371
aVtestCRC
p372
aVtestID
p373
aVtestECMostFrequent
p374
aVtestBCMostFrequent
p375
aVEC_min
p376
aVBC_min
p377
aVEC_fraction
p378
aVBC_fraction
p379
aVprintErrorSummary
p380
aVprintUnknownFrameSummary
p381
asg22
Nsg363
g0
(g67
g2
Ntp382
Rp383
(dp384
g21
I00
sg49
I00
sg23
I00
sg50
I0
sbsg371
g0
(g67
g2
Ntp385
Rp386
(dp387
g21
I00
sg49
I01
sg23
I00
sg50
I2
sbsg372
g0
(g67
g2
Ntp388
Rp389
(dp390
g21
I00
sg49
I01
sg23
I01
sg50
I0
sbsg373
g0
(g67
g2
Ntp391
Rp392
(dp393
g21
I00
sg49
I01
sg23
I00
sg50
I2
sbsg374
g0
(g67
g2
Ntp394
Rp395
(dp396
g21
I00
sg49
I01
sg23
I01
sg50
I0
sbsg375
g0
(g67
g2
Ntp397
Rp398
(dp399
g21
I00
sg49
I01
sg23
I00
sg50
I2
sbsg376
g0
(g67
g2
Ntp400
Rp401
(dp402
g21
I00
sg49
I00
sg23
I00
sg50
I10
sbsg377
g0
(g67
g2
Ntp403
Rp404
(dp405
g21
I00
sg49
I00
sg23
I00
sg50
I10
sbsg378
g0
(cFWCore.ParameterSet.Types
double
p406
g2
Ntp407
Rp408
(dp409
g21
I00
sg49
I00
sg23
I00
sg50
F0.6
sbsg379
g0
(g406
g2
Ntp410
Rp411
(dp412
g21
I00
sg49
I00
sg23
I00
sg50
F0.6
sbsg380
g0
(g67
g2
Ntp413
Rp414
(dp415
g21
I00
sg49
I00
sg23
I00
sg50
I0
sbsg381
g0
(g67
g2
Ntp416
Rp417
(dp418
g21
I00
sg49
I00
sg23
I00
sg50
I0
sbsbsg24
V/cvmfs/cms.cern.ch/slc7_amd64_gcc10/cms/cmssw/CMSSW_12_4_7/python/EventFilter/CTPPSRawToDigi/ctppsDiamondRawToDigi_cfi.py
p419
sg26
I9
sg27
g335
sbsVctppsPixelDigis
p420
g0
(g13
g2
Ntp421
Rp422
(dp423
g17
VCTPPSPixelRawToDigi
p424
sg19
(lp425
VisRun3
p426
aVincludeErrors
p427
aVinputLabel
p428
aVmappingLabel
p429
aVmightGet
p430
asg21
I00
sg22
Nsg426
g0
(g71
g2
Ntp431
Rp432
(dp433
g21
I00
sg49
I01
sg23
I00
sg50
I01
sbsg23
I01
sg427
g0
(g71
g2
Ntp434
Rp435
(dp436
g21
I00
sg49
I01
sg23
I00
sg50
I01
sbsg428
g0
(g52
g2
Ntp437
Rp438
(dp439
g21
I00
sg49
I01
sg23
I00
sg56
g57
sg58
g59
sg60
g59
sbsg429
g0
(g45
g2
Ntp440
Rp441
(dp442
g21
I00
sg49
I01
sg23
I00
sg50
VRPix
p443
sbsg430
g0
(cFWCore.ParameterSet.Types
_OptionalParameter
p444
g2
Ntp445
Rp446
(dp447
g21
I00
sg49
I00
sg23
I00
sV_ProxyParameter__type
p448
cFWCore.ParameterSet.Types
vstring
p449
sV_ProxyParameter__value
p450
Nsbsg24
V/cvmfs/cms.cern.ch/slc7_amd64_gcc10/cms/cmssw/CMSSW_12_4_7/cfipython/slc7_amd64_gcc10/EventFilter/CTPPSRawToDigi/ctppsPixelDigis_cfi.py
p451
sg26
I3
sg27
g420
sbsVdttfDigis
p452
g0
(g13
g2
Ntp453
Rp454
(dp455
g17
VDTTFFEDReader
p456
sg19
(lp457
VDTTF_FED_Source
p458
aVverbose
p459
asg21
I00
sg22
Nsg458
g0
(g52
g2
Ntp460
Rp461
(dp462
g21
I00
sg49
I01
sg23
I01
sg56
g57
sg58
g59
sg60
g59
sbsg23
I00
sg459
g0
(g71
g2
Ntp463
Rp464
(dp465
g21
I00
sg49
I00
sg23
I00
sg50
I00
sbsg24
g334
sg26
I19
sg27
g452
sbsVecalDigisGPU
p466
g0
(g13
g2
Ntp467
Rp468
(dp469
g17
VEcalRawToDigiGPU
p470
sg19
(lp471
g35
ag245
aVmaxChannelsEB
p472
aVmaxChannelsEE
p473
aVdigisLabelEB
p474
aVdigisLabelEE
p475
ag430
asg21
I00
sg22
Nsg35
g0
(g52
g2
Ntp476
Rp477
(dp478
g21
I00
sg49
I01
sg23
I00
sg56
g57
sg58
g59
sg60
g59
sbsg23
I00
sg245
g0
(g61
g62
(lp479
I601
aI602
aI603
aI604
aI605
aI606
aI607
aI608
aI609
aI610
aI611
aI612
aI613
aI614
aI615
aI616
aI617
aI618
aI619
aI620
aI621
aI622
aI623
aI624
aI625
aI626
aI627
aI628
aI629
aI630
aI631
aI632
aI633
aI634
aI635
aI636
aI637
aI638
aI639
aI640
aI641
aI642
aI643
aI644
aI645
aI646
aI647
aI648
aI649
aI650
aI651
aI652
aI653
aI654
atp480
Rp481
(dp482
g21
I00
sg49
I01
sg23
I00
sbsg472
g0
(g67
g2
Ntp483
Rp484
(dp485
g21
I00
sg49
I01
sg23
I00
sg50
I61200
sbsg473
g0
(g67
g2
Ntp486
Rp487
(dp488
g21
I00
sg49
I01
sg23
I00
sg50
I14648
sbsg474
g0
(g45
g2
Ntp489
Rp490
(dp491
g21
I00
sg49
I01
sg23
I00
sg50
VebDigis
p492
sbsg475
g0
(g45
g2
Ntp493
Rp494
(dp495
g21
I00
sg49
I01
sg23
I00
sg50
VeeDigis
p496
sbsg430
g0
(g444
g2
Ntp497
Rp498
(dp499
g21
I00
sg49
I00
sg23
I00
sg448
g449
sg450
Nsbsg24
V/cvmfs/cms.cern.ch/slc7_amd64_gcc10/cms/cmssw/CMSSW_12_4_7/python/EventFilter/EcalRawToDigi/ecalDigis_cff.py
p500
sg26
I23
sg27
g466
sbsVecalPreshowerDigis
p501
g0
(g13
g2
Ntp502
Rp503
(dp504
g17
VESRawToDigi
p505
sg19
(lp506
VsourceTag
p507
aVdebugMode
p508
aVInstanceES
p509
aVLookupTable
p510
aVESdigiCollection
p511
ag430
asg21
I00
sg22
Nsg507
g0
(g52
g2
Ntp512
Rp513
(dp514
g21
I00
sg49
I01
sg23
I01
sg56
g57
sg58
g59
sg60
g59
sbsg23
I01
sg508
g0
(g71
g2
Ntp515
Rp516
(dp517
g21
I00
sg49
I00
sg23
I00
sg50
I00
sbsg509
g0
(g45
g2
Ntp518
Rp519
(dp520
g21
I00
sg49
I01
sg23
I00
sg50
g59
sbsg510
g0
(cFWCore.ParameterSet.Types
FileInPath
p521
g2
Ntp522
Rp523
(dp524
g21
I00
sg49
I01
sg23
I00
sg50
VEventFilter/ESDigiToRaw/data/ES_lookup_table.dat
p525
sbsg511
g0
(g45
g2
Ntp526
Rp527
(dp528
g21
I00
sg49
I01
sg23
I00
sg50
g59
sbsg430
g0
(g444
g2
Ntp529
Rp530
(dp531
g21
I00
sg49
I00
sg23
I00
sg448
g449
sg450
Nsbsg24
g302
sg26
I16
sg27
g501
sbsVemtfStage2Digis
p532
g0
(g13
g2
Ntp533
Rp534
(dp535
g17
g32
sg19
(lp536
g34
ag35
ag36
ag37
ag100
aVMTF7
p537
asg21
I00
sg22
Nsg34
g0
(g45
g2
Ntp538
Rp539
(dp540
g21
I00
sg49
I01
sg23
I00
sg50
Vstage2::EMTFSetup
p541
sbsg23
I00
sg35
g0
(g52
g2
Ntp542
Rp543
(dp544
g21
I00
sg49
I01
sg23
I00
sg56
g57
sg58
g59
sg60
g59
sbsg36
g0
(g61
g62
(lp545
I1384
aI1385
atp546
Rp547
(dp548
g21
I00
sg49
I01
sg23
I00
sbsg37
g0
(g67
g2
Ntp549
Rp550
(dp551
g21
I00
sg49
I01
sg23
I00
sg50
I0
sbsg100
g0
(g71
g2
Ntp552
Rp553
(dp554
g21
I00
sg49
I00
sg23
I00
sg50
I00
sbsg537
g0
(g71
g2
Ntp555
Rp556
(dp557
g21
I00
sg49
I00
sg23
I00
sg50
I01
sbsg24
V/cvmfs/cms.cern.ch/slc7_amd64_gcc10/cms/cmssw/CMSSW_12_4_7/python/EventFilter/L1TRawToDigi/emtfStage2Digis_cfi.py
p558
sg26
I3
sg27
g532
sbsVgctDigis
p559
g0
(g13
g2
Ntp560
Rp561
(dp562
g17
VGctRawToDigi
p563
sg19
(lp564
VunpackSharedRegions
p565
aVnumberOfGctSamplesToUnpack
p566
aVnumberOfRctSamplesToUnpack
p567
aVhltMode
p568
ag428
aVunpackerVersion
p569
aVgctFedId
p570
aVcheckHeaders
p571
ag459
ag430
asg21
I00
sg22
Nsg565
g0
(g71
g2
Ntp572
Rp573
(dp574
g21
I00
sg49
I01
sg23
I00
sg50
I00
sbsg23
I00
sg566
g0
(g67
g2
Ntp575
Rp576
(dp577
g21
I00
sg49
I01
sg23
I00
sg50
I1
sbsg567
g0
(g67
g2
Ntp578
Rp579
(dp580
g21
I00
sg49
I01
sg23
I00
sg50
I1
sbsg568
g0
(g71
g2
Ntp581
Rp582
(dp583
g21
I00
sg49
I01
sg23
I00
sg50
I00
sbsg428
g0
(g52
g2
Ntp584
Rp585
(dp586
g21
I00
sg49
I01
sg23
I01
sg56
g57
sg58
g59
sg60
g59
sbsg569
g0
(g67
g2
Ntp587
Rp588
(dp589
g21
I00
sg49
I01
sg23
I00
sg50
I0
sbsg570
g0
(g75
g2
Ntp590
Rp591
(dp592
g21
I00
sg49
I00
sg23
I00
sg50
I745
sbsg571
g0
(g71
g2
Ntp593
Rp594
(dp595
g21
I00
sg49
I00
sg23
I00
sg50
I00
sbsg459
g0
(g71
g2
Ntp596
Rp597
(dp598
g21
I00
sg49
I00
sg23
I00
sg50
I00
sbsg430
g0
(g444
g2
Ntp599
Rp600
(dp601
g21
I00
sg49
I00
sg23
I00
sg448
g449
sg450
Nsbsg24
g334
sg26
I21
sg27
g559
sbsVgmtStage2Digis
p602
g0
(g13
g2
Ntp603
Rp604
(dp605
g17
g32
sg19
(lp606
g35
ag34
ag36
asg21
I00
sg22
Nsg35
g0
(g52
g2
Ntp607
Rp608
(dp609
g21
I00
sg49
I01
sg23
I00
sg56
g57
sg58
g59
sg60
g59
sbsg23
I00
sg34
g0
(g45
g2
Ntp610
Rp611
(dp612
g21
I00
sg49
I01
sg23
I00
sg50
Vstage2::GMTSetup
p613
sbsg36
g0
(g61
g62
(lp614
I1402
atp615
Rp616
(dp617
g21
I00
sg49
I01
sg23
I00
sbsg24
V/cvmfs/cms.cern.ch/slc7_amd64_gcc10/cms/cmssw/CMSSW_12_4_7/python/EventFilter/L1TRawToDigi/gmtStage2Digis_cfi.py
p618
sg26
I3
sg27
g602
sbsVgtDigis
p619
g0
(g13
g2
Ntp620
Rp621
(dp622
g17
VL1GlobalTriggerRawToDigi
p623
sg19
(lp624
VDaqGtInputTag
p625
aVDaqGtFedId
p626
aVActiveBoardsMask
p627
aVUnpackBxInEvent
p628
aVVerbosity
p629
ag430
asg21
I00
sg22
Nsg625
g0
(g52
g2
Ntp630
Rp631
(dp632
g21
I00
sg49
I01
sg23
I01
sg56
g57
sg58
g59
sg60
g59
sbsg23
I00
sg626
g0
(g75
g2
Ntp633
Rp634
(dp635
g21
I00
sg49
I00
sg23
I00
sg50
I813
sbsg627
g0
(g67
g2
Ntp636
Rp637
(dp638
g21
I00
sg49
I01
sg23
I00
sg50
I65535
sbsg628
g0
(g75
g2
Ntp639
Rp640
(dp641
g21
I00
sg49
I01
sg23
I00
sg50
I-1
sbsg629
g0
(g75
g2
Ntp642
Rp643
(dp644
g21
I00
sg49
I00
sg23
I00
sg50
I0
sbsg430
g0
(g444
g2
Ntp645
Rp646
(dp647
g21
I00
sg49
I00
sg23
I00
sg448
g449
sg450
Nsbsg24
g334
sg26
I23
sg27
g619
sbsVgtEvmDigis
p648
g0
(g13
g2
Ntp649
Rp650
(dp651
g17
VL1GlobalTriggerEvmRawToDigi
p652
sg19
(lp653
VEvmGtInputTag
p654
aVEvmGtFedId
p655
ag627
ag628
aVBstLengthBytes
p656
asg21
I00
sg22
Nsg654
g0
(g52
g2
Ntp657
Rp658
(dp659
g21
I00
sg49
I01
sg23
I01
sg56
g57
sg58
g59
sg60
g59
sbsg23
I00
sg655
g0
(g75
g2
Ntp660
Rp661
(dp662
g21
I00
sg49
I00
sg23
I00
sg50
I812
sbsg627
g0
(g67
g2
Ntp663
Rp664
(dp665
g21
I00
sg49
I01
sg23
I00
sg50
I65535
sbsg628
g0
(g75
g2
Ntp666
Rp667
(dp668
g21
I00
sg49
I01
sg23
I00
sg50
I-1
sbsg656
g0
(g75
g2
Ntp669
Rp670
(dp671
g21
I00
sg49
I01
sg23
I00
sg50
I-1
sbsg24
g334
sg26
I25
sg27
g648
sbsVgtStage2Digis
p672
g0
(g13
g2
Ntp673
Rp674
(dp675
g17
g32
sg19
(lp676
g35
ag34
ag36
asg21
I00
sg22
Nsg35
g0
(g52
g2
Ntp677
Rp678
(dp679
g21
I00
sg49
I01
sg23
I00
sg56
g57
sg58
g59
sg60
g59
sbsg23
I00
sg34
g0
(g45
g2
Ntp680
Rp681
(dp682
g21
I00
sg49
I01
sg23
I00
sg50
Vstage2::GTSetup
p683
sbsg36
g0
(g61
g62
(lp684
I1404
atp685
Rp686
(dp687
g21
I00
sg49
I01
sg23
I00
sbsg24
V/cvmfs/cms.cern.ch/slc7_amd64_gcc10/cms/cmssw/CMSSW_12_4_7/python/EventFilter/L1TRawToDigi/gtStage2Digis_cfi.py
p688
sg26
I3
sg27
g672
sbsVhcalDigis
p689
g0
(g13
g2
Ntp690
Rp691
(dp692
g17
VHcalRawToDigi
p693
sg19
(lp694
VHcalFirstFED
p695
ag248
ag249
ag242
ag245
ag255
aVUnpackCalib
p696
aVUnpackUMNio
p697
ag250
ag251
aVsaveQIE10DataNSamples
p698
aVsaveQIE10DataTags
p699
aVsaveQIE11DataNSamples
p700
aVsaveQIE11DataTags
p701
ag247
aVUnpackerMode
p702
ag254
ag35
aVElectronicsMap
p703
ag430
asg21
I00
sg22
Nsg695
g0
(g75
g2
Ntp704
Rp705
(dp706
g21
I00
sg49
I00
sg23
I00
sg50
I700
sbsg23
I01
sg248
g0
(g75
g2
Ntp707
Rp708
(dp709
g21
I00
sg49
I01
sg23
I00
sg50
I0
sbsg249
g0
(g75
g2
Ntp710
Rp711
(dp712
g21
I00
sg49
I01
sg23
I00
sg50
I9
sbsg242
g0
(g71
g2
Ntp713
Rp714
(dp715
g21
I00
sg49
I01
sg23
I00
sg50
I01
sbsg245
g0
(g61
g62
(lp716
tp717
Rp718
(dp719
g21
I00
sg49
I00
sg23
I00
sbsg255
g0
(g71
g2
Ntp720
Rp721
(dp722
g21
I00
sg49
I00
sg23
I00
sg50
I01
sbsg696
g0
(g71
g2
Ntp723
Rp724
(dp725
g21
I00
sg49
I00
sg23
I00
sg50
I01
sbsg697
g0
(g71
g2
Ntp726
Rp727
(dp728
g21
I00
sg49
I00
sg23
I00
sg50
I01
sbsg250
g0
(g71
g2
Ntp729
Rp730
(dp731
g21
I00
sg49
I00
sg23
I00
sg50
I01
sbsg251
g0
(g71
g2
Ntp732
Rp733
(dp734
g21
I00
sg49
I00
sg23
I00
sg50
I01
sbsg698
g0
(g61
g62
(lp735
tp736
Rp737
(dp738
g21
I00
sg49
I00
sg23
I00
sbsg699
g0
(g449
g62
(lp739
tp740
Rp741
(dp742
g21
I00
sg49
I00
sg23
I00
sV_nPerLine
p743
I1
sbsg700
g0
(g61
g62
(lp744
tp745
Rp746
(dp747
g21
I00
sg49
I00
sg23
I00
sbsg701
g0
(g449
g62
(lp748
tp749
Rp750
(dp751
g21
I00
sg49
I00
sg23
I00
sg743
I1
sbsg247
g0
(g71
g2
Ntp752
Rp753
(dp754
g21
I00
sg49
I00
sg23
I00
sg50
I00
sbsg702
g0
(g75
g2
Ntp755
Rp756
(dp757
g21
I00
sg49
I00
sg23
I00
sg50
I0
sbsg254
g0
(g75
g2
Ntp758
Rp759
(dp760
g21
I00
sg49
I00
sg23
I00
sg50
I-1
sbsg35
g0
(g52
g2
Ntp761
Rp762
(dp763
g21
I00
sg49
I01
sg23
I01
sg56
g57
sg58
g59
sg60
g59
sbsg703
g0
(g45
g2
Ntp764
Rp765
(dp766
g21
I00
sg49
I01
sg23
I00
sg50
g59
sbsg430
g0
(g444
g2
Ntp767
Rp768
(dp769
g21
I00
sg49
I00
sg23
I00
sg448
g449
sg450
Nsbsg24
g302
sg26
I19
sg27
g689
sbsVhfnoseDigis
p770
g0
(g13
g2
Ntp771
Rp772
(dp773
g17
VHFNoseRawToDigiFake
p774
sg19
(lp775
g770
ag430
asg21
I00
sg22
Nsg770
g0
(g52
g2
Ntp776
Rp777
(dp778
g21
I00
sg49
I01
sg23
I00
sg56
VsimHFNoseUnsuppressedDigis
p779
sg58
VHFNose
p780
sg60
g59
sbsg23
I00
sg430
g0
(g444
g2
Ntp781
Rp782
(dp783
g21
I00
sg49
I00
sg23
I00
sg448
g449
sg450
Nsbsg24
V/cvmfs/cms.cern.ch/slc7_amd64_gcc10/cms/cmssw/CMSSW_12_4_7/python/EventFilter/HGCalRawToDigi/HGCalRawToDigi_cfi.py
p784
sg26
I8
sg27
g770
sbsVhgcalDigis
p785
g0
(g13
g2
Ntp786
Rp787
(dp788
g17
VHGCalRawToDigiFake
p789
sg19
(lp790
g496
aVfhDigis
p791
aVbhDigis
p792
ag430
asg21
I00
sg22
Nsg496
g0
(g52
g2
Ntp793
Rp794
(dp795
g21
I00
sg49
I01
sg23
I00
sg56
VsimHGCalUnsuppressedDigis
p796
sg58
VEE
p797
sg60
g59
sbsg23
I00
sg791
g0
(g52
g2
Ntp798
Rp799
(dp800
g21
I00
sg49
I01
sg23
I00
sg56
g796
sg58
VHEfront
p801
sg60
g59
sbsg792
g0
(g52
g2
Ntp802
Rp803
(dp804
g21
I00
sg49
I01
sg23
I00
sg56
g796
sg58
VHEback
p805
sg60
g59
sbsg430
g0
(g444
g2
Ntp806
Rp807
(dp808
g21
I00
sg49
I00
sg23
I00
sg448
g449
sg450
Nsbsg24
g784
sg26
I4
sg27
g785
sbsVmuonCSCDigis
p809
g0
(g13
g2
Ntp810
Rp811
(dp812
g17
VCSCDCCUnpacker
p813
sg19
(lp814
VInputObjects
p815
aVUseExaminer
p816
aVExaminerMask
p817
aVUseSelectiveUnpacking
p818
aVErrorMask
p819
aVUnpackStatusDigis
p820
aVUseFormatStatus
p821
aVuseRPCs
p822
aVuseGEMs
p823
aVuseCSCShowers
p824
aVDebug
p825
aVPrintEventNumber
p826
aVrunDQM
p827
aVVisualFEDInspect
p828
aVVisualFEDShort
p829
aVFormatedEventDump
p830
aVSuppressZeroLCT
p831
aVDisableMappingCheck
p832
aVB904Setup
p833
aVB904vmecrate
p834
aVB904dmb
p835
ag430
asg21
I00
sg22
Nsg815
g0
(g52
g2
Ntp836
Rp837
(dp838
g21
I00
sg49
I01
sg23
I01
sg56
g57
sg58
g59
sg60
g59
sbsg23
I01
sg816
g0
(g71
g2
Ntp839
Rp840
(dp841
g21
I00
sg49
I01
sg23
I00
sg50
I01
sbsg817
g0
(g67
g2
Ntp842
Rp843
(dp844
g21
I00
sg49
I01
sg23
I01
sg50
I535558134
sbsg818
g0
(g71
g2
Ntp845
Rp846
(dp847
g21
I00
sg49
I01
sg23
I00
sg50
I01
sbsg819
g0
(g67
g2
Ntp848
Rp849
(dp850
g21
I00
sg49
I01
sg23
I00
sg50
I0
sbsg820
g0
(g71
g2
Ntp851
Rp852
(dp853
g21
I00
sg49
I01
sg23
I00
sg50
I00
sbsg821
g0
(g71
g2
Ntp854
Rp855
(dp856
g21
I00
sg49
I01
sg23
I00
sg50
I01
sbsg822
g0
(g71
g2
Ntp857
Rp858
(dp859
g21
I00
sg49
I01
sg23
I00
sg50
I00
sbsg823
g0
(g71
g2
Ntp860
Rp861
(dp862
g21
I00
sg49
I01
sg23
I00
sg50
I01
sbsg824
g0
(g71
g2
Ntp863
Rp864
(dp865
g21
I00
sg49
I01
sg23
I00
sg50
I01
sbsg825
g0
(g71
g2
Ntp866
Rp867
(dp868
g21
I00
sg49
I00
sg23
I00
sg50
I00
sbsg826
g0
(g71
g2
Ntp869
Rp870
(dp871
g21
I00
sg49
I00
sg23
I00
sg50
I00
sbsg827
g0
(g71
g2
Ntp872
Rp873
(dp874
g21
I00
sg49
I00
sg23
I00
sg50
I00
sbsg828
g0
(g71
g2
Ntp875
Rp876
(dp877
g21
I00
sg49
I00
sg23
I00
sg50
I00
sbsg829
g0
(g71
g2
Ntp878
Rp879
(dp880
g21
I00
sg49
I00
sg23
I00
sg50
I00
sbsg830
g0
(g71
g2
Ntp881
Rp882
(dp883
g21
I00
sg49
I00
sg23
I00
sg50
I00
sbsg831
g0
(g71
g2
Ntp884
Rp885
(dp886
g21
I00
sg49
I00
sg23
I00
sg50
I01
sbsg832
g0
(g71
g2
Ntp887
Rp888
(dp889
g21
I00
sg49
I00
sg23
I00
sg50
I00
sbsg833
g0
(g71
g2
Ntp890
Rp891
(dp892
g21
I00
sg49
I00
sg23
I00
sg50
I00
sbsg834
g0
(g75
g2
Ntp893
Rp894
(dp895
g21
I00
sg49
I00
sg23
I00
sg50
I1
sbsg835
g0
(g75
g2
Ntp896
Rp897
(dp898
g21
I00
sg49
I00
sg23
I00
sg50
I3
sbsg430
g0
(g444
g2
Ntp899
Rp900
(dp901
g21
I00
sg49
I00
sg23
I00
sg448
g449
sg450
Nsbsg24
g302
sg26
I22
sg27
g809
sbsVmuonDTDigis
p902
g0
(g13
g2
Ntp903
Rp904
(dp905
g17
VDTUnpackingModule
p906
sg19
(lp907
VdataType
p908
ag428
aVuseStandardFEDid
p909
aVminFEDid
p910
aVmaxFEDid
p911
aVfedbyType
p912
aVreadOutParameters
p913
aVdqmOnly
p914
ag430
asg21
I00
sg22
Nsg908
g0
(g45
g2
Ntp915
Rp916
(dp917
g21
I00
sg49
I01
sg23
I00
sg50
VDDU
p918
sbsg23
I01
sg428
g0
(g52
g2
Ntp919
Rp920
(dp921
g21
I00
sg49
I01
sg23
I01
sg56
g57
sg58
g59
sg60
g59
sbsg909
g0
(g71
g2
Ntp922
Rp923
(dp924
g21
I00
sg49
I01
sg23
I00
sg50
I01
sbsg910
g0
(g75
g2
Ntp925
Rp926
(dp927
g21
I00
sg49
I00
sg23
I00
sg50
I770
sbsg911
g0
(g75
g2
Ntp928
Rp929
(dp930
g21
I00
sg49
I00
sg23
I00
sg50
I779
sbsg912
g0
(g444
g2
Ntp931
Rp932
(dp933
g21
I00
sg49
I01
sg23
I00
sg448
g71
sg450
Nsbsg913
g0
(g358
g2
Ntp934
Rp935
(dp936
g21
I00
sg49
I01
sg23
I00
sg19
(lp937
g100
aVrosParameters
p938
aVlocalDAQ
p939
aVperformDataIntegrityMonitor
p940
asg22
Nsg100
g0
(g71
g2
Ntp941
Rp942
(dp943
g21
I00
sg49
I00
sg23
I00
sg50
I00
sbsg938
g0
(g358
g2
Ntp944
Rp945
(dp946
g21
I00
sg49
I01
sg23
I00
sg19
(lp947
VwriteSC
p948
aVreadingDDU
p949
ag940
aVreadDDUIDfromDDU
p950
ag100
ag939
asg22
Nsg948
g0
(g71
g2
Ntp951
Rp952
(dp953
g21
I00
sg49
I00
sg23
I00
sg50
I01
sbsg949
g0
(g71
g2
Ntp954
Rp955
(dp956
g21
I00
sg49
I00
sg23
I00
sg50
I01
sbsg940
g0
(g71
g2
Ntp957
Rp958
(dp959
g21
I00
sg49
I00
sg23
I00
sg50
I00
sbsg950
g0
(g71
g2
Ntp960
Rp961
(dp962
g21
I00
sg49
I00
sg23
I00
sg50
I01
sbsg100
g0
(g71
g2
Ntp963
Rp964
(dp965
g21
I00
sg49
I00
sg23
I00
sg50
I00
sbsg939
g0
(g71
g2
Ntp966
Rp967
(dp968
g21
I00
sg49
I00
sg23
I00
sg50
I00
sbsbsg939
g0
(g71
g2
Ntp969
Rp970
(dp971
g21
I00
sg49
I00
sg23
I00
sg50
I00
sbsg940
g0
(g71
g2
Ntp972
Rp973
(dp974
g21
I00
sg49
I00
sg23
I00
sg50
I00
sbsbsg914
g0
(g71
g2
Ntp975
Rp976
(dp977
g21
I00
sg49
I01
sg23
I00
sg50
I00
sbsg430
g0
(g444
g2
Ntp978
Rp979
(dp980
g21
I00
sg49
I00
sg23
I00
sg448
g449
sg450
Nsbsg24
g302
sg26
I25
sg27
g902
sbsVmuonGEMDigis
p981
g0
(g13
g2
Ntp982
Rp983
(dp984
g17
VGEMRawToDigiModule
p985
sg19
(lp986
g35
aVuseDBEMap
p987
aVkeepDAQStatus
p988
aVreadMultiBX
p989
aVge21Off
p990
aVfedIdStart
p991
aVfedIdEnd
p992
ag430
asg21
I00
sg22
Nsg35
g0
(g52
g2
Ntp993
Rp994
(dp995
g21
I00
sg49
I01
sg23
I00
sg56
g57
sg58
g59
sg60
g59
sbsg23
I00
sg987
g0
(g71
g2
Ntp996
Rp997
(dp998
g21
I00
sg49
I01
sg23
I00
sg50
I00
sbsg988
g0
(g71
g2
Ntp999
Rp1000
(dp1001
g21
I00
sg49
I01
sg23
I00
sg50
I01
sbsg989
g0
(g71
g2
Ntp1002
Rp1003
(dp1004
g21
I00
sg49
I01
sg23
I00
sg50
I00
sbsg990
g0
(g71
g2
Ntp1005
Rp1006
(dp1007
g21
I00
sg49
I01
sg23
I00
sg50
I00
sbsg991
g0
(g67
g2
Ntp1008
Rp1009
(dp1010
g21
I00
sg49
I01
sg23
I00
sg50
I1467
sbsg992
g0
(g67
g2
Ntp1011
Rp1012
(dp1013
g21
I00
sg49
I01
sg23
I00
sg50
I1478
sbsg430
g0
(g444
g2
Ntp1014
Rp1015
(dp1016
g21
I00
sg49
I00
sg23
I00
sg448
g449
sg450
Nsbsg24
g302
sg26
I31
sg27
g981
sbsVmuonRPCDigis
p1017
g0
(g13
g2
Ntp1018
Rp1019
(dp1020
g17
VRPCUnpackingModule
p1021
sg19
(lp1022
g35
aVdoSynchro
p1023
ag430
asg21
I00
sg22
Nsg35
g0
(g52
g2
Ntp1024
Rp1025
(dp1026
g21
I00
sg49
I01
sg23
I01
sg56
g57
sg58
g59
sg60
g59
sbsg23
I01
sg1023
g0
(g71
g2
Ntp1027
Rp1028
(dp1029
g21
I00
sg49
I01
sg23
I00
sg50
I01
sbsg430
g0
(g444
g2
Ntp1030
Rp1031
(dp1032
g21
I00
sg49
I00
sg23
I00
sg448
g449
sg450
Nsbsg24
g302
sg26
I28
sg27
g1017
sbsVomtfStage2Digis
p1033
g0
(g13
g2
Ntp1034
Rp1035
(dp1036
g17
VOmtfUnpacker
p1037
sg19
(lp1038
g428
aVskipRpc
p1039
asg21
I00
sg22
Nsg428
g0
(g52
g2
Ntp1040
Rp1041
(dp1042
g21
I00
sg49
I01
sg23
I00
sg56
g57
sg58
g59
sg60
g59
sbsg23
I00
sg1039
g0
(g71
g2
Ntp1043
Rp1044
(dp1045
g21
I00
sg49
I01
sg23
I00
sg50
I00
sbsg24
V/cvmfs/cms.cern.ch/slc7_amd64_gcc10/cms/cmssw/CMSSW_12_4_7/python/EventFilter/L1TRawToDigi/omtfStage2Digis_cfi.py
p1046
sg26
I3
sg27
g1033
sbsVonlineMetaDataDigis
p1047
g0
(g13
g2
Ntp1048
Rp1049
(dp1050
g17
VOnlineMetaDataRawToDigi
p1051
sg19
(lp1052
VonlineMetaDataInputLabel
p1053
ag430
asg21
I00
sg22
Nsg1053
g0
(g52
g2
Ntp1054
Rp1055
(dp1056
g21
I00
sg49
I01
sg23
I00
sg56
g57
sg58
g59
sg60
g59
sbsg23
I00
sg430
g0
(g444
g2
Ntp1057
Rp1058
(dp1059
g21
I00
sg49
I00
sg23
I00
sg448
g449
sg450
Nsbsg24
g302
sg26
I42
sg27
g1047
sbsVonlineMetaDataRawToDigi
p1060
g0
(g13
g2
Ntp1061
Rp1062
(dp1063
g17
g1051
sg19
(lp1064
g1053
ag430
asg21
I00
sg22
Nsg1053
g0
(g52
g2
Ntp1065
Rp1066
(dp1067
g21
I00
sg49
I01
sg23
I00
sg56
g57
sg58
g59
sg60
g59
sbsg23
I00
sg430
g0
(g444
g2
Ntp1068
Rp1069
(dp1070
g21
I00
sg49
I00
sg23
I00
sg448
g449
sg450
Nsbsg24
V/cvmfs/cms.cern.ch/slc7_amd64_gcc10/cms/cmssw/CMSSW_12_4_7/cfipython/slc7_amd64_gcc10/EventFilter/OnlineMetaDataRawToDigi/onlineMetaDataRawToDigi_cfi.py
p1071
sg26
I3
sg27
g1060
sbsVrpcCPPFRawToDigi
p1072
g0
(g13
g2
Ntp1073
Rp1074
(dp1075
g17
VRPCAMCRawToDigi
p1076
sg19
(lp1077
VinputTag
p1078
aVcalculateCRC
p1079
aVfillCounters
p1080
aVRPCAMCUnpacker
p1081
aVRPCAMCUnpackerSettings
p1082
ag430
asg21
I00
sg22
Nsg1078
g0
(g52
g2
Ntp1083
Rp1084
(dp1085
g21
I00
sg49
I01
sg23
I00
sg56
g57
sg58
g59
sg60
g59
sbsg23
I00
sg1079
g0
(g71
g2
Ntp1086
Rp1087
(dp1088
g21
I00
sg49
I01
sg23
I00
sg50
I01
sbsg1080
g0
(g71
g2
Ntp1089
Rp1090
(dp1091
g21
I00
sg49
I01
sg23
I00
sg50
I01
sbsg1081
g0
(g45
g2
Ntp1092
Rp1093
(dp1094
g21
I00
sg49
I01
sg23
I01
sg50
VRPCCPPFUnpacker
p1095
sbsg1082
g0
(g358
g2
Ntp1096
Rp1097
(dp1098
g21
I00
sg49
I01
sg23
I01
sg19
(lp1099
VfillAMCCounters
p1100
aVbxMin
p1101
aVbxMax
p1102
aVcppfDaqDelay
p1103
asg22
Nsg1100
g0
(g71
g2
Ntp1104
Rp1105
(dp1106
g21
I00
sg49
I01
sg23
I00
sg50
I01
sbsg1101
g0
(g75
g2
Ntp1107
Rp1108
(dp1109
g21
I00
sg49
I01
sg23
I00
sg50
I-2
sbsg1102
g0
(g75
g2
Ntp1110
Rp1111
(dp1112
g21
I00
sg49
I01
sg23
I00
sg50
I2
sbsg1103
g0
(g75
g2
Ntp1113
Rp1114
(dp1115
g21
I00
sg49
I01
sg23
I00
sg50
I0
sbsbsg430
g0
(g444
g2
Ntp1116
Rp1117
(dp1118
g21
I00
sg49
I00
sg23
I00
sg448
g449
sg450
Nsbsg24
V/cvmfs/cms.cern.ch/slc7_amd64_gcc10/cms/cmssw/CMSSW_12_4_7/python/EventFilter/RPCRawToDigi/RPCCPPFRawToDigi_cfi.py
p1119
sg26
I4
sg27
g1072
sbsVrpcTwinMuxRawToDigi
p1120
g0
(g13
g2
Ntp1121
Rp1122
(dp1123
g17
VRPCTwinMuxRawToDigi
p1124
sg19
(lp1125
g1078
ag1079
ag1080
ag1101
ag1102
ag430
asg21
I00
sg22
Nsg1078
g0
(g52
g2
Ntp1126
Rp1127
(dp1128
g21
I00
sg49
I01
sg23
I00
sg56
g57
sg58
g59
sg60
g59
sbsg23
I00
sg1079
g0
(g71
g2
Ntp1129
Rp1130
(dp1131
g21
I00
sg49
I01
sg23
I00
sg50
I01
sbsg1080
g0
(g71
g2
Ntp1132
Rp1133
(dp1134
g21
I00
sg49
I01
sg23
I00
sg50
I01
sbsg1101
g0
(g75
g2
Ntp1135
Rp1136
(dp1137
g21
I00
sg49
I01
sg23
I00
sg50
I-2
sbsg1102
g0
(g75
g2
Ntp1138
Rp1139
(dp1140
g21
I00
sg49
I01
sg23
I00
sg50
I2
sbsg430
g0
(g444
g2
Ntp1141
Rp1142
(dp1143
g21
I00
sg49
I00
sg23
I00
sg448
g449
sg450
Nsbsg24
V/cvmfs/cms.cern.ch/slc7_amd64_gcc10/cms/cmssw/CMSSW_12_4_7/cfipython/slc7_amd64_gcc10/EventFilter/RPCRawToDigi/rpcTwinMuxRawToDigi_cfi.py
p1144
sg26
I3
sg27
g1120
sbsVscalersRawToDigi
p1145
g0
(g13
g2
Ntp1146
Rp1147
(dp1148
g17
VScalersRawToDigi
p1149
sg19
(lp1150
VscalersInputTag
p1151
ag430
asg21
I00
sg22
Nsg1151
g0
(g52
g2
Ntp1152
Rp1153
(dp1154
g21
I00
sg49
I01
sg23
I01
sg56
g57
sg58
g59
sg60
g59
sbsg23
I01
sg430
g0
(g444
g2
Ntp1155
Rp1156
(dp1157
g21
I00
sg49
I00
sg23
I00
sg448
g449
sg450
Nsbsg24
V/cvmfs/cms.cern.ch/slc7_amd64_gcc10/cms/cmssw/CMSSW_12_4_7/cfipython/slc7_amd64_gcc10/EventFilter/ScalersRawToDigi/scalersRawToDigi_cfi.py
p1158
sg26
I3
sg27
g1145
sbsVsiPixelDigiErrors
p1159
g0
(g13
g2
Ntp1160
Rp1161
(dp1162
g17
VSiPixelDigiErrorsFromSoA
p1163
sg19
(lp1164
VdigiErrorSoASrc
p1165
aVCablingMapLabel
p1166
aVUsePhase1
p1167
aVErrorList
p1168
aVUserErrorList
p1169
ag430
asg21
I00
sg22
Nsg1165
g0
(g52
g2
Ntp1170
Rp1171
(dp1172
g21
I00
sg49
I01
sg23
I00
sg56
VsiPixelDigiErrorsSoA
p1173
sg58
g59
sg60
g59
sbsg23
I00
sg1166
g0
(g45
g2
Ntp1174
Rp1175
(dp1176
g21
I00
sg49
I01
sg23
I00
sg50
g59
sbsg1167
g0
(g71
g2
Ntp1177
Rp1178
(dp1179
g21
I00
sg49
I01
sg23
I00
sg50
I00
sbsg1168
g0
(g61
g62
(lp1180
I29
atp1181
Rp1182
(dp1183
g21
I00
sg49
I01
sg23
I00
sbsg1169
g0
(g61
g62
(lp1184
I40
atp1185
Rp1186
(dp1187
g21
I00
sg49
I01
sg23
I00
sbsg430
g0
(g444
g2
Ntp1188
Rp1189
(dp1190
g21
I00
sg49
I00
sg23
I00
sg448
g449
sg450
Nsbsg24
V/cvmfs/cms.cern.ch/slc7_amd64_gcc10/cms/cmssw/CMSSW_12_4_7/python/EventFilter/SiPixelRawToDigi/siPixelDigis_cff.py
p1191
sg26
I24
sg27
g1159
sbsg1173
g0
(g13
g2
Ntp1192
Rp1193
(dp1194
g17
VSiPixelDigiErrorsSoAFromCUDA
p1195
sg19
(lp1196
Vsrc
p1197
ag430
asg21
I00
sg22
Nsg1197
g0
(g52
g2
Ntp1198
Rp1199
(dp1200
g21
I00
sg49
I01
sg23
I01
sg56
VsiPixelClustersPreSplittingCUDA
p1201
sg58
g59
sg60
g59
sbsg23
I00
sg430
g0
(g444
g2
Ntp1202
Rp1203
(dp1204
g21
I00
sg49
I00
sg23
I00
sg448
g449
sg450
Nsbsg24
g1191
sg26
I18
sg27
g1173
sbsVsiPixelDigisSoA
p1205
g0
(g13
g2
Ntp1206
Rp1207
(dp1208
g17
VSiPixelDigisSoAFromCUDA
p1209
sg19
(lp1210
g1197
ag430
asg21
I00
sg22
Nsg1197
g0
(g52
g2
Ntp1211
Rp1212
(dp1213
g21
I00
sg49
I01
sg23
I01
sg56
g1201
sg58
g59
sg60
g59
sbsg23
I00
sg430
g0
(g444
g2
Ntp1214
Rp1215
(dp1216
g21
I00
sg49
I00
sg23
I00
sg448
g449
sg450
Nsbsg24
g1191
sg26
I12
sg27
g1205
sbsVsiStripDigis
p1217
g0
(g13
g2
Ntp1218
Rp1219
(dp1220
g17
VSiStripRawToDigiModule
p1221
sg19
(lp1222
VProductLabel
p1223
aVLegacyUnpacker
p1224
aVAppendedBytes
p1225
aVUseDaqRegister
p1226
aVUseFedKey
p1227
aVUnpackBadChannels
p1228
aVMarkModulesOnMissingFeds
p1229
aVTriggerFedId
p1230
aVUnpackCommonModeValues
p1231
aVDoAllCorruptBufferChecks
p1232
aVDoAPVEmulatorCheck
p1233
aVErrorThreshold
p1234
asg21
I00
sg22
Nsg1223
g0
(g52
g2
Ntp1235
Rp1236
(dp1237
g21
I00
sg49
I01
sg23
I00
sg56
g57
sg58
g59
sg60
g59
sbsg23
I00
sg1224
g0
(g71
g2
Ntp1238
Rp1239
(dp1240
g21
I00
sg49
I01
sg23
I00
sg50
I00
sbsg1225
g0
(g75
g2
Ntp1241
Rp1242
(dp1243
g21
I00
sg49
I01
sg23
I00
sg50
I0
sbsg1226
g0
(g71
g2
Ntp1244
Rp1245
(dp1246
g21
I00
sg49
I01
sg23
I00
sg50
I00
sbsg1227
g0
(g71
g2
Ntp1247
Rp1248
(dp1249
g21
I00
sg49
I01
sg23
I00
sg50
I00
sbsg1228
g0
(g71
g2
Ntp1250
Rp1251
(dp1252
g21
I00
sg49
I01
sg23
I00
sg50
I00
sbsg1229
g0
(g71
g2
Ntp1253
Rp1254
(dp1255
g21
I00
sg49
I01
sg23
I00
sg50
I01
sbsg1230
g0
(g75
g2
Ntp1256
Rp1257
(dp1258
g21
I00
sg49
I01
sg23
I00
sg50
I0
sbsg1231
g0
(g71
g2
Ntp1259
Rp1260
(dp1261
g21
I00
sg49
I01
sg23
I00
sg50
I00
sbsg1232
g0
(g71
g2
Ntp1262
Rp1263
(dp1264
g21
I00
sg49
I01
sg23
I00
sg50
I00
sbsg1233
g0
(g71
g2
Ntp1265
Rp1266
(dp1267
g21
I00
sg49
I01
sg23
I00
sg50
I00
sbsg1234
g0
(g67
g2
Ntp1268
Rp1269
(dp1270
g21
I00
sg49
I01
sg23
I00
sg50
I7174
sbsg24
V/cvmfs/cms.cern.ch/slc7_amd64_gcc10/cms/cmssw/CMSSW_12_4_7/python/EventFilter/SiStripRawToDigi/SiStripDigis_cfi.py
p1271
sg26
I3
sg27
g1217
sbsVsimEcalTriggerPrimitiveDigis
p1272
g0
(g13
g2
Ntp1273
Rp1274
(dp1275
g17
VEcalTrigPrimProducer
p1276
sg19
(lp1277
VBarrelOnly
p1278
aVInstanceEB
p1279
aVInstanceEE
p1280
aVbinOfMaximum
p1281
aVFamos
p1282
aVTcpOutput
p1283
ag825
aVLabel
p1284
asg21
I00
sg22
Nsg1278
g0
(g71
g2
Ntp1285
Rp1286
(dp1287
g21
I00
sg49
I01
sg23
I00
sg50
I00
sbsg23
I00
sg1279
g0
(g45
g2
Ntp1288
Rp1289
(dp1290
g21
I00
sg49
I01
sg23
I00
sg50
g59
sbsg1280
g0
(g45
g2
Ntp1291
Rp1292
(dp1293
g21
I00
sg49
I01
sg23
I00
sg50
g59
sbsg1281
g0
(g75
g2
Ntp1294
Rp1295
(dp1296
g21
I00
sg49
I01
sg23
I00
sg50
I6
sbsg1282
g0
(g71
g2
Ntp1297
Rp1298
(dp1299
g21
I00
sg49
I01
sg23
I00
sg50
I00
sbsg1283
g0
(g71
g2
Ntp1300
Rp1301
(dp1302
g21
I00
sg49
I01
sg23
I00
sg50
I00
sbsg825
g0
(g71
g2
Ntp1303
Rp1304
(dp1305
g21
I00
sg49
I01
sg23
I00
sg50
I00
sbsg1284
g0
(g45
g2
Ntp1306
Rp1307
(dp1308
g21
I00
sg49
I01
sg23
I00
sg50
VsimEcalUnsuppressedDigis
p1309
sbsg24
V/cvmfs/cms.cern.ch/slc7_amd64_gcc10/cms/cmssw/CMSSW_12_4_7/python/SimCalorimetry/EcalTrigPrimProducers/ecalTriggerPrimitiveDigis_cfi.py
p1310
sg26
I6
sg27
g1272
sbsVtcdsDigis
p1311
g0
(g13
g2
Ntp1312
Rp1313
(dp1314
g17
VTcdsRawToDigi
p1315
sg19
(lp1316
g35
ag430
asg21
I00
sg22
Nsg35
g0
(g52
g2
Ntp1317
Rp1318
(dp1319
g21
I00
sg49
I01
sg23
I00
sg56
g57
sg58
g59
sg60
g59
sbsg23
I00
sg430
g0
(g444
g2
Ntp1320
Rp1321
(dp1322
g21
I00
sg49
I00
sg23
I00
sg448
g449
sg450
Nsbsg24
g302
sg26
I39
sg27
g1311
sbsVtcdsRawToDigi
p1323
g0
(g13
g2
Ntp1324
Rp1325
(dp1326
g17
g1315
sg19
(lp1327
g35
ag430
asg21
I00
sg22
Nsg35
g0
(g52
g2
Ntp1328
Rp1329
(dp1330
g21
I00
sg49
I01
sg23
I00
sg56
g57
sg58
g59
sg60
g59
sbsg23
I00
sg430
g0
(g444
g2
Ntp1331
Rp1332
(dp1333
g21
I00
sg49
I00
sg23
I00
sg448
g449
sg450
Nsbsg24
V/cvmfs/cms.cern.ch/slc7_amd64_gcc10/cms/cmssw/CMSSW_12_4_7/cfipython/slc7_amd64_gcc10/EventFilter/OnlineMetaDataRawToDigi/tcdsRawToDigi_cfi.py
p1334
sg26
I3
sg27
g1323
sbsVtotemRPRawToDigi
p1335
g0
(g13
g2
Ntp1336
Rp1337
(dp1338
g17
g339
sg19
(lp1339
g341
ag342
ag343
ag344
ag345
asg21
I00
sg22
Nsg341
g0
(g52
g2
Ntp1340
Rp1341
(dp1342
g21
I00
sg49
I01
sg23
I00
sg56
g57
sg58
g59
sg60
g59
sbsg23
I01
sg342
g0
(g45
g2
Ntp1343
Rp1344
(dp1345
g21
I00
sg49
I01
sg23
I01
sg50
VTrackingStrip
p1346
sbsg343
g0
(g353
g62
(lp1347
I578
aI580
aI584
aI585
atp1348
Rp1349
(dp1350
g21
I00
sg49
I01
sg23
I01
sbsg344
g0
(g358
g2
Ntp1351
Rp1352
(dp1353
g21
I00
sg49
I01
sg23
I00
sg19
(lp1354
g363
asg22
Nsg363
g0
(g67
g2
Ntp1355
Rp1356
(dp1357
g21
I00
sg49
I00
sg23
I00
sg50
I0
sbsbsg345
g0
(g358
g2
Ntp1358
Rp1359
(dp1360
g21
I00
sg49
I01
sg23
I00
sg19
(lp1361
g363
ag371
ag372
ag373
ag374
ag375
ag376
ag377
ag378
ag379
ag380
ag381
asg22
Nsg363
g0
(g67
g2
Ntp1362
Rp1363
(dp1364
g21
I00
sg49
I00
sg23
I00
sg50
I0
sbsg371
g0
(g67
g2
Ntp1365
Rp1366
(dp1367
g21
I00
sg49
I01
sg23
I00
sg50
I2
sbsg372
g0
(g67
g2
Ntp1368
Rp1369
(dp1370
g21
I00
sg49
I01
sg23
I00
sg50
I2
sbsg373
g0
(g67
g2
Ntp1371
Rp1372
(dp1373
g21
I00
sg49
I01
sg23
I00
sg50
I2
sbsg374
g0
(g67
g2
Ntp1374
Rp1375
(dp1376
g21
I00
sg49
I01
sg23
I00
sg50
I2
sbsg375
g0
(g67
g2
Ntp1377
Rp1378
(dp1379
g21
I00
sg49
I01
sg23
I00
sg50
I2
sbsg376
g0
(g67
g2
Ntp1380
Rp1381
(dp1382
g21
I00
sg49
I00
sg23
I00
sg50
I10
sbsg377
g0
(g67
g2
Ntp1383
Rp1384
(dp1385
g21
I00
sg49
I00
sg23
I00
sg50
I10
sbsg378
g0
(g406
g2
Ntp1386
Rp1387
(dp1388
g21
I00
sg49
I00
sg23
I00
sg50
F0.6
sbsg379
g0
(g406
g2
Ntp1389
Rp1390
(dp1391
g21
I00
sg49
I00
sg23
I00
sg50
F0.6
sbsg380
g0
(g67
g2
Ntp1392
Rp1393
(dp1394
g21
I00
sg49
I00
sg23
I00
sg50
I0
sbsg381
g0
(g67
g2
Ntp1395
Rp1396
(dp1397
g21
I00
sg49
I00
sg23
I00
sg50
I0
sbsbsg24
V/cvmfs/cms.cern.ch/slc7_amd64_gcc10/cms/cmssw/CMSSW_12_4_7/python/EventFilter/CTPPSRawToDigi/totemRPRawToDigi_cfi.py
p1398
sg26
I9
sg27
g1335
sbsVtotemTimingRawToDigi
p1399
g0
(g13
g2
Ntp1400
Rp1401
(dp1402
g17
g339
sg19
(lp1403
g341
ag342
ag343
ag344
ag345
asg21
I00
sg22
Nsg341
g0
(g52
g2
Ntp1404
Rp1405
(dp1406
g21
I00
sg49
I01
sg23
I00
sg56
g57
sg58
g59
sg60
g59
sbsg23
I01
sg342
g0
(g45
g2
Ntp1407
Rp1408
(dp1409
g21
I00
sg49
I01
sg23
I01
sg50
VTotemTiming
p1410
sbsg343
g0
(g353
g62
(lp1411
I586
aI587
atp1412
Rp1413
(dp1414
g21
I00
sg49
I01
sg23
I00
sbsg344
g0
(g358
g2
Ntp1415
Rp1416
(dp1417
g21
I00
sg49
I01
sg23
I00
sg19
(lp1418
g363
asg22
Nsg363
g0
(g67
g2
Ntp1419
Rp1420
(dp1421
g21
I00
sg49
I00
sg23
I00
sg50
I0
sbsbsg345
g0
(g358
g2
Ntp1422
Rp1423
(dp1424
g21
I00
sg49
I01
sg23
I00
sg19
(lp1425
g363
ag371
ag372
ag373
ag374
ag375
ag380
ag381
asg22
Nsg363
g0
(g67
g2
Ntp1426
Rp1427
(dp1428
g21
I00
sg49
I00
sg23
I00
sg50
I0
sbsg371
g0
(g67
g2
Ntp1429
Rp1430
(dp1431
g21
I00
sg49
I01
sg23
I00
sg50
I0
sbsg372
g0
(g67
g2
Ntp1432
Rp1433
(dp1434
g21
I00
sg49
I01
sg23
I00
sg50
I0
sbsg373
g0
(g67
g2
Ntp1435
Rp1436
(dp1437
g21
I00
sg49
I01
sg23
I00
sg50
I0
sbsg374
g0
(g67
g2
Ntp1438
Rp1439
(dp1440
g21
I00
sg49
I01
sg23
I00
sg50
I0
sbsg375
g0
(g67
g2
Ntp1441
Rp1442
(dp1443
g21
I00
sg49
I01
sg23
I00
sg50
I0
sbsg380
g0
(g67
g2
Ntp1444
Rp1445
(dp1446
g21
I00
sg49
I00
sg23
I00
sg50
I0
sbsg381
g0
(g67
g2
Ntp1447
Rp1448
(dp1449
g21
I00
sg49
I00
sg23
I00
sg50
I0
sbsbsg24
V/cvmfs/cms.cern.ch/slc7_amd64_gcc10/cms/cmssw/CMSSW_12_4_7/python/EventFilter/CTPPSRawToDigi/totemTimingRawToDigi_cfi.py
p1450
sg26
I9
sg27
g1399
sbsVtotemTriggerRawToDigi
p1451
g0
(g13
g2
Ntp1452
Rp1453
(dp1454
g17
VTotemTriggerRawToDigi
p1455
sg19
(lp1456
g341
aVfedId
p1457
asg21
I00
sg22
Nsg341
g0
(g52
g2
Ntp1458
Rp1459
(dp1460
g21
I00
sg49
I01
sg23
I00
sg56
g57
sg58
g59
sg60
g59
sbsg23
I01
sg1457
g0
(g67
g2
Ntp1461
Rp1462
(dp1463
g21
I00
sg49
I01
sg23
I00
sg50
I0
sbsg24
V/cvmfs/cms.cern.ch/slc7_amd64_gcc10/cms/cmssw/CMSSW_12_4_7/python/EventFilter/CTPPSRawToDigi/totemTriggerRawToDigi_cfi.py
p1464
sg26
I3
sg27
g1451
sbsVtwinMuxStage2Digis
p1465
g0
(g13
g2
Ntp1466
Rp1467
(dp1468
g17
VL1TTwinMuxRawToDigi
p1469
sg19
(lp1470
VDTTM7_FED_Source
p1471
aVfeds
p1472
aVwheels
p1473
aVamcsecmap
p1474
ag100
asg21
I00
sg22
Nsg1471
g0
(g52
g2
Ntp1475
Rp1476
(dp1477
g21
I00
sg49
I01
sg23
I00
sg56
g57
sg58
g59
sg60
g59
sbsg23
I00
sg1472
g0
(g61
g62
(lp1478
I1395
aI1391
aI1390
aI1393
aI1394
atp1479
Rp1480
(dp1481
g21
I00
sg49
I00
sg23
I00
sbsg1473
g0
(g61
g62
(lp1482
I-2
aI-1
aI0
aI1
aI2
atp1483
Rp1484
(dp1485
g21
I00
sg49
I00
sg23
I00
sbsg1474
g0
(cFWCore.ParameterSet.Types
vint64
p1486
g62
(lp1487
L20015998343868L
aL20015998343868L
aL20015998343868L
aL20015998343868L
aL20015998343868L
atp1488
Rp1489
(dp1490
g21
I00
sg49
I00
sg23
I00
sbsg100
g0
(g71
g2
Ntp1491
Rp1492
(dp1493
g21
I00
sg49
I00
sg23
I00
sg50
I00
sbsg24
V/cvmfs/cms.cern.ch/slc7_amd64_gcc10/cms/cmssw/CMSSW_12_4_7/python/EventFilter/L1TXRawToDigi/twinMuxStage2Digis_cfi.py
p1494
sg26
I3
sg27
g1465
sbssV_Process__switchproducers
p1495
(dp1496
VecalDigis
p1497
g0
(cHeterogeneousCore.CUDACore.SwitchProducerCUDA
SwitchProducerCUDA
p1498
g2
Ntp1499
Rp1500
(dp1501
g17
Nsg19
(lp1502
Vcpu
p1503
asg21
I00
sg22
Nsg23
I00
sg24
V/cvmfs/cms.cern.ch/slc7_amd64_gcc10/cms/cmssw/CMSSW_12_4_7/python/FWCore/ParameterSet/Modules.py
p1504
sg26
I250
sV_caseFunctionDict
p1505
(dp1506
g1503
cFWCore.ParameterSet.Modules
_switch_cpu
p1507
sVcuda
p1508
cHeterogeneousCore.CUDACore.SwitchProducerCUDA
_switch_cuda
p1509
ssg1503
g0
(g13
g2
Ntp1510
Rp1511
(dp1512
g17
VEcalRawToDigi
p1513
sg19
(lp1514
VtccUnpacking
p1515
aVFedLabel
p1516
aVsrpUnpacking
p1517
aVsyncCheck
p1518
aVfeIdCheck
p1519
aVsilentMode
p1520
ag35
aVorderedFedList
p1521
aVeventPut
p1522
aVnumbTriggerTSamples
p1523
aVnumbXtalTSamples
p1524
aVorderedDCCIdList
p1525
ag245
aVDoRegional
p1526
aVfeUnpacking
p1527
aVforceToKeepFRData
p1528
aVheaderUnpacking
p1529
aVmemUnpacking
p1530
ag430
asg21
I00
sg22
Nsg1515
g0
(g71
g2
Ntp1531
Rp1532
(dp1533
g21
I00
sg49
I01
sg23
I00
sg50
I01
sbsg23
I01
sg1516
g0
(g52
g2
Ntp1534
Rp1535
(dp1536
g21
I00
sg49
I01
sg23
I00
sg56
Vlistfeds
p1537
sg58
g59
sg60
g59
sbsg1517
g0
(g71
g2
Ntp1538
Rp1539
(dp1540
g21
I00
sg49
I01
sg23
I00
sg50
I01
sbsg1518
g0
(g71
g2
Ntp1541
Rp1542
(dp1543
g21
I00
sg49
I01
sg23
I00
sg50
I01
sbsg1519
g0
(g71
g2
Ntp1544
Rp1545
(dp1546
g21
I00
sg49
I01
sg23
I00
sg50
I01
sbsg1520
g0
(g71
g2
Ntp1547
Rp1548
(dp1549
g21
I00
sg49
I00
sg23
I00
sg50
I01
sbsg35
g0
(g52
g2
Ntp1550
Rp1551
(dp1552
g21
I00
sg49
I01
sg23
I01
sg56
g57
sg58
g59
sg60
g59
sbsg1521
g0
(g61
g62
(lp1553
I601
aI602
aI603
aI604
aI605
aI606
aI607
aI608
aI609
aI610
aI611
aI612
aI613
aI614
aI615
aI616
aI617
aI618
aI619
aI620
aI621
aI622
aI623
aI624
aI625
aI626
aI627
aI628
aI629
aI630
aI631
aI632
aI633
aI634
aI635
aI636
aI637
aI638
aI639
aI640
aI641
aI642
aI643
aI644
aI645
aI646
aI647
aI648
aI649
aI650
aI651
aI652
aI653
aI654
atp1554
Rp1555
(dp1556
g21
I00
sg49
I01
sg23
I00
sbsg1522
g0
(g71
g2
Ntp1557
Rp1558
(dp1559
g21
I00
sg49
I01
sg23
I00
sg50
I01
sbsg1523
g0
(g75
g2
Ntp1560
Rp1561
(dp1562
g21
I00
sg49
I01
sg23
I00
sg50
I1
sbsg1524
g0
(g75
g2
Ntp1563
Rp1564
(dp1565
g21
I00
sg49
I01
sg23
I00
sg50
I10
sbsg1525
g0
(g61
g62
(lp1566
I1
aI2
aI3
aI4
aI5
aI6
aI7
aI8
aI9
aI10
aI11
aI12
aI13
aI14
aI15
aI16
aI17
aI18
aI19
aI20
aI21
aI22
aI23
aI24
aI25
aI26
aI27
aI28
aI29
aI30
aI31
aI32
aI33
aI34
aI35
aI36
aI37
aI38
aI39
aI40
aI41
aI42
aI43
aI44
aI45
aI46
aI47
aI48
aI49
aI50
aI51
aI52
aI53
aI54
atp1567
Rp1568
(dp1569
g21
I00
sg49
I01
sg23
I00
sbsg245
g0
(g61
g62
(lp1570
I601
aI602
aI603
aI604
aI605
aI606
aI607
aI608
aI609
aI610
aI611
aI612
aI613
aI614
aI615
aI616
aI617
aI618
aI619
aI620
aI621
aI622
aI623
aI624
aI625
aI626
aI627
aI628
aI629
aI630
aI631
aI632
aI633
aI634
aI635
aI636
aI637
aI638
aI639
aI640
aI641
aI642
aI643
aI644
aI645
aI646
aI647
aI648
aI649
aI650
aI651
aI652
aI653
aI654
atp1571
Rp1572
(dp1573
g21
I00
sg49
I01
sg23
I00
sbsg1526
g0
(g71
g2
Ntp1574
Rp1575
(dp1576
g21
I00
sg49
I01
sg23
I00
sg50
I00
sbsg1527
g0
(g71
g2
Ntp1577
Rp1578
(dp1579
g21
I00
sg49
I01
sg23
I00
sg50
I01
sbsg1528
g0
(g71
g2
Ntp1580
Rp1581
(dp1582
g21
I00
sg49
I01
sg23
I00
sg50
I00
sbsg1529
g0
(g71
g2
Ntp1583
Rp1584
(dp1585
g21
I00
sg49
I01
sg23
I00
sg50
I01
sbsg1530
g0
(g71
g2
Ntp1586
Rp1587
(dp1588
g21
I00
sg49
I01
sg23
I00
sg50
I01
sbsg430
g0
(g444
g2
Ntp1589
Rp1590
(dp1591
g21
I00
sg49
I00
sg23
I00
sg448
g449
sg450
Nsbsg24
g500
sg26
I7
sg27
VecalDigis@cpu
p1592
sbsg27
g1497
sbsVsiPixelDigis
p1593
g0
(g1498
g2
Ntp1594
Rp1595
(dp1596
g17
Nsg19
(lp1597
g1503
asg21
I00
sg22
Nsg23
I00
sg24
g1504
sg26
I250
sg1505
(dp1598
g1503
g1507
sg1508
g1509
ssg1503
g0
(g13
g2
Ntp1599
Rp1600
(dp1601
g17
VSiPixelRawToDigi
p1602
sg19
(lp1603
VIncludeErrors
p1604
aVUseQualityInfo
p1605
ag1168
ag1169
ag35
aVRegions
p1606
aVUsePilotBlade
p1607
ag1167
ag1166
aVSiPixelQualityLabel
p1608
ag430
asg21
I00
sg22
Nsg1604
g0
(g71
g2
Ntp1609
Rp1610
(dp1611
g21
I00
sg49
I01
sg23
I00
sg50
I01
sbsg23
I01
sg1605
g0
(g71
g2
Ntp1612
Rp1613
(dp1614
g21
I00
sg49
I01
sg23
I00
sg50
I00
sbsg1168
g0
(g61
g62
(lp1615
I29
atp1616
Rp1617
(dp1618
g21
I00
sg49
I01
sg23
I00
sbsg1169
g0
(g61
g62
(lp1619
I40
atp1620
Rp1621
(dp1622
g21
I00
sg49
I01
sg23
I00
sbsg35
g0
(g52
g2
Ntp1623
Rp1624
(dp1625
g21
I00
sg49
I01
sg23
I01
sg56
g57
sg58
g59
sg60
g59
sbsg1606
g0
(g358
g2
Ntp1626
Rp1627
(dp1628
g21
I00
sg49
I01
sg23
I00
sg19
(lp1629
Vinputs
p1630
aVdeltaPhi
p1631
aVmaxZ
p1632
aVbeamSpot
p1633
asg22
Nsg1630
g0
(g444
g2
Ntp1634
Rp1635
(dp1636
g21
I00
sg49
I01
sg23
I00
sg448
cFWCore.ParameterSet.Types
VInputTag
p1637
sg450
Nsbsg1631
g0
(g444
g2
Ntp1638
Rp1639
(dp1640
g21
I00
sg49
I01
sg23
I00
sg448
cFWCore.ParameterSet.Types
vdouble
p1641
sg450
Nsbsg1632
g0
(g444
g2
Ntp1642
Rp1643
(dp1644
g21
I00
sg49
I01
sg23
I00
sg448
g1641
sg450
Nsbsg1633
g0
(g444
g2
Ntp1645
Rp1646
(dp1647
g21
I00
sg49
I01
sg23
I00
sg448
g52
sg450
Nsbsbsg1607
g0
(g71
g2
Ntp1648
Rp1649
(dp1650
g21
I00
sg49
I01
sg23
I00
sg50
I00
sbsg1167
g0
(g71
g2
Ntp1651
Rp1652
(dp1653
g21
I00
sg49
I01
sg23
I00
sg50
I00
sbsg1166
g0
(g45
g2
Ntp1654
Rp1655
(dp1656
g21
I00
sg49
I01
sg23
I00
sg50
g59
sbsg1608
g0
(g45
g2
Ntp1657
Rp1658
(dp1659
g21
I00
sg49
I01
sg23
I00
sg50
g59
sbsg430
g0
(g444
g2
Ntp1660
Rp1661
(dp1662
g21
I00
sg49
I00
sg23
I00
sg448
g449
sg450
Nsbsg24
V/cvmfs/cms.cern.ch/slc7_amd64_gcc10/cms/cmssw/CMSSW_12_4_7/python/EventFilter/SiPixelRawToDigi/SiPixelRawToDigi_cfi.py
p1663
sg26
I8
sg27
VsiPixelDigis@cpu
p1664
sbsg27
g1593
sbssV_Process__source
p1665
g0
(cFWCore.ParameterSet.Modules
Source
p1666
g2
Ntp1667
Rp1668
(dp1669
g17
VPoolSource
p1670
sg19
(lp1671
VfileNames
p1672
asg21
I00
sg22
Nsg1672
g0
(g449
g62
(lp1673
V/store/data/Run2022D/ZeroBias/AOD/PromptReco-v2/000/357/815/00000/a2550a8c-63c1-41f3-9219-70b8994cce93.root
p1674
aV/store/data/Run2022D/ZeroBias/AOD/PromptReco-v2/000/357/815/00000/a2c040eb-29ff-4b1d-85cb-e42a040af5b5.root
p1675
aV/store/data/Run2022D/ZeroBias/AOD/PromptReco-v2/000/357/815/00000/a7bc34d5-6e28-4dda-b7eb-f079f41fb287.root
p1676
aV/store/data/Run2022D/ZeroBias/AOD/PromptReco-v2/000/357/815/00000/ab4be52e-fb9a-459d-ac8d-cc57c39c4f7b.root
p1677
aV/store/data/Run2022D/ZeroBias/AOD/PromptReco-v2/000/357/815/00000/ab5548ad-97c1-464c-9a0c-020eb66007f9.root
p1678
aV/store/data/Run2022D/ZeroBias/AOD/PromptReco-v2/000/357/815/00000/abb89e43-d249-4a19-8a8d-40b75f011663.root
p1679
aV/store/data/Run2022D/ZeroBias/AOD/PromptReco-v2/000/357/815/00000/abe9b493-4826-41c2-9e22-de3ceff31b1d.root
p1680
aV/store/data/Run2022D/ZeroBias/AOD/PromptReco-v2/000/357/815/00000/ae27786a-2243-48a3-b3d4-8b6832c93ea7.root
p1681
aV/store/data/Run2022D/ZeroBias/AOD/PromptReco-v2/000/357/815/00000/b30b6cc5-64c6-42de-a787-bde29aa6b0b8.root
p1682
aV/store/data/Run2022D/ZeroBias/AOD/PromptReco-v2/000/357/815/00000/b3cb5517-1ac6-471d-861b-454758657f37.root
p1683
aV/store/data/Run2022D/ZeroBias/AOD/PromptReco-v2/000/357/815/00000/b8930948-e9e9-43e0-92c8-bb1cd2533975.root
p1684
aV/store/data/Run2022D/ZeroBias/AOD/PromptReco-v2/000/357/815/00000/b8b37b5e-1c20-4f1c-8fa4-c3e275ec3016.root
p1685
aV/store/data/Run2022D/ZeroBias/AOD/PromptReco-v2/000/357/815/00000/b8d7a4bf-cd62-4879-b498-23b712610f3c.root
p1686
aV/store/data/Run2022D/ZeroBias/AOD/PromptReco-v2/000/357/815/00000/b8e424cf-2b29-4cae-8ba7-17039d53710a.root
p1687
aV/store/data/Run2022D/ZeroBias/AOD/PromptReco-v2/000/357/815/00000/ba57abd2-e359-4b94-8351-277d3c33b617.root
p1688
aV/store/data/Run2022D/ZeroBias/AOD/PromptReco-v2/000/357/815/00000/bcafbe07-9a07-4a78-bdd3-09a99af05366.root
p1689
aV/store/data/Run2022D/ZeroBias/AOD/PromptReco-v2/000/357/815/00000/c208a523-b00a-4194-8c6b-acdd1df7eae0.root
p1690
aV/store/data/Run2022D/ZeroBias/AOD/PromptReco-v2/000/357/815/00000/c379d418-d844-4bd7-9cba-809a7240fe11.root
p1691
aV/store/data/Run2022D/ZeroBias/AOD/PromptReco-v2/000/357/815/00000/c41a339c-fc99-4dcb-aab7-5c2597fb0c7f.root
p1692
aV/store/data/Run2022D/ZeroBias/AOD/PromptReco-v2/000/357/815/00000/ca462764-22b7-4fd3-94dd-a60e87ebcab4.root
p1693
aV/store/data/Run2022D/ZeroBias/AOD/PromptReco-v2/000/357/815/00000/cd8de443-91c3-406f-afee-8e933bcc4cca.root
p1694
aV/store/data/Run2022D/ZeroBias/AOD/PromptReco-v2/000/357/815/00000/cea6ce52-ec3f-4fbe-8ada-621e0463abf6.root
p1695
aV/store/data/Run2022D/ZeroBias/AOD/PromptReco-v2/000/357/815/00000/d3413f2f-79eb-4f9c-98b6-465d52b48cb3.root
p1696
aV/store/data/Run2022D/ZeroBias/AOD/PromptReco-v2/000/357/815/00000/d63cd12c-1635-4ac6-aaa4-0022bb0c48bc.root
p1697
ag1680
atp1698
Rp1699
(dp1700
g21
I00
sg49
I00
sg23
I00
sg743
I1
sbsg23
I00
sg24
g1504
sg26
I195
sbsV_Process__looper
p1701
NsV_Process__subProcesses
p1702
(lp1703
sV_Process__schedule
p1704
NsV_Process__analyzers
p1705
(dp1706
Vdemo
p1707
g0
(cFWCore.ParameterSet.Modules
EDAnalyzer
p1708
g2
Ntp1709
Rp1710
(dp1711
g17
VRateVsLumi_PhiEtaRecompute
p1712
sg19
(lp1713
g100
aVdoAllBXs
p1714
aVdoAllBXno0
p1715
aVrpcRecHits_tag
p1716
aVnumbBXs
p1717
aVscalersResults
p1718
aVdoRechits
p1719
aVmyBlackList
p1720
aVuncolliding
p1721
asg21
I00
sg22
Nsg100
g0
(g71
g2
Ntp1722
Rp1723
(dp1724
g21
I00
sg49
I00
sg23
I00
sg50
I00
sbsg23
I00
sg1714
g0
(g71
g2
Ntp1725
Rp1726
(dp1727
g21
I00
sg49
I00
sg23
I00
sg50
I01
sbsg1715
g0
(g71
g2
Ntp1728
Rp1729
(dp1730
g21
I00
sg49
I00
sg23
I00
sg50
I00
sbsg1716
g0
(g52
g2
Ntp1731
Rp1732
(dp1733
g21
I00
sg49
I00
sg23
I00
sg56
VrpcRecHits
p1734
sg58
g59
sg60
g59
sbsg1717
g0
(g75
g2
Ntp1735
Rp1736
(dp1737
g21
I00
sg49
I01
sg23
I00
sg50
I5
sbsg1718
g0
(g52
g2
Ntp1738
Rp1739
(dp1740
g21
I00
sg49
I01
sg23
I00
sg56
g1047
sg58
g59
sg60
g59
sbsg1719
g0
(g71
g2
Ntp1741
Rp1742
(dp1743
g21
I00
sg49
I00
sg23
I00
sg50
I01
sbsg1720
g0
(g45
g2
Ntp1744
Rp1745
(dp1746
g21
I00
sg49
I01
sg23
I00
sg50
Voff_noisy_bar_endcap_new.txt
p1747
sbsg1721
g0
(g45
g2
Ntp1748
Rp1749
(dp1750
g21
I00
sg49
I01
sg23
I00
sg50
VnonColliding_fill8148.txt
p1751
sbsg24
V/afs/cern.ch/user/f/fcarneva/CMSSW_12_4_7/src/DPGAnalysis/RateVsLumi/ConfFile_ZB_BeamStructure_PhiEtaRecompute.py
p1752
sg26
I63
sg27
g1707
sbssV_Process__outputmodules
p1753
(dp1754
sV_Process__paths
p1755
g0
(cFWCore.ParameterSet.DictTypes
SortedKeysDict
p1756
c__builtin__
dict
p1757
(dp1758
Vp
p1759
g0
(cFWCore.ParameterSet.SequenceTypes
Path
p1760
g2
Ntp1761
Rp1762
(dp1763
g21
I00
sV_seq
p1764
g0
(cFWCore.ParameterSet.SequenceTypes
_SequenceCollection
p1765
g2
Ntp1766
Rp1767
(dp1768
V_collection
p1769
(lp1770
g1710
asbsg23
I00
sV_tasks
p1771
g0
(cFWCore.ParameterSet.OrderedSet
OrderedSet
p1772
g2
Ntp1773
Rp1774
(dp1775
Vend
p1776
(lp1777
Nag1777
ag1777
asVmap
p1778
(dp1779
sbsg27
g1759
sbstp1780
Rp1781
(dp1782
Vlist
p1783
(lp1784
g1759
asbsV_Process__endpaths
p1785
g0
(g1756
g1757
(dp1786
tp1787
Rp1788
(dp1789
g1783
(lp1790
sbsV_Process__finalpaths
p1791
g0
(g1756
g1757
(dp1792
tp1793
Rp1794
(dp1795
g1783
(lp1796
sbsV_Process__sequences
p1797
(dp1798
g32
g0
(cFWCore.ParameterSet.SequenceTypes
Sequence
p1799
g2
Ntp1800
Rp1801
(dp1802
g21
I00
sg1764
Nsg23
I00
sg1771
g0
(g1772
g2
Ntp1803
Rp1804
(dp1805
g1776
(lp1806
Na(lp1807
g0
(cFWCore.ParameterSet.SequenceTypes
Task
p1808
g2
Ntp1809
Rp1810
(dp1811
g1769
g0
(g1772
g2
Ntp1812
Rp1813
(dp1814
g1776
(lp1815
Na(lp1816
g0
(g1808
g2
Ntp1817
Rp1818
(dp1819
g1769
g0
(g1772
g2
Ntp1820
Rp1821
(dp1822
g1776
(lp1823
Na(lp1824
g650
a(lp1825
g621
a(lp1826
g561
a(lp1827
g454
a(lp1828
g305
ag1823
ag1827
aag1826
aag1825
aag1824
aag1823
aag1828
asg1778
(dp1829
g305
g1828
sg454
g1827
sg561
g1826
sg621
g1825
sg650
g1824
ssbsg27
VL1TRawToDigi_Legacy
p1830
sbag1815
ag1815
aag1816
asg1778
(dp1831
g1818
g1816
ssbsg27
VL1TRawToDigiTask
p1832
sbag1806
ag1806
aag1807
asg1778
(dp1833
g1810
g1807
ssbsg27
g32
sbsg345
g0
(g1799
g2
Ntp1834
Rp1835
(dp1836
g21
I00
sg1764
Nsg23
I00
sg1771
g0
(g1772
g2
Ntp1837
Rp1838
(dp1839
g1776
(lp1840
Na(lp1841
g0
(g1808
g2
Ntp1842
Rp1843
(dp1844
g1769
g0
(g1772
g2
Ntp1845
Rp1846
(dp1847
g1776
(lp1848
Na(lp1849
g1049
a(lp1850
g1313
a(lp1851
g1147
a(lp1852
g238
a(lp1853
g1019
a(lp1854
g904
a(lp1855
g811
a(lp1856
g691
a(lp1857
g503
a(lp1858
g0
(g1808
g2
Ntp1859
Rp1860
(dp1861
g1769
g0
(g1772
g2
Ntp1862
Rp1863
(dp1864
g1776
(lp1865
Na(lp1866
g1500
ag1865
ag1865
aag1866
asg1778
(dp1867
g1500
g1866
ssbsg27
VecalDigisTask
p1868
sba(lp1869
g1219
a(lp1870
g0
(g1808
g2
Ntp1871
Rp1872
(dp1873
g1769
g0
(g1772
g2
Ntp1874
Rp1875
(dp1876
g1776
(lp1877
Na(lp1878
g1595
ag1877
ag1877
aag1878
asg1778
(dp1879
g1595
g1878
ssbsg27
VsiPixelDigisTask
p1880
sba(lp1881
g1810
ag1848
ag1870
aag1869
aag1858
aag1857
aag1856
aag1855
aag1854
aag1853
aag1852
aag1851
aag1850
aag1849
aag1848
aag1881
asg1778
(dp1882
g1810
g1881
sg1872
g1870
sg1219
g1869
sg1860
g1858
sg503
g1857
sg691
g1856
sg811
g1855
sg904
g1854
sg1019
g1853
sg238
g1852
sg1147
g1851
sg1313
g1850
sg1049
g1849
ssbsg27
VRawToDigiTask
p1883
sbag1840
ag1840
aag1841
asg1778
(dp1884
g1843
g1841
ssbsg27
g345
sbsVRawToDigi_ecalOnly
p1885
g0
(g1799
g2
Ntp1886
Rp1887
(dp1888
g21
I00
sg1764
Nsg23
I00
sg1771
g0
(g1772
g2
Ntp1889
Rp1890
(dp1891
g1776
(lp1892
Na(lp1893
g0
(g1808
g2
Ntp1894
Rp1895
(dp1896
g1769
g0
(g1772
g2
Ntp1897
Rp1898
(dp1899
g1776
(lp1900
Na(lp1901
g1147
a(lp1902
g503
a(lp1903
g1860
ag1900
ag1902
aag1901
aag1900
aag1903
asg1778
(dp1904
g1860
g1903
sg503
g1902
sg1147
g1901
ssbsg27
VRawToDigiTask_ecalOnly
p1905
sbag1892
ag1892
aag1893
asg1778
(dp1906
g1895
g1893
ssbsg27
g1885
sbsVRawToDigi_hcalOnly
p1907
g0
(g1799
g2
Ntp1908
Rp1909
(dp1910
g21
I00
sg1764
Nsg23
I00
sg1771
g0
(g1772
g2
Ntp1911
Rp1912
(dp1913
g1776
(lp1914
Na(lp1915
g0
(g1808
g2
Ntp1916
Rp1917
(dp1918
g1769
g0
(g1772
g2
Ntp1919
Rp1920
(dp1921
g1776
(lp1922
Na(lp1923
g691
ag1922
ag1922
aag1923
asg1778
(dp1924
g691
g1923
ssbsg27
VRawToDigiTask_hcalOnly
p1925
sbag1914
ag1914
aag1915
asg1778
(dp1926
g1917
g1915
ssbsg27
g1907
sbsVRawToDigi_noTk
p1927
g0
(g1799
g2
Ntp1928
Rp1929
(dp1930
g21
I00
sg1764
Nsg23
I00
sg1771
g0
(g1772
g2
Ntp1931
Rp1932
(dp1933
g1776
(lp1934
Na(lp1935
g0
(g1808
g2
Ntp1936
Rp1937
(dp1938
g1769
g0
(g1772
g2
Ntp1939
Rp1940
(dp1941
g1776
(lp1942
Na(lp1943
g1049
a(lp1944
g1313
a(lp1945
g1147
a(lp1946
g238
a(lp1947
g1019
a(lp1948
g904
a(lp1949
g811
a(lp1950
g691
a(lp1951
g503
a(lp1952
g1860
a(lp1953
g1810
ag1942
ag1952
aag1951
aag1950
aag1949
aag1948
aag1947
aag1946
aag1945
aag1944
aag1943
aag1942
aag1953
asg1778
(dp1954
g1810
g1953
sg1860
g1952
sg503
g1951
sg691
g1950
sg811
g1949
sg904
g1948
sg1019
g1947
sg238
g1946
sg1147
g1945
sg1313
g1944
sg1049
g1943
ssbsg27
VRawToDigiTask_noTk
p1955
sbag1934
ag1934
aag1935
asg1778
(dp1956
g1937
g1935
ssbsg27
g1927
sbsVRawToDigi_pixelOnly
p1957
g0
(g1799
g2
Ntp1958
Rp1959
(dp1960
g21
I00
sg1764
Nsg23
I00
sg1771
g0
(g1772
g2
Ntp1961
Rp1962
(dp1963
g1776
(lp1964
Na(lp1965
g0
(g1808
g2
Ntp1966
Rp1967
(dp1968
g1769
g0
(g1772
g2
Ntp1969
Rp1970
(dp1971
g1776
(lp1972
Na(lp1973
g1147
a(lp1974
g1872
ag1972
ag1973
aag1972
aag1974
asg1778
(dp1975
g1872
g1974
sg1147
g1973
ssbsg27
VRawToDigiTask_pixelOnly
p1976
sbag1964
ag1964
aag1965
asg1778
(dp1977
g1967
g1965
ssbsg27
g1957
sbsVctppsRawToDigi
p1978
g0
(g1799
g2
Ntp1979
Rp1980
(dp1981
g21
I00
sg1764
Nsg23
I00
sg1771
g0
(g1772
g2
Ntp1982
Rp1983
(dp1984
g1776
(lp1985
Na(lp1986
g0
(g1808
g2
Ntp1987
Rp1988
(dp1989
g1769
g0
(g1772
g2
Ntp1990
Rp1991
(dp1992
g1776
(lp1993
Na(lp1994
g422
a(lp1995
g1401
a(lp1996
g337
a(lp1997
g1337
a(lp1998
g1453
ag1993
ag1997
aag1996
aag1995
aag1994
aag1993
aag1998
asg1778
(dp1999
g1453
g1998
sg1337
g1997
sg337
g1996
sg1401
g1995
sg422
g1994
ssbsg27
VctppsRawToDigiTask
p2000
sbag1985
ag1985
aag1986
asg1778
(dp2001
g1988
g1986
ssbsg27
g1978
sbssV_Process__tasks
p2002
(dp2003
g1832
g1810
sg1830
g1818
sVL1TRawToDigi_Stage1
p2004
g0
(g1808
g2
Ntp2005
Rp2006
(dp2007
g1769
g0
(g1772
g2
Ntp2008
Rp2009
(dp2010
g1776
(lp2011
Na(lp2012
g561
a(lp2013
g181
a(lp2014
g142
a(lp2015
g125
a(lp2016
g621
a(lp2017
g454
a(lp2018
g305
ag2011
ag2017
aag2016
aag2015
aag2014
aag2013
aag2012
aag2011
aag2018
asg1778
(dp2019
g305
g2018
sg454
g2017
sg621
g2016
sg125
g2015
sg142
g2014
sg181
g2013
sg561
g2012
ssbsg27
g2004
sbsVL1TRawToDigi_Stage2
p2020
g0
(g1808
g2
Ntp2021
Rp2022
(dp2023
g1769
g0
(g1772
g2
Ntp2024
Rp2025
(dp2026
g1776
(lp2027
Na(lp2028
g674
a(lp2029
g604
a(lp2030
g211
a(lp2031
g97
a(lp2032
g534
a(lp2033
g1074
a(lp2034
g1035
a(lp2035
g30
a(lp2036
g1467
a(lp2037
g1122
ag2027
ag2036
aag2035
aag2034
aag2033
aag2032
aag2031
aag2030
aag2029
aag2028
aag2027
aag2037
asg1778
(dp2038
g1122
g2037
sg1467
g2036
sg30
g2035
sg1035
g2034
sg1074
g2033
sg534
g2032
sg97
g2031
sg211
g2030
sg604
g2029
sg674
g2028
ssbsg27
g2020
sbsg1883
g1843
sg1905
g1895
sg1925
g1917
sg1955
g1937
sg1976
g1967
sg2000
g1988
sg1868
g1860
sg1880
g1872
ssV_Process__conditionaltasks
p2039
(dp2040
sV_Process__services
p2041
(dp2042
VMessageLogger
p2043
g0
(cFWCore.ParameterSet.Modules
Service
p2044
g2
Ntp2045
Rp2046
(dp2047
g17
g2043
sg19
(lp2048
VsuppressWarning
p2049
aVsuppressFwkInfo
p2050
aVsuppressInfo
p2051
aVsuppressDebug
p2052
aVdebugModules
p2053
aVcout
p2054
aVdefault
p2055
aVcerr
p2056
aVfiles
p2057
asg21
I00
sg22
g0
(g444
g2
Ntp2058
Rp2059
(dp2060
g21
I00
sg49
I00
sg23
I00
sg448
g0
(cFWCore.ParameterSet.Types
_PSetTemplate
p2061
g2
Ntp2062
Rp2063
(dp2064
V_pset
p2065
g0
(g358
g2
Ntp2066
Rp2067
(dp2068
g21
I00
sg49
I01
sg23
I00
sg19
(lp2069
VreportEvery
p2070
aVlimit
p2071
aVtimespan
p2072
asg22
Nsg2070
g0
(g75
g2
Ntp2073
Rp2074
(dp2075
g21
I00
sg49
I00
sg23
I00
sg50
I1
sbsg2071
g0
(g444
g2
Ntp2076
Rp2077
(dp2078
g21
I00
sg49
I00
sg23
I00
sg448
g75
sg450
Nsbsg2072
g0
(g444
g2
Ntp2079
Rp2080
(dp2081
g21
I00
sg49
I00
sg23
I00
sg448
g75
sg450
NsbsbsV_PSetTemplate__value
p2082
Nsbsg450
Nsbsg2049
g0
(g449
g62
(lp2083
tp2084
Rp2085
(dp2086
g21
I00
sg49
I00
sg23
I00
sg743
I1
sbsg23
I01
sg2050
g0
(g449
g62
(lp2087
tp2088
Rp2089
(dp2090
g21
I00
sg49
I00
sg23
I00
sg743
I1
sbsg2051
g0
(g449
g62
(lp2091
tp2092
Rp2093
(dp2094
g21
I00
sg49
I00
sg23
I00
sg743
I1
sbsg2052
g0
(g449
g62
(lp2095
tp2096
Rp2097
(dp2098
g21
I00
sg49
I00
sg23
I00
sg743
I1
sbsg2053
g0
(g449
g62
(lp2099
tp2100
Rp2101
(dp2102
g21
I00
sg49
I00
sg23
I00
sg743
I1
sbsg2054
g0
(g358
g2
Ntp2103
Rp2104
(dp2105
g21
I00
sg49
I00
sg23
I00
sg19
(lp2106
VnoLineBreaks
p2107
aVnoTimeStamps
p2108
aVlineLength
p2109
aVthreshold
p2110
aVstatisticsThreshold
p2111
aVenableStatistics
p2112
aVresetStatistics
p2113
aVenable
p2114
asg22
g2059
sg2107
g0
(g444
g2
Ntp2115
Rp2116
(dp2117
g21
I00
sg49
I00
sg23
I00
sg448
g71
sg450
Nsbsg2108
g0
(g444
g2
Ntp2118
Rp2119
(dp2120
g21
I00
sg49
I00
sg23
I00
sg448
g71
sg450
Nsbsg2109
g0
(g444
g2
Ntp2121
Rp2122
(dp2123
g21
I00
sg49
I00
sg23
I00
sg448
g75
sg450
Nsbsg2110
g0
(g444
g2
Ntp2124
Rp2125
(dp2126
g21
I00
sg49
I00
sg23
I00
sg448
g45
sg450
Nsbsg2111
g0
(g444
g2
Ntp2127
Rp2128
(dp2129
g21
I00
sg49
I00
sg23
I00
sg448
g45
sg450
Nsbsg2112
g0
(g71
g2
Ntp2130
Rp2131
(dp2132
g21
I00
sg49
I00
sg23
I00
sg50
I00
sbsg2113
g0
(g71
g2
Ntp2133
Rp2134
(dp2135
g21
I00
sg49
I00
sg23
I00
sg50
I00
sbsg2114
g0
(g71
g2
Ntp2136
Rp2137
(dp2138
g21
I00
sg49
I00
sg23
I00
sg50
I00
sbsbsg2055
g0
(g358
g2
Ntp2139
Rp2140
(dp2141
g21
I00
sg49
I00
sg23
I00
sg19
(lp2142
g2070
ag2071
ag2072
ag2107
ag2108
ag2109
ag2110
ag2111
asg22
g2059
sg2070
g0
(g75
g2
Ntp2143
Rp2144
(dp2145
g21
I00
sg49
I00
sg23
I00
sg50
I1
sbsg2071
g0
(g444
g2
Ntp2146
Rp2147
(dp2148
g21
I00
sg49
I00
sg23
I00
sg448
g75
sg450
Nsbsg2072
g0
(g444
g2
Ntp2149
Rp2150
(dp2151
g21
I00
sg49
I00
sg23
I00
sg448
g75
sg450
Nsbsg2107
g0
(g71
g2
Ntp2152
Rp2153
(dp2154
g21
I00
sg49
I00
sg23
I00
sg50
I00
sbsg2108
g0
(g71
g2
Ntp2155
Rp2156
(dp2157
g21
I00
sg49
I00
sg23
I00
sg50
I00
sbsg2109
g0
(g75
g2
Ntp2158
Rp2159
(dp2160
g21
I00
sg49
I00
sg23
I00
sg50
I80
sbsg2110
g0
(g45
g2
Ntp2161
Rp2162
(dp2163
g21
I00
sg49
I00
sg23
I00
sg50
VINFO
p2164
sbsg2111
g0
(g45
g2
Ntp2165
Rp2166
(dp2167
g21
I00
sg49
I00
sg23
I00
sg50
g2164
sbsbsg2056
g0
(g358
g2
Ntp2168
Rp2169
(dp2170
g21
I00
sg49
I00
sg23
I01
sg19
(lp2171
g2107
ag2108
ag2109
ag2110
ag2111
ag2114
ag2112
ag2113
ag2164
aVFwkReport
p2172
ag2055
aVRoot_NoDictionary
p2173
aVFwkSummary
p2174
asg22
g2059
sg2107
g0
(g444
g2
Ntp2175
Rp2176
(dp2177
g21
I00
sg49
I00
sg23
I00
sg448
g71
sg450
Nsbsg2108
g0
(g71
g2
Ntp2178
Rp2179
(dp2180
g21
I00
sg49
I00
sg23
I00
sg50
I00
sbsg2109
g0
(g444
g2
Ntp2181
Rp2182
(dp2183
g21
I00
sg49
I00
sg23
I00
sg448
g75
sg450
Nsbsg2110
g0
(g45
g2
Ntp2184
Rp2185
(dp2186
g21
I00
sg49
I00
sg23
I00
sg50
VDEBUG
p2187
sbsg2111
g0
(g45
g2
Ntp2188
Rp2189
(dp2190
g21
I00
sg49
I00
sg23
I00
sg50
VWARNING
p2191
sbsg2114
g0
(g71
g2
Ntp2192
Rp2193
(dp2194
g21
I00
sg49
I00
sg23
I00
sg50
I01
sbsg2112
g0
(g71
g2
Ntp2195
Rp2196
(dp2197
g21
I00
sg49
I00
sg23
I00
sg50
I01
sbsg2113
g0
(g71
g2
Ntp2198
Rp2199
(dp2200
g21
I00
sg49
I00
sg23
I00
sg50
I00
sbsg2164
g0
(g358
g2
Ntp2201
Rp2202
(dp2203
g21
I00
sg49
I00
sg23
I00
sg19
(lp2204
g2071
asg22
Nsg2071
g0
(g75
g2
Ntp2205
Rp2206
(dp2207
g21
I00
sg49
I00
sg23
I00
sg50
I0
sbsbsg2172
g0
(g358
g2
Ntp2208
Rp2209
(dp2210
g21
I00
sg49
I00
sg23
I01
sg19
(lp2211
g2070
ag2071
asg22
Nsg2070
g0
(g75
g2
Ntp2212
Rp2213
(dp2214
g21
I00
sg49
I00
sg23
I00
sg50
I1
sbsg2071
g0
(g75
g2
Ntp2215
Rp2216
(dp2217
g21
I00
sg49
I00
sg23
I00
sg50
I10000000
sbsbsg2055
g0
(g358
g2
Ntp2218
Rp2219
(dp2220
g21
I00
sg49
I00
sg23
I00
sg19
(lp2221
g2071
asg22
Nsg2071
g0
(g75
g2
Ntp2222
Rp2223
(dp2224
g21
I00
sg49
I00
sg23
I00
sg50
I10000000
sbsbsg2173
g0
(g358
g2
Ntp2225
Rp2226
(dp2227
g21
I00
sg49
I00
sg23
I00
sg19
(lp2228
g2071
asg22
Nsg2071
g0
(g75
g2
Ntp2229
Rp2230
(dp2231
g21
I00
sg49
I00
sg23
I00
sg50
I0
sbsbsg2174
g0
(g358
g2
Ntp2232
Rp2233
(dp2234
g21
I00
sg49
I00
sg23
I00
sg19
(lp2235
g2070
ag2071
asg22
Nsg2070
g0
(g75
g2
Ntp2236
Rp2237
(dp2238
g21
I00
sg49
I00
sg23
I00
sg50
I1
sbsg2071
g0
(g75
g2
Ntp2239
Rp2240
(dp2241
g21
I00
sg49
I00
sg23
I00
sg50
I10000000
sbsbsbsg2057
g0
(g358
g2
Ntp2242
Rp2243
(dp2244
g21
I00
sg49
I00
sg23
I00
sg19
(lp2245
sg22
g0
(g444
g2
Ntp2246
Rp2247
(dp2248
g21
I00
sg49
I00
sg23
I00
sg448
g0
(g2061
g2
Ntp2249
Rp2250
(dp2251
g2065
g0
(g358
g2
Ntp2252
Rp2253
(dp2254
g21
I00
sg49
I01
sg23
I00
sg19
(lp2255
g2107
ag2108
ag2109
ag2110
ag2111
ag2112
ag2113
aVfilename
p2256
aVextension
p2257
aVoutput
p2258
asg22
g2059
sg2107
g0
(g444
g2
Ntp2259
Rp2260
(dp2261
g21
I00
sg49
I00
sg23
I00
sg448
g71
sg450
Nsbsg2108
g0
(g444
g2
Ntp2262
Rp2263
(dp2264
g21
I00
sg49
I00
sg23
I00
sg448
g71
sg450
Nsbsg2109
g0
(g444
g2
Ntp2265
Rp2266
(dp2267
g21
I00
sg49
I00
sg23
I00
sg448
g75
sg450
Nsbsg2110
g0
(g444
g2
Ntp2268
Rp2269
(dp2270
g21
I00
sg49
I00
sg23
I00
sg448
g45
sg450
Nsbsg2111
g0
(g444
g2
Ntp2271
Rp2272
(dp2273
g21
I00
sg49
I00
sg23
I00
sg448
g45
sg450
Nsbsg2112
g0
(g71
g2
Ntp2274
Rp2275
(dp2276
g21
I00
sg49
I00
sg23
I00
sg50
I00
sbsg2113
g0
(g71
g2
Ntp2277
Rp2278
(dp2279
g21
I00
sg49
I00
sg23
I00
sg50
I00
sbsg2256
g0
(g444
g2
Ntp2280
Rp2281
(dp2282
g21
I00
sg49
I00
sg23
I00
sg448
g45
sg450
Nsbsg2257
g0
(g444
g2
Ntp2283
Rp2284
(dp2285
g21
I00
sg49
I00
sg23
I00
sg448
g45
sg450
Nsbsg2258
g0
(g444
g2
Ntp2286
Rp2287
(dp2288
g21
I00
sg49
I00
sg23
I00
sg448
g45
sg450
Nsbsbsg2082
Nsbsg450
Nsbsbsg24
g1504
sg26
I13
sV_inProcess
p2289
I00
sbsVDQMStore
p2290
g0
(g2044
g2
Ntp2291
Rp2292
(dp2293
g17
g2290
sg19
(lp2294
g459
aVsaveByLumi
p2295
aVMEsToSave
p2296
aVtrackME
p2297
aVassertLegacySafe
p2298
aVenableMultiThread
p2299
asg21
I00
sg22
Nsg459
g0
(g75
g2
Ntp2300
Rp2301
(dp2302
g21
I00
sg49
I00
sg23
I00
sg50
I0
sbsg23
I00
sg2295
g0
(g71
g2
Ntp2303
Rp2304
(dp2305
g21
I00
sg49
I00
sg23
I00
sg50
I00
sbsg2296
g0
(g449
g62
(lp2306
VDT/02-Segments/03-MeanT0/T0MeanAllWheels
p2307
aVEcalBarrel/EBOccupancyTask/EBOT digi occupancy
p2308
aVEcalEndcap/EEOccupancyTask/EEOT digi occupancy EE -
p2309
aVEcalEndcap/EEOccupancyTask/EEOT digi occupancy EE +
p2310
aVMuons/MuonRecoAnalyzer/
p2311
aVMuons/MuonIdDQM/GlobalMuons/
p2312
aVPixelPhase1/Phase1_MechanicalView/
p2313
aVPixelPhase1/Tracks/
p2314
aVSiStrip/MechanicalView/
p2315
aVTracking/PrimaryVertices/highPurityTracks/pt_0to1/offline/
p2316
aVTracking/TrackParameters/generalTracks/LSanalysis/
p2317
aVTracking/TrackParameters/highPurityTracks/pt_1/LSanalysis/
p2318
aVTracking/TrackParameters/highPurityTracks/pt_0to1/LSanalysis/
p2319
aVTracking/TrackParameters/highPurityTracks/dzPV0p1/LSanalysis/
p2320
aVTracking/TrackParameters/generalTracks/GeneralProperties/
p2321
aVTracking/TrackParameters/highPurityTracks/pt_1/GeneralProperties/
p2322
aVTracking/TrackParameters/highPurityTracks/pt_0to1/GeneralProperties/
p2323
aVTracking/TrackParameters/highPurityTracks/dzPV0p1/GeneralProperties/
p2324
aVTracking/TrackParameters/generalTracks/HitProperties/
p2325
aVTracking/TrackParameters/highPurityTracks/pt_1/HitProperties/
p2326
aVTracking/TrackParameters/highPurityTracks/pt_0to1/HitProperties/
p2327
aVTracking/TrackParameters/highPurityTracks/dzPV0p1/HitProperties/
p2328
aVTracking/TrackParameters/generalTracks/HitProperties/Pixel/
p2329
aVTracking/TrackParameters/highPurityTracks/pt_1/HitProperties/Pixel/
p2330
aVTracking/TrackParameters/highPurityTracks/pt_0to1/HitProperties/Pixel/
p2331
aVTracking/TrackParameters/highPurityTracks/dzPV0p1/HitProperties/Pixel/
p2332
aVTracking/TrackParameters/generalTracks/HitProperties/Strip/
p2333
aVTracking/TrackParameters/highPurityTracks/pt_1/HitProperties/Strip/
p2334
aVTracking/TrackParameters/highPurityTracks/pt_0to1/HitProperties/Strip/
p2335
aVTracking/TrackParameters/highPurityTracks/dzPV0p1/HitProperties/Strip/
p2336
atp2337
Rp2338
(dp2339
g21
I00
sg49
I00
sg23
I00
sg743
I1
sbsg2297
g0
(g45
g2
Ntp2340
Rp2341
(dp2342
g21
I00
sg49
I00
sg23
I00
sg50
g59
sbsg2298
g0
(g71
g2
Ntp2343
Rp2344
(dp2345
g21
I00
sg49
I00
sg23
I00
sg50
I00
sbsg2299
g0
(g71
g2
Ntp2346
Rp2347
(dp2348
g21
I00
sg49
I00
sg23
I00
sg50
I01
sbsg24
g1504
sg26
I13
sg2289
I01
sbsVRandomNumberGeneratorService
p2349
g0
(g2044
g2
Ntp2350
Rp2351
(dp2352
g17
g2349
sg19
(lp2353
VexternalLHEProducer
p2354
aVgenerator
p2355
aVVtxSmeared
p2356
aVLHCTransport
p2357
aVhiSignalLHCTransport
p2358
aVg4SimHits
p2359
aVmix
p2360
aVmixData
p2361
aVsimSiStripDigiSimLink
p2362
aVsimMuonDTDigis
p2363
aVsimMuonCSCDigis
p2364
aVsimMuonRPCDigis
p2365
aVhiSignal
p2366
aVhiSignalG4SimHits
p2367
aVfamosPileUp
p2368
aVmixGenPU
p2369
aVmixSimCaloHits
p2370
aVmixRecoTracks
p2371
aVfastSimProducer
p2372
aVfastTrackerRecHits
p2373
aVecalRecHit
p2374
aVecalPreshowerRecHit
p2375
aVhbhereco
p2376
aVhoreco
p2377
aVhfreco
p2378
aVparamMuons
p2379
aVl1ParamMuons
p2380
aVMuonSimHits
p2381
aVCTPPSFastRecHits
p2382
aVsimBeamSpotFilter
p2383
aVRPixDetDigitizer
p2384
aVRPSiDetDigitizer
p2385
aVsaveFileName
p2386
asg21
I00
sg22
Nsg2354
g0
(g358
g2
Ntp2387
Rp2388
(dp2389
g21
I00
sg49
I01
sg23
I00
sg19
(lp2390
VinitialSeed
p2391
aVengineName
p2392
asg22
Nsg2391
g0
(g67
g2
Ntp2393
Rp2394
(dp2395
g21
I00
sg49
I00
sg23
I00
sg50
I234567
sbsg2392
g0
(g45
g2
Ntp2396
Rp2397
(dp2398
g21
I00
sg49
I00
sg23
I00
sg50
VMixMaxRng
p2399
sbsbsg23
I00
sg2355
g0
(g358
g2
Ntp2400
Rp2401
(dp2402
g21
I00
sg49
I01
sg23
I00
sg19
(lp2403
g2391
ag2392
asg22
Nsg2391
g0
(g67
g2
Ntp2404
Rp2405
(dp2406
g21
I00
sg49
I00
sg23
I00
sg50
I123456789
sbsg2392
g2397
sbsg2356
g0
(g358
g2
Ntp2407
Rp2408
(dp2409
g21
I00
sg49
I01
sg23
I00
sg19
(lp2410
g2391
ag2392
asg22
Nsg2391
g0
(g67
g2
Ntp2411
Rp2412
(dp2413
g21
I00
sg49
I00
sg23
I00
sg50
I98765432
sbsg2392
g2397
sbsg2357
g0
(g358
g2
Ntp2414
Rp2415
(dp2416
g21
I00
sg49
I01
sg23
I00
sg19
(lp2417
g2391
ag2392
asg22
Nsg2391
g0
(g67
g2
Ntp2418
Rp2419
(dp2420
g21
I00
sg49
I00
sg23
I00
sg50
I87654321
sbsg2392
g0
(g45
g2
Ntp2421
Rp2422
(dp2423
g21
I00
sg49
I00
sg23
I00
sg50
VTRandom3
p2424
sbsbsg2358
g0
(g358
g2
Ntp2425
Rp2426
(dp2427
g21
I00
sg49
I01
sg23
I00
sg19
(lp2428
g2391
ag2392
asg22
Nsg2391
g0
(g67
g2
Ntp2429
Rp2430
(dp2431
g21
I00
sg49
I00
sg23
I00
sg50
I88776655
sbsg2392
g0
(g45
g2
Ntp2432
Rp2433
(dp2434
g21
I00
sg49
I00
sg23
I00
sg50
g2399
sbsbsg2359
g0
(g358
g2
Ntp2435
Rp2436
(dp2437
g21
I00
sg49
I01
sg23
I00
sg19
(lp2438
g2391
ag2392
asg22
Nsg2391
g0
(g67
g2
Ntp2439
Rp2440
(dp2441
g21
I00
sg49
I00
sg23
I00
sg50
I11
sbsg2392
g2397
sbsg2360
g0
(g358
g2
Ntp2442
Rp2443
(dp2444
g21
I00
sg49
I01
sg23
I00
sg19
(lp2445
g2391
ag2392
asg22
Nsg2391
g0
(g67
g2
Ntp2446
Rp2447
(dp2448
g21
I00
sg49
I00
sg23
I00
sg50
I12345
sbsg2392
g2397
sbsg2361
g0
(g358
g2
Ntp2449
Rp2450
(dp2451
g21
I00
sg49
I01
sg23
I00
sg19
(lp2452
g2391
ag2392
asg22
Nsg2391
g0
(g67
g2
Ntp2453
Rp2454
(dp2455
g21
I00
sg49
I00
sg23
I00
sg50
I12345
sbsg2392
g2397
sbsg2362
g0
(g358
g2
Ntp2456
Rp2457
(dp2458
g21
I00
sg49
I01
sg23
I00
sg19
(lp2459
g2391
ag2392
asg22
Nsg2391
g0
(g67
g2
Ntp2460
Rp2461
(dp2462
g21
I00
sg49
I00
sg23
I00
sg50
I1234567
sbsg2392
g2397
sbsg2363
g0
(g358
g2
Ntp2463
Rp2464
(dp2465
g21
I00
sg49
I01
sg23
I00
sg19
(lp2466
g2391
ag2392
asg22
Nsg2391
g0
(g67
g2
Ntp2467
Rp2468
(dp2469
g21
I00
sg49
I00
sg23
I00
sg50
I1234567
sbsg2392
g2397
sbsg2364
g0
(g358
g2
Ntp2470
Rp2471
(dp2472
g21
I00
sg49
I01
sg23
I00
sg19
(lp2473
g2391
ag2392
asg22
Nsg2391
g0
(g67
g2
Ntp2474
Rp2475
(dp2476
g21
I00
sg49
I00
sg23
I00
sg50
I11223344
sbsg2392
g2397
sbsg2365
g0
(g358
g2
Ntp2477
Rp2478
(dp2479
g21
I00
sg49
I01
sg23
I00
sg19
(lp2480
g2391
ag2392
asg22
Nsg2391
g0
(g67
g2
Ntp2481
Rp2482
(dp2483
g21
I00
sg49
I00
sg23
I00
sg50
I1234567
sbsg2392
g2397
sbsg2366
g0
(g358
g2
Ntp2484
Rp2485
(dp2486
g21
I00
sg49
I01
sg23
I00
sg19
(lp2487
g2391
ag2392
asg22
Nsg2391
g0
(g67
g2
Ntp2488
Rp2489
(dp2490
g21
I00
sg49
I00
sg23
I00
sg50
I123456789
sbsg2392
g2397
sbsg2367
g0
(g358
g2
Ntp2491
Rp2492
(dp2493
g21
I00
sg49
I01
sg23
I00
sg19
(lp2494
g2391
ag2392
asg22
Nsg2391
g0
(g67
g2
Ntp2495
Rp2496
(dp2497
g21
I00
sg49
I00
sg23
I00
sg50
I11
sbsg2392
g2397
sbsg2368
g0
(g358
g2
Ntp2498
Rp2499
(dp2500
g21
I00
sg49
I01
sg23
I00
sg19
(lp2501
g2391
ag2392
asg22
Nsg2391
g0
(g67
g2
Ntp2502
Rp2503
(dp2504
g21
I00
sg49
I00
sg23
I00
sg50
I918273
sbsg2392
g2433
sbsg2369
g0
(g358
g2
Ntp2505
Rp2506
(dp2507
g21
I00
sg49
I01
sg23
I00
sg19
(lp2508
g2391
ag2392
asg22
Nsg2391
g0
(g67
g2
Ntp2509
Rp2510
(dp2511
g21
I00
sg49
I00
sg23
I00
sg50
I918273
sbsg2392
g2433
sbsg2370
g0
(g358
g2
Ntp2512
Rp2513
(dp2514
g21
I00
sg49
I01
sg23
I00
sg19
(lp2515
g2391
ag2392
asg22
Nsg2391
g0
(g67
g2
Ntp2516
Rp2517
(dp2518
g21
I00
sg49
I00
sg23
I00
sg50
I918273
sbsg2392
g2433
sbsg2371
g0
(g358
g2
Ntp2519
Rp2520
(dp2521
g21
I00
sg49
I01
sg23
I00
sg19
(lp2522
g2391
ag2392
asg22
Nsg2391
g0
(g67
g2
Ntp2523
Rp2524
(dp2525
g21
I00
sg49
I00
sg23
I00
sg50
I918273
sbsg2392
g2433
sbsg2372
g0
(g358
g2
Ntp2526
Rp2527
(dp2528
g21
I00
sg49
I01
sg23
I00
sg19
(lp2529
g2391
ag2392
asg22
Nsg2391
g0
(g67
g2
Ntp2530
Rp2531
(dp2532
g21
I00
sg49
I00
sg23
I00
sg50
I13579
sbsg2392
g2433
sbsg2373
g0
(g358
g2
Ntp2533
Rp2534
(dp2535
g21
I00
sg49
I01
sg23
I00
sg19
(lp2536
g2391
ag2392
asg22
Nsg2391
g0
(g67
g2
Ntp2537
Rp2538
(dp2539
g21
I00
sg49
I00
sg23
I00
sg50
I24680
sbsg2392
g2433
sbsg2374
g0
(g358
g2
Ntp2540
Rp2541
(dp2542
g21
I00
sg49
I01
sg23
I00
sg19
(lp2543
g2391
ag2392
asg22
Nsg2391
g0
(g67
g2
Ntp2544
Rp2545
(dp2546
g21
I00
sg49
I00
sg23
I00
sg50
I654321
sbsg2392
g2433
sbsg2375
g0
(g358
g2
Ntp2547
Rp2548
(dp2549
g21
I00
sg49
I01
sg23
I00
sg19
(lp2550
g2391
ag2392
asg22
Nsg2391
g0
(g67
g2
Ntp2551
Rp2552
(dp2553
g21
I00
sg49
I00
sg23
I00
sg50
I6541321
sbsg2392
g2433
sbsg2376
g0
(g358
g2
Ntp2554
Rp2555
(dp2556
g21
I00
sg49
I01
sg23
I00
sg19
(lp2557
g2391
ag2392
asg22
Nsg2391
g0
(g67
g2
Ntp2558
Rp2559
(dp2560
g21
I00
sg49
I00
sg23
I00
sg50
I541321
sbsg2392
g2433
sbsg2377
g0
(g358
g2
Ntp2561
Rp2562
(dp2563
g21
I00
sg49
I01
sg23
I00
sg19
(lp2564
g2391
ag2392
asg22
Nsg2391
g0
(g67
g2
Ntp2565
Rp2566
(dp2567
g21
I00
sg49
I00
sg23
I00
sg50
I541321
sbsg2392
g2433
sbsg2378
g0
(g358
g2
Ntp2568
Rp2569
(dp2570
g21
I00
sg49
I01
sg23
I00
sg19
(lp2571
g2391
ag2392
asg22
Nsg2391
g0
(g67
g2
Ntp2572
Rp2573
(dp2574
g21
I00
sg49
I00
sg23
I00
sg50
I541321
sbsg2392
g2433
sbsg2379
g0
(g358
g2
Ntp2575
Rp2576
(dp2577
g21
I00
sg49
I01
sg23
I00
sg19
(lp2578
g2391
ag2392
asg22
Nsg2391
g0
(g67
g2
Ntp2579
Rp2580
(dp2581
g21
I00
sg49
I00
sg23
I00
sg50
I54525
sbsg2392
g2433
sbsg2380
g0
(g358
g2
Ntp2582
Rp2583
(dp2584
g21
I00
sg49
I01
sg23
I00
sg19
(lp2585
g2391
ag2392
asg22
Nsg2391
g0
(g67
g2
Ntp2586
Rp2587
(dp2588
g21
I00
sg49
I00
sg23
I00
sg50
I6453209
sbsg2392
g2433
sbsg2381
g0
(g358
g2
Ntp2589
Rp2590
(dp2591
g21
I00
sg49
I01
sg23
I00
sg19
(lp2592
g2391
ag2392
asg22
Nsg2391
g0
(g67
g2
Ntp2593
Rp2594
(dp2595
g21
I00
sg49
I00
sg23
I00
sg50
I987346
sbsg2392
g2433
sbsg2382
g0
(g358
g2
Ntp2596
Rp2597
(dp2598
g21
I00
sg49
I01
sg23
I00
sg19
(lp2599
g2391
ag2392
asg22
Nsg2391
g0
(g67
g2
Ntp2600
Rp2601
(dp2602
g21
I00
sg49
I00
sg23
I00
sg50
I1357987
sbsg2392
g2433
sbsg2383
g0
(g358
g2
Ntp2603
Rp2604
(dp2605
g21
I00
sg49
I01
sg23
I00
sg19
(lp2606
g2391
ag2392
asg22
Nsg2391
g0
(g67
g2
Ntp2607
Rp2608
(dp2609
g21
I00
sg49
I00
sg23
I00
sg50
I87654321
sbsg2392
g2397
sbsg2384
g0
(g358
g2
Ntp2610
Rp2611
(dp2612
g21
I00
sg49
I01
sg23
I00
sg19
(lp2613
g2391
ag2392
asg22
Nsg2391
g0
(g67
g2
Ntp2614
Rp2615
(dp2616
g21
I00
sg49
I00
sg23
I00
sg50
I137137
sbsg2392
g2397
sbsg2385
g0
(g358
g2
Ntp2617
Rp2618
(dp2619
g21
I00
sg49
I01
sg23
I00
sg19
(lp2620
g2391
ag2392
asg22
Nsg2391
g0
(g67
g2
Ntp2621
Rp2622
(dp2623
g21
I00
sg49
I00
sg23
I00
sg50
I137137
sbsg2392
g2397
sbsg2386
g0
(g45
g2
Ntp2624
Rp2625
(dp2626
g21
I00
sg49
I00
sg23
I00
sg50
g59
sbsg24
g1504
sg26
I13
sg2289
I01
sbsVTFileService
p2627
g0
(g2044
g2
Ntp2628
Rp2629
(dp2630
g17
g2627
sg19
(lp2631
VfileName
p2632
asg21
I00
sg22
Nsg2632
g0
(g45
g2
Ntp2633
Rp2634
(dp2635
g21
I00
sg49
I01
sg23
I00
sg50
VrpcRechits_ZB_2022D_PhiEtaRecompute.root
p2636
sbsg23
I00
sg24
g1504
sg26
I13
sg2289
I01
sbssV_Process__essources
p2637
(dp2638
VHepPDTESSource
p2639
g0
(cFWCore.ParameterSet.Modules
ESSource
p2640
g2
Ntp2641
Rp2642
(dp2643
g17
g2639
sg19
(lp2644
VpdtFileName
p2645
asg21
I00
sg22
Nsg2645
g0
(g521
g2
Ntp2646
Rp2647
(dp2648
g21
I00
sg49
I01
sg23
I00
sg50
VSimGeneral/HepPDTESSource/data/pythiaparticle.tbl
p2649
sbsg23
I00
sg24
V/cvmfs/cms.cern.ch/slc7_amd64_gcc10/cms/cmssw/CMSSW_12_4_7/python/SimGeneral/HepPDTESSource/pythiapdt_cfi.py
p2650
sg26
I3
sg27
g2639
sbsVeegeom
p2651
g0
(g2640
g2
Ntp2652
Rp2653
(dp2654
g17
VEmptyESSource
p2655
sg19
(lp2656
VrecordName
p2657
aViovIsRunNotTime
p2658
aVfirstValid
p2659
asg21
I00
sg22
Nsg2657
g0
(g45
g2
Ntp2660
Rp2661
(dp2662
g21
I00
sg49
I01
sg23
I00
sg50
VEcalMappingRcd
p2663
sbsg23
I00
sg2658
g0
(g71
g2
Ntp2664
Rp2665
(dp2666
g21
I00
sg49
I01
sg23
I00
sg50
I01
sbsg2659
g0
(g353
g62
(lp2667
I1
atp2668
Rp2669
(dp2670
g21
I00
sg49
I01
sg23
I00
sbsg24
V/cvmfs/cms.cern.ch/slc7_amd64_gcc10/cms/cmssw/CMSSW_12_4_7/python/Geometry/EcalMapping/EcalMappingRecord_cfi.py
p2671
sg26
I3
sg27
g2651
sbsVGlobalTag
p2672
g0
(g2640
g2
Ntp2673
Rp2674
(dp2675
g17
VPoolDBESSource
p2676
sg19
(lp2677
VDBParameters
p2678
aVconnect
p2679
aVglobaltag
p2680
aVsnapshotTime
p2681
aVtoGet
p2682
aVDumpStat
p2683
aVReconnectEachRun
p2684
aVRefreshAlways
p2685
aVRefreshEachRun
p2686
aVRefreshOpenIOVs
p2687
aVpfnPostfix
p2688
aVpfnPrefix
p2689
asg21
I00
sg22
Nsg2678
g0
(g358
g2
Ntp2690
Rp2691
(dp2692
g21
I00
sg49
I01
sg23
I00
sg19
(lp2693
VauthenticationPath
p2694
aVauthenticationSystem
p2695
aVsecurity
p2696
aVmessageLevel
p2697
aVconnectionTimeout
p2698
asg22
Nsg2694
g0
(g45
g2
Ntp2699
Rp2700
(dp2701
g21
I00
sg49
I00
sg23
I00
sg50
g59
sbsg2695
g0
(g75
g2
Ntp2702
Rp2703
(dp2704
g21
I00
sg49
I00
sg23
I00
sg50
I0
sbsg2696
g0
(g45
g2
Ntp2705
Rp2706
(dp2707
g21
I00
sg49
I00
sg23
I00
sg50
g59
sbsg2697
g0
(g75
g2
Ntp2708
Rp2709
(dp2710
g21
I00
sg49
I00
sg23
I00
sg50
I0
sbsg2698
g0
(g75
g2
Ntp2711
Rp2712
(dp2713
g21
I00
sg49
I00
sg23
I00
sg50
I0
sbsbsg23
I01
sg2679
g0
(g45
g2
Ntp2714
Rp2715
(dp2716
g21
I00
sg49
I01
sg23
I00
sg50
Vfrontier://FrontierProd/CMS_CONDITIONS
p2717
sbsg2680
g0
(g45
g2
Ntp2718
Rp2719
(dp2720
g21
I00
sg49
I01
sg23
I01
sg50
V124X_dataRun3_Prompt_v4
p2721
sbsg2681
g0
(g45
g2
Ntp2722
Rp2723
(dp2724
g21
I00
sg49
I01
sg23
I00
sg50
g59
sbsg2682
g0
(cFWCore.ParameterSet.Types
VPSet
p2725
g62
(lp2726
tp2727
Rp2728
(dp2729
g21
I00
sg49
I01
sg23
I00
sg743
I1
sbsg2683
g0
(g71
g2
Ntp2730
Rp2731
(dp2732
g21
I00
sg49
I00
sg23
I00
sg50
I00
sbsg2684
g0
(g71
g2
Ntp2733
Rp2734
(dp2735
g21
I00
sg49
I00
sg23
I00
sg50
I00
sbsg2685
g0
(g71
g2
Ntp2736
Rp2737
(dp2738
g21
I00
sg49
I00
sg23
I00
sg50
I00
sbsg2686
g0
(g71
g2
Ntp2739
Rp2740
(dp2741
g21
I00
sg49
I00
sg23
I00
sg50
I00
sbsg2687
g0
(g71
g2
Ntp2742
Rp2743
(dp2744
g21
I00
sg49
I00
sg23
I00
sg50
I00
sbsg2688
g0
(g45
g2
Ntp2745
Rp2746
(dp2747
g21
I00
sg49
I00
sg23
I00
sg50
g59
sbsg2689
g0
(g45
g2
Ntp2748
Rp2749
(dp2750
g21
I00
sg49
I00
sg23
I00
sg50
g59
sbsg24
V/cvmfs/cms.cern.ch/slc7_amd64_gcc10/cms/cmssw/CMSSW_12_4_7/python/CondCore/ESSources/CondDBESSource_cfi.py
p2751
sg26
I8
sg27
g2672
sbsVHcalTimeSlewEP
p2752
g0
(g2640
g2
Ntp2753
Rp2754
(dp2755
g17
g2752
sg19
(lp2756
VappendToDataLabel
p2757
aVtimeSlewParametersM2
p2758
aVtimeSlewParametersM3
p2759
asg21
I00
sg22
Nsg2757
g0
(g45
g2
Ntp2760
Rp2761
(dp2762
g21
I00
sg49
I01
sg23
I00
sg50
VHBHE
p2763
sbsg23
I00
sg2758
g0
(g2725
g62
(lp2764
g0
(g358
g2
Ntp2765
Rp2766
(dp2767
g21
I00
sg49
I01
sg23
I00
sg19
(lp2768
Vtzero
p2769
aVslope
p2770
aVtmax
p2771
asg22
Nsg2769
g0
(g406
g2
Ntp2772
Rp2773
(dp2774
g21
I00
sg49
I01
sg23
I00
sg50
F23.960177
sbsg2770
g0
(g406
g2
Ntp2775
Rp2776
(dp2777
g21
I00
sg49
I01
sg23
I00
sg50
F-3.178648
sbsg2771
g0
(g406
g2
Ntp2778
Rp2779
(dp2780
g21
I00
sg49
I01
sg23
I00
sg50
F16.0
sbsbag0
(g358
g2
Ntp2781
Rp2782
(dp2783
g21
I00
sg49
I01
sg23
I00
sg19
(lp2784
g2769
ag2770
ag2771
asg22
Nsg2769
g0
(g406
g2
Ntp2785
Rp2786
(dp2787
g21
I00
sg49
I01
sg23
I00
sg50
F11.977461
sbsg2770
g0
(g406
g2
Ntp2788
Rp2789
(dp2790
g21
I00
sg49
I01
sg23
I00
sg50
F-1.5610227
sbsg2771
g0
(g406
g2
Ntp2791
Rp2792
(dp2793
g21
I00
sg49
I01
sg23
I00
sg50
F10.0
sbsbag0
(g358
g2
Ntp2794
Rp2795
(dp2796
g21
I00
sg49
I01
sg23
I00
sg19
(lp2797
g2769
ag2770
ag2771
asg22
Nsg2769
g0
(g406
g2
Ntp2798
Rp2799
(dp2800
g21
I00
sg49
I01
sg23
I00
sg50
F9.109694
sbsg2770
g0
(g406
g2
Ntp2801
Rp2802
(dp2803
g21
I00
sg49
I01
sg23
I00
sg50
F-1.075824
sbsg2771
g0
(g406
g2
Ntp2804
Rp2805
(dp2806
g21
I00
sg49
I01
sg23
I00
sg50
F6.25
sbsbatp2807
Rp2808
(dp2809
g21
I00
sg49
I01
sg23
I00
sg743
I1
sbsg2759
g0
(g2725
g62
(lp2810
g0
(g358
g2
Ntp2811
Rp2812
(dp2813
g21
I00
sg49
I01
sg23
I00
sg19
(lp2814
Vcap
p2815
aVtspar0
p2816
aVtspar1
p2817
aVtspar2
p2818
aVtspar0_siPM
p2819
aVtspar1_siPM
p2820
aVtspar2_siPM
p2821
asg22
Nsg2815
g0
(g406
g2
Ntp2822
Rp2823
(dp2824
g21
I00
sg49
I01
sg23
I00
sg50
F6.0
sbsg2816
g0
(g406
g2
Ntp2825
Rp2826
(dp2827
g21
I00
sg49
I01
sg23
I00
sg50
F12.2999
sbsg2817
g0
(g406
g2
Ntp2828
Rp2829
(dp2830
g21
I00
sg49
I01
sg23
I00
sg50
F-2.19142
sbsg2818
g0
(g406
g2
Ntp2831
Rp2832
(dp2833
g21
I00
sg49
I01
sg23
I00
sg50
F0.0
sbsg2819
g0
(g406
g2
Ntp2834
Rp2835
(dp2836
g21
I00
sg49
I01
sg23
I00
sg50
F0.0
sbsg2820
g0
(g406
g2
Ntp2837
Rp2838
(dp2839
g21
I00
sg49
I01
sg23
I00
sg50
F0.0
sbsg2821
g0
(g406
g2
Ntp2840
Rp2841
(dp2842
g21
I00
sg49
I01
sg23
I00
sg50
F0.0
sbsbag0
(g358
g2
Ntp2843
Rp2844
(dp2845
g21
I00
sg49
I01
sg23
I00
sg19
(lp2846
g2815
ag2816
ag2817
ag2818
ag2819
ag2820
ag2821
asg22
Nsg2815
g0
(g406
g2
Ntp2847
Rp2848
(dp2849
g21
I00
sg49
I01
sg23
I00
sg50
F6.0
sbsg2816
g0
(g406
g2
Ntp2850
Rp2851
(dp2852
g21
I00
sg49
I01
sg23
I00
sg50
F15.5
sbsg2817
g0
(g406
g2
Ntp2853
Rp2854
(dp2855
g21
I00
sg49
I01
sg23
I00
sg50
F-3.2
sbsg2818
g0
(g406
g2
Ntp2856
Rp2857
(dp2858
g21
I00
sg49
I01
sg23
I00
sg50
F32.0
sbsg2819
g0
(g406
g2
Ntp2859
Rp2860
(dp2861
g21
I00
sg49
I01
sg23
I00
sg50
F0.0
sbsg2820
g0
(g406
g2
Ntp2862
Rp2863
(dp2864
g21
I00
sg49
I01
sg23
I00
sg50
F0.0
sbsg2821
g0
(g406
g2
Ntp2865
Rp2866
(dp2867
g21
I00
sg49
I01
sg23
I00
sg50
F0.0
sbsbag0
(g358
g2
Ntp2868
Rp2869
(dp2870
g21
I00
sg49
I01
sg23
I00
sg19
(lp2871
g2815
ag2816
ag2817
ag2818
ag2819
ag2820
ag2821
asg22
Nsg2815
g0
(g406
g2
Ntp2872
Rp2873
(dp2874
g21
I00
sg49
I01
sg23
I00
sg50
F6.0
sbsg2816
g0
(g406
g2
Ntp2875
Rp2876
(dp2877
g21
I00
sg49
I01
sg23
I00
sg50
F12.2999
sbsg2817
g0
(g406
g2
Ntp2878
Rp2879
(dp2880
g21
I00
sg49
I01
sg23
I00
sg50
F-2.19142
sbsg2818
g0
(g406
g2
Ntp2881
Rp2882
(dp2883
g21
I00
sg49
I01
sg23
I00
sg50
F0.0
sbsg2819
g0
(g406
g2
Ntp2884
Rp2885
(dp2886
g21
I00
sg49
I01
sg23
I00
sg50
F0.0
sbsg2820
g0
(g406
g2
Ntp2887
Rp2888
(dp2889
g21
I00
sg49
I01
sg23
I00
sg50
F0.0
sbsg2821
g0
(g406
g2
Ntp2890
Rp2891
(dp2892
g21
I00
sg49
I01
sg23
I00
sg50
F0.0
sbsbag0
(g358
g2
Ntp2893
Rp2894
(dp2895
g21
I00
sg49
I01
sg23
I00
sg19
(lp2896
g2815
ag2816
ag2817
ag2818
ag2819
ag2820
ag2821
asg22
Nsg2815
g0
(g406
g2
Ntp2897
Rp2898
(dp2899
g21
I00
sg49
I01
sg23
I00
sg50
F6.0
sbsg2816
g0
(g406
g2
Ntp2900
Rp2901
(dp2902
g21
I00
sg49
I01
sg23
I00
sg50
F12.2999
sbsg2817
g0
(g406
g2
Ntp2903
Rp2904
(dp2905
g21
I00
sg49
I01
sg23
I00
sg50
F-2.19142
sbsg2818
g0
(g406
g2
Ntp2906
Rp2907
(dp2908
g21
I00
sg49
I01
sg23
I00
sg50
F0.0
sbsg2819
g0
(g406
g2
Ntp2909
Rp2910
(dp2911
g21
I00
sg49
I01
sg23
I00
sg50
F0.0
sbsg2820
g0
(g406
g2
Ntp2912
Rp2913
(dp2914
g21
I00
sg49
I01
sg23
I00
sg50
F0.0
sbsg2821
g0
(g406
g2
Ntp2915
Rp2916
(dp2917
g21
I00
sg49
I01
sg23
I00
sg50
F0.0
sbsbatp2918
Rp2919
(dp2920
g21
I00
sg49
I01
sg23
I00
sg743
I1
sbsg24
V/cvmfs/cms.cern.ch/slc7_amd64_gcc10/cms/cmssw/CMSSW_12_4_7/python/CalibCalorimetry/HcalPlugins/HcalTimeSlew_cff.py
p2921
sg26
I3
sg27
g2752
sbsVes_hardcode
p2922
g0
(g2640
g2
Ntp2923
Rp2924
(dp2925
g17
VHcalHardcodeCalibrations
p2926
sg19
(lp2927
g2682
aViLumi
p2928
aVHBRecalibration
p2929
aVHBreCalibCutoff
p2930
aVHBmeanenergies
p2931
aVHERecalibration
p2932
aVHEreCalibCutoff
p2933
aVHEmeanenergies
p2934
aVHFRecalibration
p2935
aVHFRecalParameterBlock
p2936
aVGainWidthsForTrigPrims
p2937
aVuseHBUpgrade
p2938
aVuseHEUpgrade
p2939
aVuseHFUpgrade
p2940
aVuseHOUpgrade
p2941
aVtestHFQIE10
p2942
aVtestHEPlan1
p2943
aVkillHE
p2944
aVuseLayer0Weight
p2945
aVuseIeta18depth1
p2946
aVhb
p2947
aVhe
p2948
aVhf
p2949
aVho
p2950
aVhbUpgrade
p2951
aVheUpgrade
p2952
aVhfUpgrade
p2953
aVSiPMCharacteristics
p2954
asg21
I00
sg22
Nsg2682
g0
(g449
g62
(lp2955
VGainWidths
p2956
atp2957
Rp2958
(dp2959
g21
I00
sg49
I00
sg23
I00
sg743
I1
sbsg23
I00
sg2928
g0
(g406
g2
Ntp2960
Rp2961
(dp2962
g21
I00
sg49
I01
sg23
I00
sg50
F-1.0
sbsg2929
g0
(g71
g2
Ntp2963
Rp2964
(dp2965
g21
I00
sg49
I01
sg23
I00
sg50
I00
sbsg2930
g0
(g406
g2
Ntp2966
Rp2967
(dp2968
g21
I00
sg49
I01
sg23
I00
sg50
F20.0
sbsg2931
g0
(g521
g2
Ntp2969
Rp2970
(dp2971
g21
I00
sg49
I01
sg23
I00
sg50
VCalibCalorimetry/HcalPlugins/data/meanenergiesHB.txt
p2972
sbsg2932
g0
(g71
g2
Ntp2973
Rp2974
(dp2975
g21
I00
sg49
I01
sg23
I00
sg50
I00
sbsg2933
g0
(g406
g2
Ntp2976
Rp2977
(dp2978
g21
I00
sg49
I01
sg23
I00
sg50
F20.0
sbsg2934
g0
(g521
g2
Ntp2979
Rp2980
(dp2981
g21
I00
sg49
I01
sg23
I00
sg50
VCalibCalorimetry/HcalPlugins/data/meanenergiesHE.txt
p2982
sbsg2935
g0
(g71
g2
Ntp2983
Rp2984
(dp2985
g21
I00
sg49
I01
sg23
I00
sg50
I00
sbsg2936
g0
(g358
g2
Ntp2986
Rp2987
(dp2988
g21
I00
sg49
I01
sg23
I00
sg19
(lp2989
VHFdepthOneParameterA
p2990
aVHFdepthOneParameterB
p2991
aVHFdepthTwoParameterA
p2992
aVHFdepthTwoParameterB
p2993
asg22
Nsg2990
g0
(g1641
g62
(lp2994
F0.004123
aF0.00602
aF0.008201
aF0.010489
aF0.013379
aF0.016997
aF0.021464
aF0.027371
aF0.034195
aF0.044807
aF0.058939
aF0.125497
atp2995
Rp2996
(dp2997
g21
I00
sg49
I01
sg23
I00
sbsg2991
g0
(g1641
g62
(lp2998
F-4e-06
aF-2e-06
aF0.0
aF4e-06
aF1.5e-05
aF2.6e-05
aF6.3e-05
aF8.4e-05
aF0.00016
aF0.000107
aF0.000425
aF0.000209
atp2999
Rp3000
(dp3001
g21
I00
sg49
I01
sg23
I00
sbsg2992
g0
(g1641
g62
(lp3002
F0.002861
aF0.004168
aF0.0064
aF0.008388
aF0.011601
aF0.014425
aF0.018633
aF0.023232
aF0.028274
aF0.035447
aF0.051579
aF0.086593
atp3003
Rp3004
(dp3005
g21
I00
sg49
I01
sg23
I00
sbsg2993
g0
(g1641
g62
(lp3006
F-2e-06
aF-0.0
aF-7e-06
aF-6e-06
aF-2e-06
aF1e-06
aF1.9e-05
aF3.1e-05
aF6.7e-05
aF1.2e-05
aF0.000157
aF-3e-06
atp3007
Rp3008
(dp3009
g21
I00
sg49
I01
sg23
I00
sbsg27
g2936
sbsg2937
g0
(g71
g2
Ntp3010
Rp3011
(dp3012
g21
I00
sg49
I01
sg23
I00
sg50
I00
sbsg2938
g0
(g71
g2
Ntp3013
Rp3014
(dp3015
g21
I00
sg49
I01
sg23
I00
sg50
I00
sbsg2939
g0
(g71
g2
Ntp3016
Rp3017
(dp3018
g21
I00
sg49
I01
sg23
I00
sg50
I00
sbsg2940
g0
(g71
g2
Ntp3019
Rp3020
(dp3021
g21
I00
sg49
I01
sg23
I00
sg50
I00
sbsg2941
g0
(g71
g2
Ntp3022
Rp3023
(dp3024
g21
I00
sg49
I01
sg23
I00
sg50
I01
sbsg2942
g0
(g71
g2
Ntp3025
Rp3026
(dp3027
g21
I00
sg49
I01
sg23
I00
sg50
I00
sbsg2943
g0
(g71
g2
Ntp3028
Rp3029
(dp3030
g21
I00
sg49
I01
sg23
I00
sg50
I00
sbsg2944
g0
(g71
g2
Ntp3031
Rp3032
(dp3033
g21
I00
sg49
I01
sg23
I00
sg50
I00
sbsg2945
g0
(g71
g2
Ntp3034
Rp3035
(dp3036
g21
I00
sg49
I01
sg23
I00
sg50
I00
sbsg2946
g0
(g71
g2
Ntp3037
Rp3038
(dp3039
g21
I00
sg49
I01
sg23
I00
sg50
I01
sbsg2947
g0
(g358
g2
Ntp3040
Rp3041
(dp3042
g21
I00
sg49
I01
sg23
I00
sg19
(lp3043
Vpedestal
p3044
aVpedestalWidth
p3045
aVgain
p3046
aVgainWidth
p3047
aVzsThreshold
p3048
aVqieType
p3049
aVqieOffset
p3050
aVqieSlope
p3051
aVmcShape
p3052
aVrecoShape
p3053
aVphotoelectronsToAnalog
p3054
aVdarkCurrent
p3055
aVnoiseCorrelation
p3056
aVdoRadiationDamage
p3057
asg22
Nsg3044
g0
(g406
g2
Ntp3058
Rp3059
(dp3060
g21
I00
sg49
I01
sg23
I00
sg50
F3.285
sbsg3045
g0
(g406
g2
Ntp3061
Rp3062
(dp3063
g21
I00
sg49
I01
sg23
I00
sg50
F0.809
sbsg3046
g0
(g1641
g62
(lp3064
F0.19
atp3065
Rp3066
(dp3067
g21
I00
sg49
I01
sg23
I00
sbsg3047
g0
(g1641
g62
(lp3068
F0.0
atp3069
Rp3070
(dp3071
g21
I00
sg49
I01
sg23
I00
sbsg3048
g0
(g75
g2
Ntp3072
Rp3073
(dp3074
g21
I00
sg49
I01
sg23
I00
sg50
I8
sbsg3049
g0
(g75
g2
Ntp3075
Rp3076
(dp3077
g21
I00
sg49
I01
sg23
I00
sg50
I0
sbsg3050
g0
(g1641
g62
(lp3078
F-0.49
aF1.8
aF7.2
aF37.9
atp3079
Rp3080
(dp3081
g21
I00
sg49
I01
sg23
I00
sbsg3051
g0
(g1641
g62
(lp3082
F0.912
aF0.917
aF0.922
aF0.923
atp3083
Rp3084
(dp3085
g21
I00
sg49
I01
sg23
I00
sbsg3052
g0
(g75
g2
Ntp3086
Rp3087
(dp3088
g21
I00
sg49
I01
sg23
I00
sg50
I125
sbsg3053
g0
(g75
g2
Ntp3089
Rp3090
(dp3091
g21
I00
sg49
I01
sg23
I00
sg50
I105
sbsg3054
g0
(g406
g2
Ntp3092
Rp3093
(dp3094
g21
I00
sg49
I01
sg23
I00
sg50
F0.3305
sbsg3055
g0
(g1641
g62
(lp3095
F0.0
atp3096
Rp3097
(dp3098
g21
I00
sg49
I01
sg23
I00
sbsg3056
g0
(g1641
g62
(lp3099
F0.0
atp3100
Rp3101
(dp3102
g21
I00
sg49
I01
sg23
I00
sbsg3057
g0
(g71
g2
Ntp3103
Rp3104
(dp3105
g21
I00
sg49
I01
sg23
I00
sg50
I00
sbsbsg2948
g0
(g358
g2
Ntp3106
Rp3107
(dp3108
g21
I00
sg49
I01
sg23
I00
sg19
(lp3109
g3044
ag3045
ag3046
ag3047
ag3048
ag3049
ag3050
ag3051
ag3052
ag3053
ag3054
ag3055
ag3056
ag3057
asg22
Nsg3044
g0
(g406
g2
Ntp3110
Rp3111
(dp3112
g21
I00
sg49
I01
sg23
I00
sg50
F3.163
sbsg3045
g0
(g406
g2
Ntp3113
Rp3114
(dp3115
g21
I00
sg49
I01
sg23
I00
sg50
F0.9698
sbsg3046
g0
(g1641
g62
(lp3116
F0.23
atp3117
Rp3118
(dp3119
g21
I00
sg49
I01
sg23
I00
sbsg3047
g0
(g1641
g62
(lp3120
I0
atp3121
Rp3122
(dp3123
g21
I00
sg49
I01
sg23
I00
sbsg3048
g0
(g75
g2
Ntp3124
Rp3125
(dp3126
g21
I00
sg49
I01
sg23
I00
sg50
I9
sbsg3049
g0
(g75
g2
Ntp3127
Rp3128
(dp3129
g21
I00
sg49
I01
sg23
I00
sg50
I0
sbsg3050
g0
(g1641
g62
(lp3130
F-0.38
aF2.0
aF7.6
aF39.6
atp3131
Rp3132
(dp3133
g21
I00
sg49
I01
sg23
I00
sbsg3051
g0
(g1641
g62
(lp3134
F0.912
aF0.916
aF0.92
aF0.922
atp3135
Rp3136
(dp3137
g21
I00
sg49
I01
sg23
I00
sbsg3052
g0
(g75
g2
Ntp3138
Rp3139
(dp3140
g21
I00
sg49
I01
sg23
I00
sg50
I125
sbsg3053
g0
(g75
g2
Ntp3141
Rp3142
(dp3143
g21
I00
sg49
I01
sg23
I00
sg50
I105
sbsg3054
g0
(g406
g2
Ntp3144
Rp3145
(dp3146
g21
I00
sg49
I01
sg23
I00
sg50
F0.3305
sbsg3055
g0
(g1641
g62
(lp3147
F0.0
atp3148
Rp3149
(dp3150
g21
I00
sg49
I01
sg23
I00
sbsg3056
g0
(g1641
g62
(lp3151
F0.0
atp3152
Rp3153
(dp3154
g21
I00
sg49
I01
sg23
I00
sbsg3057
g0
(g71
g2
Ntp3155
Rp3156
(dp3157
g21
I00
sg49
I01
sg23
I00
sg50
I00
sbsbsg2949
g0
(g358
g2
Ntp3158
Rp3159
(dp3160
g21
I00
sg49
I01
sg23
I00
sg19
(lp3161
g3044
ag3045
ag3046
ag3047
ag3048
ag3049
ag3050
ag3051
ag3052
ag3053
ag3054
ag3055
ag3056
ag3057
asg22
Nsg3044
g0
(g406
g2
Ntp3162
Rp3163
(dp3164
g21
I00
sg49
I01
sg23
I00
sg50
F9.354
sbsg3045
g0
(g406
g2
Ntp3165
Rp3166
(dp3167
g21
I00
sg49
I01
sg23
I00
sg50
F2.516
sbsg3046
g0
(g1641
g62
(lp3168
F0.14
aF0.135
atp3169
Rp3170
(dp3171
g21
I00
sg49
I01
sg23
I00
sbsg3047
g0
(g1641
g62
(lp3172
F0.0
aF0.0
atp3173
Rp3174
(dp3175
g21
I00
sg49
I01
sg23
I00
sbsg3048
g0
(g75
g2
Ntp3176
Rp3177
(dp3178
g21
I00
sg49
I01
sg23
I00
sg50
I-9999
sbsg3049
g0
(g75
g2
Ntp3179
Rp3180
(dp3181
g21
I00
sg49
I01
sg23
I00
sg50
I0
sbsg3050
g0
(g1641
g62
(lp3182
F-0.87
aF1.4
aF7.8
aF-29.6
atp3183
Rp3184
(dp3185
g21
I00
sg49
I01
sg23
I00
sbsg3051
g0
(g1641
g62
(lp3186
F0.359
aF0.358
aF0.36
aF0.367
atp3187
Rp3188
(dp3189
g21
I00
sg49
I01
sg23
I00
sbsg3052
g0
(g75
g2
Ntp3190
Rp3191
(dp3192
g21
I00
sg49
I01
sg23
I00
sg50
I301
sbsg3053
g0
(g75
g2
Ntp3193
Rp3194
(dp3195
g21
I00
sg49
I01
sg23
I00
sg50
I301
sbsg3054
g0
(g406
g2
Ntp3196
Rp3197
(dp3198
g21
I00
sg49
I01
sg23
I00
sg50
F0.0
sbsg3055
g0
(g1641
g62
(lp3199
F0.0
atp3200
Rp3201
(dp3202
g21
I00
sg49
I01
sg23
I00
sbsg3056
g0
(g1641
g62
(lp3203
F0.0
atp3204
Rp3205
(dp3206
g21
I00
sg49
I01
sg23
I00
sbsg3057
g0
(g71
g2
Ntp3207
Rp3208
(dp3209
g21
I00
sg49
I01
sg23
I00
sg50
I00
sbsbsg2950
g0
(g358
g2
Ntp3210
Rp3211
(dp3212
g21
I00
sg49
I01
sg23
I00
sg19
(lp3213
g3044
ag3045
ag3046
ag3047
ag3048
ag3049
ag3050
ag3051
ag3052
ag3053
ag3054
ag3055
ag3056
ag3057
asg22
Nsg3044
g0
(g406
g2
Ntp3214
Rp3215
(dp3216
g21
I00
sg49
I01
sg23
I00
sg50
F12.06
sbsg3045
g0
(g406
g2
Ntp3217
Rp3218
(dp3219
g21
I00
sg49
I01
sg23
I00
sg50
F0.6285
sbsg3046
g0
(g1641
g62
(lp3220
F0.006
aF0.0087
atp3221
Rp3222
(dp3223
g21
I00
sg49
I01
sg23
I00
sbsg3047
g0
(g1641
g62
(lp3224
F0.0
aF0.0
atp3225
Rp3226
(dp3227
g21
I00
sg49
I01
sg23
I00
sbsg3048
g0
(g75
g2
Ntp3228
Rp3229
(dp3230
g21
I00
sg49
I01
sg23
I00
sg50
I24
sbsg3049
g0
(g75
g2
Ntp3231
Rp3232
(dp3233
g21
I00
sg49
I01
sg23
I00
sg50
I0
sbsg3050
g0
(g1641
g62
(lp3234
F-0.44
aF1.4
aF7.1
aF38.5
atp3235
Rp3236
(dp3237
g21
I00
sg49
I01
sg23
I00
sbsg3051
g0
(g1641
g62
(lp3238
F0.907
aF0.915
aF0.92
aF0.921
atp3239
Rp3240
(dp3241
g21
I00
sg49
I01
sg23
I00
sbsg3052
g0
(g75
g2
Ntp3242
Rp3243
(dp3244
g21
I00
sg49
I01
sg23
I00
sg50
I201
sbsg3053
g0
(g75
g2
Ntp3245
Rp3246
(dp3247
g21
I00
sg49
I01
sg23
I00
sg50
I201
sbsg3054
g0
(g406
g2
Ntp3248
Rp3249
(dp3250
g21
I00
sg49
I01
sg23
I00
sg50
F4.0
sbsg3055
g0
(g1641
g62
(lp3251
F0.0
atp3252
Rp3253
(dp3254
g21
I00
sg49
I01
sg23
I00
sbsg3056
g0
(g1641
g62
(lp3255
F0.0
atp3256
Rp3257
(dp3258
g21
I00
sg49
I01
sg23
I00
sbsg3057
g0
(g71
g2
Ntp3259
Rp3260
(dp3261
g21
I00
sg49
I01
sg23
I00
sg50
I00
sbsbsg2951
g0
(g358
g2
Ntp3262
Rp3263
(dp3264
g21
I00
sg49
I01
sg23
I00
sg19
(lp3265
g3044
ag3045
ag3046
ag3047
ag3048
ag3049
ag3050
ag3051
ag3052
ag3053
ag3054
ag3055
ag3056
ag3057
aVradiationDamage
p3266
asg22
Nsg3044
g0
(g406
g2
Ntp3267
Rp3268
(dp3269
g21
I00
sg49
I01
sg23
I00
sg50
F17.3
sbsg3045
g0
(g406
g2
Ntp3270
Rp3271
(dp3272
g21
I00
sg49
I01
sg23
I00
sg50
F1.5
sbsg3046
g0
(g1641
g62
(lp3273
F0.0006252
atp3274
Rp3275
(dp3276
g21
I00
sg49
I01
sg23
I00
sbsg3047
g0
(g1641
g62
(lp3277
I0
atp3278
Rp3279
(dp3280
g21
I00
sg49
I01
sg23
I00
sbsg3048
g0
(g75
g2
Ntp3281
Rp3282
(dp3283
g21
I00
sg49
I01
sg23
I00
sg50
I16
sbsg3049
g0
(g75
g2
Ntp3284
Rp3285
(dp3286
g21
I00
sg49
I01
sg23
I00
sg50
I2
sbsg3050
g0
(g1641
g62
(lp3287
F0.0
aF0.0
aF0.0
aF0.0
atp3288
Rp3289
(dp3290
g21
I00
sg49
I01
sg23
I00
sbsg3051
g0
(g1641
g62
(lp3291
F0.05376
aF0.05376
aF0.05376
aF0.05376
atp3292
Rp3293
(dp3294
g21
I00
sg49
I01
sg23
I00
sbsg3052
g0
(g75
g2
Ntp3295
Rp3296
(dp3297
g21
I00
sg49
I01
sg23
I00
sg50
I206
sbsg3053
g0
(g75
g2
Ntp3298
Rp3299
(dp3300
g21
I00
sg49
I01
sg23
I00
sg50
I208
sbsg3054
g0
(g406
g2
Ntp3301
Rp3302
(dp3303
g21
I00
sg49
I01
sg23
I00
sg50
F40.0
sbsg3055
g0
(g1641
g62
(lp3304
F0.01
aF0.015
atp3305
Rp3306
(dp3307
g21
I00
sg49
I01
sg23
I00
sbsg3056
g0
(g1641
g62
(lp3308
F0.26
aF0.254
atp3309
Rp3310
(dp3311
g21
I00
sg49
I01
sg23
I00
sbsg3057
g0
(g71
g2
Ntp3312
Rp3313
(dp3314
g21
I00
sg49
I01
sg23
I00
sg50
I01
sbsg3266
g0
(g358
g2
Ntp3315
Rp3316
(dp3317
g21
I00
sg49
I01
sg23
I00
sg19
(lp3318
VtemperatureBase
p3319
aVtemperatureNew
p3320
aVintlumiOffset
p3321
aVdepVsTemp
p3322
aVintlumiToNeutrons
p3323
aVdepVsNeutrons
p3324
asg22
Nsg3319
g0
(g406
g2
Ntp3325
Rp3326
(dp3327
g21
I00
sg49
I01
sg23
I00
sg50
I20
sbsg3320
g0
(g406
g2
Ntp3328
Rp3329
(dp3330
g21
I00
sg49
I01
sg23
I00
sg50
I-5
sbsg3321
g0
(g406
g2
Ntp3331
Rp3332
(dp3333
g21
I00
sg49
I01
sg23
I00
sg50
I150
sbsg3322
g0
(g406
g2
Ntp3334
Rp3335
(dp3336
g21
I00
sg49
I01
sg23
I00
sg50
F0.0631
sbsg3323
g0
(g406
g2
Ntp3337
Rp3338
(dp3339
g21
I00
sg49
I01
sg23
I00
sg50
F367000000.0
sbsg3324
g0
(g1641
g62
(lp3340
F5.543e-10
aF8.012e-10
atp3341
Rp3342
(dp3343
g21
I00
sg49
I01
sg23
I00
sbsbsbsg2952
g0
(g358
g2
Ntp3344
Rp3345
(dp3346
g21
I00
sg49
I01
sg23
I00
sg19
(lp3347
g3044
ag3045
ag3046
ag3047
ag3048
ag3049
ag3050
ag3051
ag3052
ag3053
ag3054
ag3055
ag3056
ag3057
ag3266
asg22
Nsg3044
g0
(g406
g2
Ntp3348
Rp3349
(dp3350
g21
I00
sg49
I01
sg23
I00
sg50
F17.3
sbsg3045
g0
(g406
g2
Ntp3351
Rp3352
(dp3353
g21
I00
sg49
I01
sg23
I00
sg50
F1.5
sbsg3046
g0
(g1641
g62
(lp3354
F0.0006252
atp3355
Rp3356
(dp3357
g21
I00
sg49
I01
sg23
I00
sbsg3047
g0
(g1641
g62
(lp3358
I0
atp3359
Rp3360
(dp3361
g21
I00
sg49
I01
sg23
I00
sbsg3048
g0
(g75
g2
Ntp3362
Rp3363
(dp3364
g21
I00
sg49
I01
sg23
I00
sg50
I16
sbsg3049
g0
(g75
g2
Ntp3365
Rp3366
(dp3367
g21
I00
sg49
I01
sg23
I00
sg50
I2
sbsg3050
g0
(g1641
g62
(lp3368
F0.0
aF0.0
aF0.0
aF0.0
atp3369
Rp3370
(dp3371
g21
I00
sg49
I01
sg23
I00
sbsg3051
g0
(g1641
g62
(lp3372
F0.05376
aF0.05376
aF0.05376
aF0.05376
atp3373
Rp3374
(dp3375
g21
I00
sg49
I01
sg23
I00
sbsg3052
g0
(g75
g2
Ntp3376
Rp3377
(dp3378
g21
I00
sg49
I01
sg23
I00
sg50
I206
sbsg3053
g0
(g75
g2
Ntp3379
Rp3380
(dp3381
g21
I00
sg49
I01
sg23
I00
sg50
I208
sbsg3054
g0
(g406
g2
Ntp3382
Rp3383
(dp3384
g21
I00
sg49
I01
sg23
I00
sg50
F40.0
sbsg3055
g0
(g1641
g62
(lp3385
F0.01
aF0.015
atp3386
Rp3387
(dp3388
g21
I00
sg49
I01
sg23
I00
sbsg3056
g0
(g1641
g62
(lp3389
F0.26
aF0.254
atp3390
Rp3391
(dp3392
g21
I00
sg49
I01
sg23
I00
sbsg3057
g0
(g71
g2
Ntp3393
Rp3394
(dp3395
g21
I00
sg49
I01
sg23
I00
sg50
I01
sbsg3266
g0
(g358
g2
Ntp3396
Rp3397
(dp3398
g21
I00
sg49
I01
sg23
I00
sg19
(lp3399
g3319
ag3320
ag3321
ag3322
ag3323
ag3324
asg22
Nsg3319
g0
(g406
g2
Ntp3400
Rp3401
(dp3402
g21
I00
sg49
I01
sg23
I00
sg50
I20
sbsg3320
g0
(g406
g2
Ntp3403
Rp3404
(dp3405
g21
I00
sg49
I01
sg23
I00
sg50
I5
sbsg3321
g0
(g406
g2
Ntp3406
Rp3407
(dp3408
g21
I00
sg49
I01
sg23
I00
sg50
I75
sbsg3322
g0
(g406
g2
Ntp3409
Rp3410
(dp3411
g21
I00
sg49
I01
sg23
I00
sg50
F0.0631
sbsg3323
g0
(g406
g2
Ntp3412
Rp3413
(dp3414
g21
I00
sg49
I01
sg23
I00
sg50
F29200000.0
sbsg3324
g0
(g1641
g62
(lp3415
F5.543e-10
aF8.012e-10
atp3416
Rp3417
(dp3418
g21
I00
sg49
I01
sg23
I00
sbsbsbsg2953
g0
(g358
g2
Ntp3419
Rp3420
(dp3421
g21
I00
sg49
I01
sg23
I00
sg19
(lp3422
g3044
ag3045
ag3046
ag3047
ag3048
ag3049
ag3050
ag3051
ag3052
ag3053
ag3054
ag3055
ag3056
ag3057
asg22
Nsg3044
g0
(g406
g2
Ntp3423
Rp3424
(dp3425
g21
I00
sg49
I01
sg23
I00
sg50
F13.33
sbsg3045
g0
(g406
g2
Ntp3426
Rp3427
(dp3428
g21
I00
sg49
I01
sg23
I00
sg50
F3.33
sbsg3046
g0
(g1641
g62
(lp3429
F0.14
aF0.135
atp3430
Rp3431
(dp3432
g21
I00
sg49
I01
sg23
I00
sbsg3047
g0
(g1641
g62
(lp3433
F0.0
aF0.0
atp3434
Rp3435
(dp3436
g21
I00
sg49
I01
sg23
I00
sbsg3048
g0
(g75
g2
Ntp3437
Rp3438
(dp3439
g21
I00
sg49
I01
sg23
I00
sg50
I-9999
sbsg3049
g0
(g75
g2
Ntp3440
Rp3441
(dp3442
g21
I00
sg49
I01
sg23
I00
sg50
I1
sbsg3050
g0
(g1641
g62
(lp3443
F0.0697
aF-0.7405
aF12.38
aF-671.9
atp3444
Rp3445
(dp3446
g21
I00
sg49
I01
sg23
I00
sbsg3051
g0
(g1641
g62
(lp3447
F0.297
aF0.298
aF0.298
aF0.313
atp3448
Rp3449
(dp3450
g21
I00
sg49
I01
sg23
I00
sbsg3052
g0
(g75
g2
Ntp3451
Rp3452
(dp3453
g21
I00
sg49
I01
sg23
I00
sg50
I301
sbsg3053
g0
(g75
g2
Ntp3454
Rp3455
(dp3456
g21
I00
sg49
I01
sg23
I00
sg50
I301
sbsg3054
g0
(g406
g2
Ntp3457
Rp3458
(dp3459
g21
I00
sg49
I01
sg23
I00
sg50
F0.0
sbsg3055
g0
(g1641
g62
(lp3460
F0.0
atp3461
Rp3462
(dp3463
g21
I00
sg49
I01
sg23
I00
sbsg3056
g0
(g1641
g62
(lp3464
F0.0
atp3465
Rp3466
(dp3467
g21
I00
sg49
I01
sg23
I00
sbsg3057
g0
(g71
g2
Ntp3468
Rp3469
(dp3470
g21
I00
sg49
I01
sg23
I00
sg50
I00
sbsbsg2954
g0
(g2725
g62
(lp3471
g0
(g358
g2
Ntp3472
Rp3473
(dp3474
g21
I00
sg49
I01
sg23
I00
sg19
(lp3475
Vpixels
p3476
aVcrosstalk
p3477
aVnonlin1
p3478
aVnonlin2
p3479
aVnonlin3
p3480
asg22
Nsg3476
g0
(g75
g2
Ntp3481
Rp3482
(dp3483
g21
I00
sg49
I01
sg23
I00
sg50
I36000
sbsg3477
g0
(g406
g2
Ntp3484
Rp3485
(dp3486
g21
I00
sg49
I01
sg23
I00
sg50
F0.0
sbsg3478
g0
(g406
g2
Ntp3487
Rp3488
(dp3489
g21
I00
sg49
I01
sg23
I00
sg50
F1.0
sbsg3479
g0
(g406
g2
Ntp3490
Rp3491
(dp3492
g21
I00
sg49
I01
sg23
I00
sg50
F0.0
sbsg3480
g0
(g406
g2
Ntp3493
Rp3494
(dp3495
g21
I00
sg49
I01
sg23
I00
sg50
F0.0
sbsbag0
(g358
g2
Ntp3496
Rp3497
(dp3498
g21
I00
sg49
I01
sg23
I00
sg19
(lp3499
g3476
ag3477
ag3478
ag3479
ag3480
asg22
Nsg3476
g0
(g75
g2
Ntp3500
Rp3501
(dp3502
g21
I00
sg49
I01
sg23
I00
sg50
I2500
sbsg3477
g0
(g406
g2
Ntp3503
Rp3504
(dp3505
g21
I00
sg49
I01
sg23
I00
sg50
F0.0
sbsg3478
g0
(g406
g2
Ntp3506
Rp3507
(dp3508
g21
I00
sg49
I01
sg23
I00
sg50
F1.0
sbsg3479
g0
(g406
g2
Ntp3509
Rp3510
(dp3511
g21
I00
sg49
I01
sg23
I00
sg50
F0.0
sbsg3480
g0
(g406
g2
Ntp3512
Rp3513
(dp3514
g21
I00
sg49
I01
sg23
I00
sg50
F0.0
sbsbag0
(g358
g2
Ntp3515
Rp3516
(dp3517
g21
I00
sg49
I01
sg23
I00
sg19
(lp3518
g3476
ag3477
ag3478
ag3479
ag3480
asg22
Nsg3476
g0
(g75
g2
Ntp3519
Rp3520
(dp3521
g21
I00
sg49
I01
sg23
I00
sg50
I27370
sbsg3477
g0
(g406
g2
Ntp3522
Rp3523
(dp3524
g21
I00
sg49
I01
sg23
I00
sg50
F0.17
sbsg3478
g0
(g406
g2
Ntp3525
Rp3526
(dp3527
g21
I00
sg49
I01
sg23
I00
sg50
F1.00985
sbsg3479
g0
(g406
g2
Ntp3528
Rp3529
(dp3530
g21
I00
sg49
I01
sg23
I00
sg50
F7.84089e-06
sbsg3480
g0
(g406
g2
Ntp3531
Rp3532
(dp3533
g21
I00
sg49
I01
sg23
I00
sg50
F2.86282e-10
sbsbag0
(g358
g2
Ntp3534
Rp3535
(dp3536
g21
I00
sg49
I01
sg23
I00
sg19
(lp3537
g3476
ag3477
ag3478
ag3479
ag3480
asg22
Nsg3476
g0
(g75
g2
Ntp3538
Rp3539
(dp3540
g21
I00
sg49
I01
sg23
I00
sg50
I38018
sbsg3477
g0
(g406
g2
Ntp3541
Rp3542
(dp3543
g21
I00
sg49
I01
sg23
I00
sg50
F0.196
sbsg3478
g0
(g406
g2
Ntp3544
Rp3545
(dp3546
g21
I00
sg49
I01
sg23
I00
sg50
F1.00546
sbsg3479
g0
(g406
g2
Ntp3547
Rp3548
(dp3549
g21
I00
sg49
I01
sg23
I00
sg50
F6.40239e-06
sbsg3480
g0
(g406
g2
Ntp3550
Rp3551
(dp3552
g21
I00
sg49
I01
sg23
I00
sg50
F1.27011e-10
sbsbag0
(g358
g2
Ntp3553
Rp3554
(dp3555
g21
I00
sg49
I01
sg23
I00
sg19
(lp3556
g3476
ag3477
ag3478
ag3479
ag3480
asg22
Nsg3476
g0
(g75
g2
Ntp3557
Rp3558
(dp3559
g21
I00
sg49
I01
sg23
I00
sg50
I27370
sbsg3477
g0
(g406
g2
Ntp3560
Rp3561
(dp3562
g21
I00
sg49
I01
sg23
I00
sg50
F0.17
sbsg3478
g0
(g406
g2
Ntp3563
Rp3564
(dp3565
g21
I00
sg49
I01
sg23
I00
sg50
F1.00985
sbsg3479
g0
(g406
g2
Ntp3566
Rp3567
(dp3568
g21
I00
sg49
I01
sg23
I00
sg50
F7.84089e-06
sbsg3480
g0
(g406
g2
Ntp3569
Rp3570
(dp3571
g21
I00
sg49
I01
sg23
I00
sg50
F2.86282e-10
sbsbag0
(g358
g2
Ntp3572
Rp3573
(dp3574
g21
I00
sg49
I01
sg23
I00
sg19
(lp3575
g3476
ag3477
ag3478
ag3479
ag3480
asg22
Nsg3476
g0
(g75
g2
Ntp3576
Rp3577
(dp3578
g21
I00
sg49
I01
sg23
I00
sg50
I38018
sbsg3477
g0
(g406
g2
Ntp3579
Rp3580
(dp3581
g21
I00
sg49
I01
sg23
I00
sg50
F0.196
sbsg3478
g0
(g406
g2
Ntp3582
Rp3583
(dp3584
g21
I00
sg49
I01
sg23
I00
sg50
F1.00546
sbsg3479
g0
(g406
g2
Ntp3585
Rp3586
(dp3587
g21
I00
sg49
I01
sg23
I00
sg50
F6.40239e-06
sbsg3480
g0
(g406
g2
Ntp3588
Rp3589
(dp3590
g21
I00
sg49
I01
sg23
I00
sg50
F1.27011e-10
sbsbag0
(g358
g2
Ntp3591
Rp3592
(dp3593
g21
I00
sg49
I01
sg23
I00
sg19
(lp3594
g3476
ag3477
ag3478
ag3479
ag3480
asg22
Nsg3476
g0
(g75
g2
Ntp3595
Rp3596
(dp3597
g21
I00
sg49
I01
sg23
I00
sg50
I0
sbsg3477
g0
(g406
g2
Ntp3598
Rp3599
(dp3600
g21
I00
sg49
I01
sg23
I00
sg50
F0.0
sbsg3478
g0
(g406
g2
Ntp3601
Rp3602
(dp3603
g21
I00
sg49
I01
sg23
I00
sg50
F1.0
sbsg3479
g0
(g406
g2
Ntp3604
Rp3605
(dp3606
g21
I00
sg49
I01
sg23
I00
sg50
F0.0
sbsg3480
g0
(g406
g2
Ntp3607
Rp3608
(dp3609
g21
I00
sg49
I01
sg23
I00
sg50
F0.0
sbsbatp3610
Rp3611
(dp3612
g21
I00
sg49
I01
sg23
I00
sg743
I1
sbsg24
V/cvmfs/cms.cern.ch/slc7_amd64_gcc10/cms/cmssw/CMSSW_12_4_7/python/CalibCalorimetry/HcalPlugins/Hcal_Conditions_forGlobalTag_cff.py
p3613
sg26
I16
sg27
g2922
sbsVtotemDAQMappingESSourceXML_TimingDiamond
p3614
g0
(g2640
g2
Ntp3615
Rp3616
(dp3617
g17
VTotemDAQMappingESSourceXML
p3618
sg19
(lp3619
g363
ag342
aVsampicSubDetId
p3620
aVconfiguration
p3621
asg21
I00
sg22
Nsg363
g0
(g67
g2
Ntp3622
Rp3623
(dp3624
g21
I00
sg49
I00
sg23
I00
sg50
I0
sbsg23
I00
sg342
g0
(g45
g2
Ntp3625
Rp3626
(dp3627
g21
I00
sg49
I00
sg23
I00
sg50
g352
sbsg3620
g0
(g67
g2
Ntp3628
Rp3629
(dp3630
g21
I00
sg49
I01
sg23
I00
sg50
I6
sbsg3621
g0
(g2725
g62
(lp3631
g0
(g358
g2
Ntp3632
Rp3633
(dp3634
g21
I00
sg49
I01
sg23
I00
sg19
(lp3635
VvalidityRange
p3636
aVmappingFileNames
p3637
aVmaskFileNames
p3638
asg22
Nsg3636
g0
(cFWCore.ParameterSet.Types
EventRange
p3639
g2
Ntp3640
Rp3641
(dp3642
g21
I00
sg49
I01
sg23
I00
sV_EventRange__start
p3643
I1
sV_EventRange__startLumi
p3644
I0
sV_EventRange__startSub
p3645
I1
sV_EventRange__end
p3646
I283819
sV_EventRange__endLumi
p3647
I0
sV_EventRange__endSub
p3648
I0
sbsg3637
g0
(g449
g62
(lp3649
tp3650
Rp3651
(dp3652
g21
I00
sg49
I01
sg23
I00
sg743
I1
sbsg3638
g0
(g449
g62
(lp3653
tp3654
Rp3655
(dp3656
g21
I00
sg49
I01
sg23
I00
sg743
I1
sbsbag0
(g358
g2
Ntp3657
Rp3658
(dp3659
g21
I00
sg49
I01
sg23
I00
sg19
(lp3660
g3636
ag3637
ag3638
asg22
Nsg3636
g0
(g3639
g2
Ntp3661
Rp3662
(dp3663
g21
I00
sg49
I01
sg23
I00
sg3643
I283820
sg3644
I0
sg3645
I1
sg3646
I292520
sg3647
I0
sg3648
I0
sbsg3637
g0
(g449
g62
(lp3664
VCondFormats/PPSObjects/xml/mapping_timing_diamond.xml
p3665
atp3666
Rp3667
(dp3668
g21
I00
sg49
I01
sg23
I00
sg743
I1
sbsg3638
g0
(g449
g62
(lp3669
tp3670
Rp3671
(dp3672
g21
I00
sg49
I01
sg23
I00
sg743
I1
sbsbag0
(g358
g2
Ntp3673
Rp3674
(dp3675
g21
I00
sg49
I01
sg23
I00
sg19
(lp3676
g3636
ag3637
ag3638
asg22
Nsg3636
g0
(g3639
g2
Ntp3677
Rp3678
(dp3679
g21
I00
sg49
I01
sg23
I00
sg3643
I292521
sg3644
I0
sg3645
I1
sg3646
I310000
sg3647
I0
sg3648
I0
sbsg3637
g0
(g449
g62
(lp3680
VCondFormats/PPSObjects/xml/mapping_timing_diamond_2017.xml
p3681
atp3682
Rp3683
(dp3684
g21
I00
sg49
I01
sg23
I00
sg743
I1
sbsg3638
g0
(g449
g62
(lp3685
tp3686
Rp3687
(dp3688
g21
I00
sg49
I01
sg23
I00
sg743
I1
sbsbag0
(g358
g2
Ntp3689
Rp3690
(dp3691
g21
I00
sg49
I01
sg23
I00
sg19
(lp3692
g3636
ag3637
ag3638
asg22
Nsg3636
g0
(g3639
g2
Ntp3693
Rp3694
(dp3695
g21
I00
sg49
I01
sg23
I00
sg3643
I310001
sg3644
I0
sg3645
I1
sg3646
I339999
sg3647
I0
sg3648
I0
sbsg3637
g0
(g449
g62
(lp3696
VCondFormats/PPSObjects/xml/mapping_timing_diamond_2018.xml
p3697
atp3698
Rp3699
(dp3700
g21
I00
sg49
I01
sg23
I00
sg743
I1
sbsg3638
g0
(g449
g62
(lp3701
tp3702
Rp3703
(dp3704
g21
I00
sg49
I01
sg23
I00
sg743
I1
sbsbag0
(g358
g2
Ntp3705
Rp3706
(dp3707
g21
I00
sg49
I01
sg23
I00
sg19
(lp3708
g3636
ag3637
ag3638
asg22
Nsg3636
g0
(g3639
g2
Ntp3709
Rp3710
(dp3711
g21
I00
sg49
I01
sg23
I00
sg3643
I340000
sg3644
I0
sg3645
I1
sg3646
I999999999
sg3647
I0
sg3648
I0
sbsg3637
g0
(g449
g62
(lp3712
VCondFormats/PPSObjects/xml/mapping_timing_diamond_2022.xml
p3713
atp3714
Rp3715
(dp3716
g21
I00
sg49
I01
sg23
I00
sg743
I1
sbsg3638
g0
(g449
g62
(lp3717
tp3718
Rp3719
(dp3720
g21
I00
sg49
I01
sg23
I00
sg743
I1
sbsbatp3721
Rp3722
(dp3723
g21
I00
sg49
I01
sg23
I00
sg743
I1
sbsg24
V/cvmfs/cms.cern.ch/slc7_amd64_gcc10/cms/cmssw/CMSSW_12_4_7/python/EventFilter/CTPPSRawToDigi/ctppsRawToDigi_cff.py
p3724
sg26
I63
sg27
g3614
sbsVtotemDAQMappingESSourceXML_TotemTiming
p3725
g0
(g2640
g2
Ntp3726
Rp3727
(dp3728
g17
g3618
sg19
(lp3729
g363
ag342
ag3620
ag3621
asg21
I00
sg22
Nsg363
g0
(g67
g2
Ntp3730
Rp3731
(dp3732
g21
I00
sg49
I00
sg23
I00
sg50
I0
sbsg23
I00
sg342
g0
(g45
g2
Ntp3733
Rp3734
(dp3735
g21
I00
sg49
I00
sg23
I00
sg50
g1410
sbsg3620
g0
(g67
g2
Ntp3736
Rp3737
(dp3738
g21
I00
sg49
I01
sg23
I00
sg50
I5
sbsg3621
g0
(g2725
g62
(lp3739
g0
(g358
g2
Ntp3740
Rp3741
(dp3742
g21
I00
sg49
I01
sg23
I00
sg19
(lp3743
g3636
ag3637
ag3638
asg22
Nsg3636
g0
(g3639
g2
Ntp3744
Rp3745
(dp3746
g21
I00
sg49
I01
sg23
I00
sg3643
I1
sg3644
I0
sg3645
I1
sg3646
I310000
sg3647
I0
sg3648
I0
sbsg3637
g0
(g449
g62
(lp3747
tp3748
Rp3749
(dp3750
g21
I00
sg49
I01
sg23
I00
sg743
I1
sbsg3638
g0
(g449
g62
(lp3751
tp3752
Rp3753
(dp3754
g21
I00
sg49
I01
sg23
I00
sg743
I1
sbsbag0
(g358
g2
Ntp3755
Rp3756
(dp3757
g21
I00
sg49
I01
sg23
I00
sg19
(lp3758
g3636
ag3637
ag3638
asg22
Nsg3636
g0
(g3639
g2
Ntp3759
Rp3760
(dp3761
g21
I00
sg49
I01
sg23
I00
sg3643
I310001
sg3644
I0
sg3645
I1
sg3646
I339999
sg3647
I0
sg3648
I0
sbsg3637
g0
(g449
g62
(lp3762
VCondFormats/PPSObjects/xml/mapping_totem_timing_2018.xml
p3763
atp3764
Rp3765
(dp3766
g21
I00
sg49
I01
sg23
I00
sg743
I1
sbsg3638
g0
(g449
g62
(lp3767
tp3768
Rp3769
(dp3770
g21
I00
sg49
I01
sg23
I00
sg743
I1
sbsbag0
(g358
g2
Ntp3771
Rp3772
(dp3773
g21
I00
sg49
I01
sg23
I00
sg19
(lp3774
g3636
ag3637
ag3638
asg22
Nsg3636
g0
(g3639
g2
Ntp3775
Rp3776
(dp3777
g21
I00
sg49
I01
sg23
I00
sg3643
I340000
sg3644
I0
sg3645
I1
sg3646
I999999999
sg3647
I0
sg3648
I0
sbsg3637
g0
(g449
g62
(lp3778
VCondFormats/PPSObjects/xml/mapping_totem_timing_2022.xml
p3779
atp3780
Rp3781
(dp3782
g21
I00
sg49
I01
sg23
I00
sg743
I1
sbsg3638
g0
(g449
g62
(lp3783
tp3784
Rp3785
(dp3786
g21
I00
sg49
I01
sg23
I00
sg743
I1
sbsbatp3787
Rp3788
(dp3789
g21
I00
sg49
I01
sg23
I00
sg743
I1
sbsg24
g3724
sg26
I106
sg27
g3725
sbsVtotemDAQMappingESSourceXML_TrackingStrip
p3790
g0
(g2640
g2
Ntp3791
Rp3792
(dp3793
g17
g3618
sg19
(lp3794
g363
ag342
ag3620
ag3621
asg21
I00
sg22
Nsg363
g0
(g67
g2
Ntp3795
Rp3796
(dp3797
g21
I00
sg49
I00
sg23
I00
sg50
I0
sbsg23
I00
sg342
g0
(g45
g2
Ntp3798
Rp3799
(dp3800
g21
I00
sg49
I00
sg23
I00
sg50
g1346
sbsg3620
g0
(g67
g2
Ntp3801
Rp3802
(dp3803
g21
I00
sg49
I01
sg23
I00
sg50
I6
sbsg3621
g0
(g2725
g62
(lp3804
g0
(g358
g2
Ntp3805
Rp3806
(dp3807
g21
I00
sg49
I01
sg23
I00
sg19
(lp3808
g3636
ag3637
ag3638
asg22
Nsg3636
g0
(g3639
g2
Ntp3809
Rp3810
(dp3811
g21
I00
sg49
I01
sg23
I00
sg3643
I1
sg3644
I0
sg3645
I1
sg3646
I280385
sg3647
I0
sg3648
I0
sbsg3637
g0
(g449
g62
(lp3812
VCondFormats/PPSObjects/xml/mapping_tracking_strip_2016_to_fill_5288.xml
p3813
atp3814
Rp3815
(dp3816
g21
I00
sg49
I01
sg23
I00
sg743
I1
sbsg3638
g0
(g449
g62
(lp3817
tp3818
Rp3819
(dp3820
g21
I00
sg49
I01
sg23
I00
sg743
I1
sbsbag0
(g358
g2
Ntp3821
Rp3822
(dp3823
g21
I00
sg49
I01
sg23
I00
sg19
(lp3824
g3636
ag3637
ag3638
asg22
Nsg3636
g0
(g3639
g2
Ntp3825
Rp3826
(dp3827
g21
I00
sg49
I01
sg23
I00
sg3643
I280386
sg3644
I0
sg3645
I1
sg3646
I281600
sg3647
I0
sg3648
I0
sbsg3637
g0
(g449
g62
(lp3828
tp3829
Rp3830
(dp3831
g21
I00
sg49
I01
sg23
I00
sg743
I1
sbsg3638
g0
(g449
g62
(lp3832
tp3833
Rp3834
(dp3835
g21
I00
sg49
I01
sg23
I00
sg743
I1
sbsbag0
(g358
g2
Ntp3836
Rp3837
(dp3838
g21
I00
sg49
I01
sg23
I00
sg19
(lp3839
g3636
ag3637
ag3638
asg22
Nsg3636
g0
(g3639
g2
Ntp3840
Rp3841
(dp3842
g21
I00
sg49
I01
sg23
I00
sg3643
I281601
sg3644
I0
sg3645
I1
sg3646
I290872
sg3647
I0
sg3648
I0
sbsg3637
g0
(g449
g62
(lp3843
VCondFormats/PPSObjects/xml/mapping_tracking_strip_2016_from_fill_5330.xml
p3844
atp3845
Rp3846
(dp3847
g21
I00
sg49
I01
sg23
I00
sg743
I1
sbsg3638
g0
(g449
g62
(lp3848
tp3849
Rp3850
(dp3851
g21
I00
sg49
I01
sg23
I00
sg743
I1
sbsbag0
(g358
g2
Ntp3852
Rp3853
(dp3854
g21
I00
sg49
I01
sg23
I00
sg19
(lp3855
g3636
ag3637
ag3638
asg22
Nsg3636
g0
(g3639
g2
Ntp3856
Rp3857
(dp3858
g21
I00
sg49
I01
sg23
I00
sg3643
I290873
sg3644
I0
sg3645
I1
sg3646
I311625
sg3647
I0
sg3648
I0
sbsg3637
g0
(g449
g62
(lp3859
VCondFormats/PPSObjects/xml/mapping_tracking_strip_2017.xml
p3860
atp3861
Rp3862
(dp3863
g21
I00
sg49
I01
sg23
I00
sg743
I1
sbsg3638
g0
(g449
g62
(lp3864
tp3865
Rp3866
(dp3867
g21
I00
sg49
I01
sg23
I00
sg743
I1
sbsbag0
(g358
g2
Ntp3868
Rp3869
(dp3870
g21
I00
sg49
I01
sg23
I00
sg19
(lp3871
g3636
ag3637
ag3638
asg22
Nsg3636
g0
(g3639
g2
Ntp3872
Rp3873
(dp3874
g21
I00
sg49
I01
sg23
I00
sg3643
I311626
sg3644
I0
sg3645
I1
sg3646
I339999
sg3647
I0
sg3648
I0
sbsg3637
g0
(g449
g62
(lp3875
VCondFormats/PPSObjects/xml/mapping_tracking_strip_2018.xml
p3876
atp3877
Rp3878
(dp3879
g21
I00
sg49
I01
sg23
I00
sg743
I1
sbsg3638
g0
(g449
g62
(lp3880
tp3881
Rp3882
(dp3883
g21
I00
sg49
I01
sg23
I00
sg743
I1
sbsbag0
(g358
g2
Ntp3884
Rp3885
(dp3886
g21
I00
sg49
I01
sg23
I00
sg19
(lp3887
g3636
ag3637
ag3638
asg22
Nsg3636
g0
(g3639
g2
Ntp3888
Rp3889
(dp3890
g21
I00
sg49
I01
sg23
I00
sg3643
I340000
sg3644
I0
sg3645
I1
sg3646
I999999999
sg3647
I0
sg3648
I0
sbsg3637
g0
(g449
g62
(lp3891
VCondFormats/PPSObjects/xml/mapping_tracking_strip_2022.xml
p3892
atp3893
Rp3894
(dp3895
g21
I00
sg49
I01
sg23
I00
sg743
I1
sbsg3638
g0
(g449
g62
(lp3896
tp3897
Rp3898
(dp3899
g21
I00
sg49
I01
sg23
I00
sg743
I1
sbsbatp3900
Rp3901
(dp3902
g21
I00
sg49
I01
sg23
I00
sg743
I1
sbsg24
g3724
sg26
I8
sg27
g3790
sbssV_Process__esproducers
p3903
(dp3904
VCSCGeometryESModule
p3905
g0
(cFWCore.ParameterSet.Modules
ESProducer
p3906
g2
Ntp3907
Rp3908
(dp3909
g17
g3905
sg19
(lp3910
VfromDDD
p3911
aVfromDD4hep
p3912
aValignmentsLabel
p3913
ag2757
aVuseRealWireGeometry
p3914
aVuseOnlyWiresInME1a
p3915
aVuseGangedStripsInME1a
p3916
aVuseCentreTIOffsets
p3917
aVapplyAlignment
p3918
aVdebugV
p3919
asg21
I00
sg22
Nsg3911
g0
(g71
g2
Ntp3920
Rp3921
(dp3922
g21
I00
sg49
I01
sg23
I00
sg50
I00
sbsg23
I00
sg3912
g0
(g71
g2
Ntp3923
Rp3924
(dp3925
g21
I00
sg49
I01
sg23
I00
sg50
I00
sbsg3913
g0
(g45
g2
Ntp3926
Rp3927
(dp3928
g21
I00
sg49
I01
sg23
I00
sg50
g59
sbsg2757
g0
(g45
g2
Ntp3929
Rp3930
(dp3931
g21
I00
sg49
I01
sg23
I00
sg50
g59
sbsg3914
g0
(g71
g2
Ntp3932
Rp3933
(dp3934
g21
I00
sg49
I01
sg23
I00
sg50
I01
sbsg3915
g0
(g71
g2
Ntp3935
Rp3936
(dp3937
g21
I00
sg49
I01
sg23
I00
sg50
I00
sbsg3916
g0
(g71
g2
Ntp3938
Rp3939
(dp3940
g21
I00
sg49
I01
sg23
I00
sg50
I01
sbsg3917
g0
(g71
g2
Ntp3941
Rp3942
(dp3943
g21
I00
sg49
I01
sg23
I00
sg50
I00
sbsg3918
g0
(g71
g2
Ntp3944
Rp3945
(dp3946
g21
I00
sg49
I01
sg23
I00
sg50
I01
sbsg3919
g0
(g71
g2
Ntp3947
Rp3948
(dp3949
g21
I00
sg49
I00
sg23
I00
sg50
I00
sbsg24
g1504
sg26
I55
sg27
g3905
sbsVCaloGeometryBuilder
p3950
g0
(g3906
g2
Ntp3951
Rp3952
(dp3953
g17
g3950
sg19
(lp3954
VSelectedCalos
p3955
asg21
I00
sg22
Nsg3955
g0
(g449
g62
(lp3956
VHCAL
p3957
aVZDC
p3958
aVCASTOR
p3959
aVEcalBarrel
p3960
aVEcalEndcap
p3961
aVEcalPreshower
p3962
aVTOWER
p3963
atp3964
Rp3965
(dp3966
g21
I00
sg49
I01
sg23
I00
sg743
I1
sbsg23
I00
sg24
g1504
sg26
I55
sg27
g3950
sbsVCaloTopologyBuilder
p3967
g0
(g3906
g2
Ntp3968
Rp3969
(dp3970
g17
g3967
sg19
(lp3971
sg21
I00
sg22
Nsg23
I00
sg24
g1504
sg26
I55
sg27
g3967
sbsVCaloTowerGeometryFromDBEP
p3972
g0
(g3906
g2
Ntp3973
Rp3974
(dp3975
g17
g3972
sg19
(lp3976
g3918
asg21
I00
sg22
Nsg3918
g0
(g71
g2
Ntp3977
Rp3978
(dp3979
g21
I00
sg49
I01
sg23
I00
sg50
I00
sbsg23
I00
sg24
g1504
sg26
I55
sg27
g3972
sbsVCaloTowerTopologyEP
p3980
g0
(g3906
g2
Ntp3981
Rp3982
(dp3983
g17
g3980
sg19
(lp3984
sg21
I00
sg22
Nsg23
I00
sg24
g1504
sg26
I55
sg27
g3980
sbsVCastorGeometryFromDBEP
p3985
g0
(g3906
g2
Ntp3986
Rp3987
(dp3988
g17
g3985
sg19
(lp3989
g3918
asg21
I00
sg22
Nsg3918
g0
(g71
g2
Ntp3990
Rp3991
(dp3992
g21
I00
sg49
I01
sg23
I00
sg50
I00
sbsg23
I00
sg24
g1504
sg26
I55
sg27
g3985
sbsVDTGeometryESModule
p3993
g0
(g3906
g2
Ntp3994
Rp3995
(dp3996
g17
g3993
sg19
(lp3997
g3911
ag3912
aVDDDetector
p3998
ag3913
ag2757
aVattribute
p3999
aVvalue
p4000
ag3918
asg21
I00
sg22
Nsg3911
g0
(g71
g2
Ntp4001
Rp4002
(dp4003
g21
I00
sg49
I01
sg23
I01
sg50
I00
sbsg23
I01
sg3912
g0
(g71
g2
Ntp4004
Rp4005
(dp4006
g21
I00
sg49
I01
sg23
I00
sg50
I00
sbsg3998
g0
(cFWCore.ParameterSet.Types
ESInputTag
p4007
g2
Ntp4008
Rp4009
(dp4010
g21
I00
sg49
I01
sg23
I00
sV_ESInputTag__moduleLabel
p4011
g59
sV_ESInputTag__data
p4012
g59
sbsg3913
g0
(g45
g2
Ntp4013
Rp4014
(dp4015
g21
I00
sg49
I01
sg23
I00
sg50
g59
sbsg2757
g0
(g45
g2
Ntp4016
Rp4017
(dp4018
g21
I00
sg49
I01
sg23
I00
sg50
g59
sbsg3999
g0
(g45
g2
Ntp4019
Rp4020
(dp4021
g21
I00
sg49
I01
sg23
I00
sg50
VMuStructure
p4022
sbsg4000
g0
(g45
g2
Ntp4023
Rp4024
(dp4025
g21
I00
sg49
I01
sg23
I00
sg50
VMuonBarrelDT
p4026
sbsg3918
g0
(g71
g2
Ntp4027
Rp4028
(dp4029
g21
I00
sg49
I01
sg23
I00
sg50
I01
sbsg24
g1504
sg26
I55
sg27
g3993
sbsVEcalBarrelGeometryFromDBEP
p4030
g0
(g3906
g2
Ntp4031
Rp4032
(dp4033
g17
g4030
sg19
(lp4034
g3918
asg21
I00
sg22
Nsg3918
g0
(g71
g2
Ntp4035
Rp4036
(dp4037
g21
I00
sg49
I01
sg23
I01
sg50
I01
sbsg23
I01
sg24
g1504
sg26
I55
sg27
g4030
sbsVEcalElectronicsMappingBuilder
p4038
g0
(g3906
g2
Ntp4039
Rp4040
(dp4041
g17
g4038
sg19
(lp4042
sg21
I00
sg22
Nsg23
I00
sg24
g1504
sg26
I55
sg27
g4038
sbsVEcalEndcapGeometryFromDBEP
p4043
g0
(g3906
g2
Ntp4044
Rp4045
(dp4046
g17
g4043
sg19
(lp4047
g3918
asg21
I00
sg22
Nsg3918
g0
(g71
g2
Ntp4048
Rp4049
(dp4050
g21
I00
sg49
I01
sg23
I01
sg50
I01
sbsg23
I01
sg24
g1504
sg26
I55
sg27
g4043
sbsVEcalPreshowerGeometryFromDBEP
p4051
g0
(g3906
g2
Ntp4052
Rp4053
(dp4054
g17
g4051
sg19
(lp4055
g3918
asg21
I00
sg22
Nsg3918
g0
(g71
g2
Ntp4056
Rp4057
(dp4058
g21
I00
sg49
I01
sg23
I01
sg50
I01
sbsg23
I01
sg24
g1504
sg26
I55
sg27
g4051
sbsVEcalTrigTowerConstituentsMapBuilder
p4059
g0
(g3906
g2
Ntp4060
Rp4061
(dp4062
g17
g4059
sg19
(lp4063
VMapFile
p4064
asg21
I00
sg22
Nsg4064
g0
(g45
g2
Ntp4065
Rp4066
(dp4067
g21
I00
sg49
I00
sg23
I00
sg50
VGeometry/EcalMapping/data/EndCap_TTMap.txt
p4068
sbsg23
I00
sg24
g1504
sg26
I55
sg27
g4059
sbsVGlobalTrackingGeometryESProducer
p4069
g0
(g3906
g2
Ntp4070
Rp4071
(dp4072
g17
g4069
sg19
(lp4073
sg21
I00
sg22
Nsg23
I00
sg24
g1504
sg26
I55
sg27
g4069
sbsVHcalAlignmentEP
p4074
g0
(g3906
g2
Ntp4075
Rp4076
(dp4077
g17
g4074
sg19
(lp4078
sg21
I00
sg22
Nsg23
I00
sg24
g1504
sg26
I55
sg27
g4074
sbsVHcalGeometryFromDBEP
p4079
g0
(g3906
g2
Ntp4080
Rp4081
(dp4082
g17
g4079
sg19
(lp4083
g3918
asg21
I00
sg22
Nsg3918
g0
(g71
g2
Ntp4084
Rp4085
(dp4086
g21
I00
sg49
I01
sg23
I01
sg50
I01
sbsg23
I01
sg24
g1504
sg26
I55
sg27
g4079
sbsVMuonDetLayerGeometryESProducer
p4087
g0
(g3906
g2
Ntp4088
Rp4089
(dp4090
g17
g4087
sg19
(lp4091
sg21
I00
sg22
Nsg23
I00
sg24
g1504
sg26
I55
sg27
g4087
sbsVRPCGeometryESModule
p4092
g0
(g3906
g2
Ntp4093
Rp4094
(dp4095
g17
g4092
sg19
(lp4096
g3911
ag3912
asg21
I00
sg22
Nsg3911
g0
(g71
g2
Ntp4097
Rp4098
(dp4099
g21
I00
sg49
I00
sg23
I00
sg50
I00
sbsg23
I00
sg3912
g0
(g71
g2
Ntp4100
Rp4101
(dp4102
g21
I00
sg49
I00
sg23
I00
sg50
I00
sbsg24
g1504
sg26
I55
sg27
g4092
sbsVTrackerAdditionalParametersPerDet
p4103
g0
(g3906
g2
Ntp4104
Rp4105
(dp4106
g17
VTrackerAdditionalParametersPerDetESModule
p4107
sg19
(lp4108
g2757
asg21
I00
sg22
Nsg2757
g0
(g45
g2
Ntp4109
Rp4110
(dp4111
g21
I00
sg49
I01
sg23
I00
sg50
g59
sbsg23
I00
sg24
g1504
sg26
I55
sg27
g4103
sbsVTrackerRecoGeometryESProducer
p4112
g0
(g3906
g2
Ntp4113
Rp4114
(dp4115
g17
g4112
sg19
(lp4116
VusePhase2Stacks
p4117
asg21
I00
sg22
Nsg4117
g0
(g71
g2
Ntp4118
Rp4119
(dp4120
g21
I00
sg49
I01
sg23
I00
sg50
I00
sbsg23
I00
sg24
g1504
sg26
I55
sg27
g4112
sbsVZdcGeometryFromDBEP
p4121
g0
(g3906
g2
Ntp4122
Rp4123
(dp4124
g17
g4121
sg19
(lp4125
g3918
asg21
I00
sg22
Nsg3918
g0
(g71
g2
Ntp4126
Rp4127
(dp4128
g21
I00
sg49
I01
sg23
I00
sg50
I00
sbsg23
I00
sg24
g1504
sg26
I55
sg27
g4121
sbsVfakeForIdealAlignment
p4129
g0
(g3906
g2
Ntp4130
Rp4131
(dp4132
g17
VFakeAlignmentProducer
p4133
sg19
(lp4134
g2757
asg21
I00
sg22
Nsg2757
g0
(g45
g2
Ntp4135
Rp4136
(dp4137
g21
I00
sg49
I01
sg23
I01
sg50
VfakeForIdeal
p4138
sbsg23
I01
sg24
V/cvmfs/cms.cern.ch/slc7_amd64_gcc10/cms/cmssw/CMSSW_12_4_7/python/Alignment/CommonAlignmentProducer/fakeForIdealAlignmentProducer_cfi.py
p4139
sg26
I5
sg27
g4129
sbsVhcalDDDRecConstants
p4140
g0
(g3906
g2
Ntp4141
Rp4142
(dp4143
g17
VHcalDDDRecConstantsESModule
p4144
sg19
(lp4145
g2757
asg21
I00
sg22
Nsg2757
g0
(g45
g2
Ntp4146
Rp4147
(dp4148
g21
I00
sg49
I01
sg23
I00
sg50
g59
sbsg23
I00
sg24
g1504
sg26
I55
sg27
g4140
sbsVhcalDDDSimConstants
p4149
g0
(g3906
g2
Ntp4150
Rp4151
(dp4152
g17
VHcalDDDSimConstantsESModule
p4153
sg19
(lp4154
g2757
asg21
I00
sg22
Nsg2757
g0
(g45
g2
Ntp4155
Rp4156
(dp4157
g21
I00
sg49
I01
sg23
I00
sg50
g59
sbsg23
I00
sg24
g1504
sg26
I55
sg27
g4149
sbsVhcalTopologyIdeal
p4158
g0
(g3906
g2
Ntp4159
Rp4160
(dp4161
g17
VHcalTopologyIdealEP
p4162
sg19
(lp4163
VExclude
p4164
aVMergePosition
p4165
ag2757
asg21
I00
sg22
Nsg4164
g0
(g45
g2
Ntp4166
Rp4167
(dp4168
g21
I00
sg49
I00
sg23
I00
sg50
g59
sbsg23
I00
sg4165
g0
(g71
g2
Ntp4169
Rp4170
(dp4171
g21
I00
sg49
I00
sg23
I00
sg50
I00
sbsg2757
g0
(g45
g2
Ntp4172
Rp4173
(dp4174
g21
I00
sg49
I01
sg23
I00
sg50
g59
sbsg24
g1504
sg26
I55
sg27
g4158
sbsVidealForDigiCSCGeometry
p4175
g0
(g3906
g2
Ntp4176
Rp4177
(dp4178
g17
g3905
sg19
(lp4179
g3911
ag3912
ag3913
ag2757
ag3914
ag3915
ag3916
ag3917
ag3918
ag3919
asg21
I00
sg22
Nsg3911
g0
(g71
g2
Ntp4180
Rp4181
(dp4182
g21
I00
sg49
I01
sg23
I00
sg50
I00
sbsg23
I01
sg3912
g0
(g71
g2
Ntp4183
Rp4184
(dp4185
g21
I00
sg49
I01
sg23
I00
sg50
I00
sbsg3913
g0
(g45
g2
Ntp4186
Rp4187
(dp4188
g21
I00
sg49
I01
sg23
I01
sg50
g4138
sbsg2757
g0
(g45
g2
Ntp4189
Rp4190
(dp4191
g21
I00
sg49
I01
sg23
I01
sg50
VidealForDigi
p4192
sbsg3914
g0
(g71
g2
Ntp4193
Rp4194
(dp4195
g21
I00
sg49
I01
sg23
I00
sg50
I01
sbsg3915
g0
(g71
g2
Ntp4196
Rp4197
(dp4198
g21
I00
sg49
I01
sg23
I00
sg50
I00
sbsg3916
g0
(g71
g2
Ntp4199
Rp4200
(dp4201
g21
I00
sg49
I01
sg23
I00
sg50
I01
sbsg3917
g0
(g71
g2
Ntp4202
Rp4203
(dp4204
g21
I00
sg49
I01
sg23
I00
sg50
I00
sbsg3918
g0
(g71
g2
Ntp4205
Rp4206
(dp4207
g21
I00
sg49
I01
sg23
I01
sg50
I00
sbsg3919
g0
(g71
g2
Ntp4208
Rp4209
(dp4210
g21
I00
sg49
I00
sg23
I00
sg50
I00
sbsg24
V/cvmfs/cms.cern.ch/slc7_amd64_gcc10/cms/cmssw/CMSSW_12_4_7/python/Geometry/CSCGeometryBuilder/idealForDigiCscGeometryDB_cff.py
p4211
sg26
I8
sg27
g4175
sbsVidealForDigiDTGeometry
p4212
g0
(g3906
g2
Ntp4213
Rp4214
(dp4215
g17
g3993
sg19
(lp4216
g3911
ag3912
ag3998
ag3913
ag2757
ag3999
ag4000
ag3918
asg21
I00
sg22
Nsg3911
g0
(g71
g2
Ntp4217
Rp4218
(dp4219
g21
I00
sg49
I01
sg23
I01
sg50
I00
sbsg23
I01
sg3912
g0
(g71
g2
Ntp4220
Rp4221
(dp4222
g21
I00
sg49
I01
sg23
I00
sg50
I00
sbsg3998
g0
(g4007
g2
Ntp4223
Rp4224
(dp4225
g21
I00
sg49
I01
sg23
I00
sg4011
g59
sg4012
g59
sbsg3913
g0
(g45
g2
Ntp4226
Rp4227
(dp4228
g21
I00
sg49
I01
sg23
I01
sg50
g4138
sbsg2757
g0
(g45
g2
Ntp4229
Rp4230
(dp4231
g21
I00
sg49
I01
sg23
I01
sg50
g4192
sbsg3999
g0
(g45
g2
Ntp4232
Rp4233
(dp4234
g21
I00
sg49
I01
sg23
I00
sg50
g4022
sbsg4000
g0
(g45
g2
Ntp4235
Rp4236
(dp4237
g21
I00
sg49
I01
sg23
I00
sg50
g4026
sbsg3918
g0
(g71
g2
Ntp4238
Rp4239
(dp4240
g21
I00
sg49
I01
sg23
I01
sg50
I00
sbsg24
V/cvmfs/cms.cern.ch/slc7_amd64_gcc10/cms/cmssw/CMSSW_12_4_7/python/Geometry/DTGeometryBuilder/idealForDigiDtGeometryDB_cff.py
p4241
sg26
I8
sg27
g4212
sbsVidealForDigiTrackerGeometry
p4242
g0
(g3906
g2
Ntp4243
Rp4244
(dp4245
g17
VTrackerDigiGeometryESModule
p4246
sg19
(lp4247
g2757
ag3911
ag3918
ag3913
asg21
I00
sg22
Nsg2757
g0
(g45
g2
Ntp4248
Rp4249
(dp4250
g21
I00
sg49
I01
sg23
I01
sg50
g4192
sbsg23
I01
sg3911
g0
(g71
g2
Ntp4251
Rp4252
(dp4253
g21
I00
sg49
I01
sg23
I00
sg50
I00
sbsg3918
g0
(g71
g2
Ntp4254
Rp4255
(dp4256
g21
I00
sg49
I01
sg23
I01
sg50
I00
sbsg3913
g0
(g45
g2
Ntp4257
Rp4258
(dp4259
g21
I00
sg49
I01
sg23
I01
sg50
g4138
sbsg24
V/cvmfs/cms.cern.ch/slc7_amd64_gcc10/cms/cmssw/CMSSW_12_4_7/python/Geometry/TrackerGeometryBuilder/idealForDigiTrackerGeometryDB_cff.py
p4260
sg26
I8
sg27
g4242
sbsVmuonGeometryConstants
p4261
g0
(g3906
g2
Ntp4262
Rp4263
(dp4264
g17
VMuonGeometryConstantsESModule
p4265
sg19
(lp4266
g3912
ag2757
asg21
I00
sg22
Nsg3912
g0
(g71
g2
Ntp4267
Rp4268
(dp4269
g21
I00
sg49
I01
sg23
I00
sg50
I00
sbsg23
I00
sg2757
g0
(g45
g2
Ntp4270
Rp4271
(dp4272
g21
I00
sg49
I01
sg23
I00
sg50
g59
sbsg24
g1504
sg26
I55
sg27
g4261
sbsVtrackerGeometryDB
p4273
g0
(g3906
g2
Ntp4274
Rp4275
(dp4276
g17
g4246
sg19
(lp4277
g2757
ag3911
ag3918
ag3913
asg21
I00
sg22
Nsg2757
g0
(g45
g2
Ntp4278
Rp4279
(dp4280
g21
I00
sg49
I01
sg23
I00
sg50
g59
sbsg23
I00
sg3911
g0
(g71
g2
Ntp4281
Rp4282
(dp4283
g21
I00
sg49
I01
sg23
I00
sg50
I00
sbsg3918
g0
(g71
g2
Ntp4284
Rp4285
(dp4286
g21
I00
sg49
I01
sg23
I00
sg50
I01
sbsg3913
g0
(g45
g2
Ntp4287
Rp4288
(dp4289
g21
I00
sg49
I01
sg23
I00
sg50
g59
sbsg24
g1504
sg26
I55
sg27
g4273
sbsVtrackerNumberingGeometryDB
p4290
g0
(g3906
g2
Ntp4291
Rp4292
(dp4293
g17
VTrackerGeometricDetESModule
p4294
sg19
(lp4295
g3911
ag3912
ag2757
asg21
I00
sg22
Nsg3911
g0
(g71
g2
Ntp4296
Rp4297
(dp4298
g21
I00
sg49
I01
sg23
I00
sg50
I00
sbsg23
I00
sg3912
g0
(g71
g2
Ntp4299
Rp4300
(dp4301
g21
I00
sg49
I01
sg23
I00
sg50
I00
sbsg2757
g0
(g45
g2
Ntp4302
Rp4303
(dp4304
g21
I00
sg49
I01
sg23
I00
sg50
g59
sbsg24
g1504
sg26
I55
sg27
g4290
sbsVtrackerTopology
p4305
g0
(g3906
g2
Ntp4306
Rp4307
(dp4308
g17
VTrackerTopologyEP
p4309
sg19
(lp4310
g2757
asg21
I00
sg22
Nsg2757
g0
(g45
g2
Ntp4311
Rp4312
(dp4313
g21
I00
sg49
I01
sg23
I00
sg50
g59
sbsg23
I00
sg24
g1504
sg26
I55
sg27
g4305
sbsVMuonNumberingInitialization
p4314
g0
(g3906
g2
Ntp4315
Rp4316
(dp4317
g17
g4314
sg19
(lp4318
sg21
I00
sg22
Nsg23
I00
sg24
g1504
sg26
I55
sg27
g4314
sbsVXMLFromDBSource
p4319
g0
(g3906
g2
Ntp4320
Rp4321
(dp4322
g17
VXMLIdealGeometryESProducer
p4323
sg19
(lp4324
VrootDDName
p4325
aVlabel
p4326
asg21
I00
sg22
Nsg4325
g0
(g45
g2
Ntp4327
Rp4328
(dp4329
g21
I00
sg49
I01
sg23
I00
sg50
Vcms:OCMS
p4330
sbsg23
I00
sg4326
g0
(g45
g2
Ntp4331
Rp4332
(dp4333
g21
I00
sg49
I01
sg23
I00
sg50
VExtended
p4334
sbsg24
g1504
sg26
I55
sg27
g4319
sbsVcaloSimulationParameters
p4335
g0
(g3906
g2
Ntp4336
Rp4337
(dp4338
g17
VCaloSimParametersESModule
p4339
sg19
(lp4340
g3912
ag2757
asg21
I00
sg22
Nsg3912
g0
(g71
g2
Ntp4341
Rp4342
(dp4343
g21
I00
sg49
I01
sg23
I00
sg50
I00
sbsg23
I00
sg2757
g0
(g45
g2
Ntp4344
Rp4345
(dp4346
g21
I00
sg49
I01
sg23
I00
sg50
g59
sbsg24
g1504
sg26
I55
sg27
g4335
sbsVecalSimulationParametersEB
p4347
g0
(g3906
g2
Ntp4348
Rp4349
(dp4350
g17
VEcalSimParametersESModule
p4351
sg19
(lp4352
g3912
aVname
p4353
ag2757
asg21
I00
sg22
Nsg3912
g0
(g71
g2
Ntp4354
Rp4355
(dp4356
g21
I00
sg49
I01
sg23
I00
sg50
I00
sbsg23
I00
sg4353
g0
(g45
g2
Ntp4357
Rp4358
(dp4359
g21
I00
sg49
I01
sg23
I00
sg50
VEcalHitsEB
p4360
sbsg2757
g0
(g45
g2
Ntp4361
Rp4362
(dp4363
g21
I00
sg49
I01
sg23
I00
sg50
g59
sbsg24
g1504
sg26
I55
sg27
g4347
sbsVecalSimulationParametersEE
p4364
g0
(g3906
g2
Ntp4365
Rp4366
(dp4367
g17
g4351
sg19
(lp4368
g3912
ag4353
ag2757
asg21
I00
sg22
Nsg3912
g0
(g71
g2
Ntp4369
Rp4370
(dp4371
g21
I00
sg49
I01
sg23
I00
sg50
I00
sbsg23
I00
sg4353
g0
(g45
g2
Ntp4372
Rp4373
(dp4374
g21
I00
sg49
I01
sg23
I00
sg50
VEcalHitsEE
p4375
sbsg2757
g0
(g45
g2
Ntp4376
Rp4377
(dp4378
g21
I00
sg49
I01
sg23
I00
sg50
g59
sbsg24
V/cvmfs/cms.cern.ch/slc7_amd64_gcc10/cms/cmssw/CMSSW_12_4_7/python/Geometry/EcalCommonData/ecalSimulationParameters_cff.py
p4379
sg26
I11
sg27
g4364
sbsVecalSimulationParametersES
p4380
g0
(g3906
g2
Ntp4381
Rp4382
(dp4383
g17
g4351
sg19
(lp4384
g3912
ag4353
ag2757
asg21
I00
sg22
Nsg3912
g0
(g71
g2
Ntp4385
Rp4386
(dp4387
g21
I00
sg49
I01
sg23
I00
sg50
I00
sbsg23
I00
sg4353
g0
(g45
g2
Ntp4388
Rp4389
(dp4390
g21
I00
sg49
I01
sg23
I00
sg50
VEcalHitsES
p4391
sbsg2757
g0
(g45
g2
Ntp4392
Rp4393
(dp4394
g21
I00
sg49
I01
sg23
I00
sg50
g59
sbsg24
g4379
sg26
I14
sg27
g4380
sbsVhcalSimulationConstants
p4395
g0
(g3906
g2
Ntp4396
Rp4397
(dp4398
g17
VHcalSimulationConstantsESModule
p4399
sg19
(lp4400
g2757
asg21
I00
sg22
Nsg2757
g0
(g45
g2
Ntp4401
Rp4402
(dp4403
g21
I00
sg49
I01
sg23
I00
sg50
g59
sbsg23
I00
sg24
g1504
sg26
I55
sg27
g4395
sbsVhcalSimulationParameters
p4404
g0
(g3906
g2
Ntp4405
Rp4406
(dp4407
g17
VHcalSimParametersESModule
p4408
sg19
(lp4409
g3912
ag2757
asg21
I00
sg22
Nsg3912
g0
(g71
g2
Ntp4410
Rp4411
(dp4412
g21
I00
sg49
I01
sg23
I00
sg50
I00
sbsg23
I00
sg2757
g0
(g45
g2
Ntp4413
Rp4414
(dp4415
g21
I00
sg49
I01
sg23
I00
sg50
g59
sbsg24
g1504
sg26
I55
sg27
g4404
sbsVmuonOffsetESProducer
p4416
g0
(g3906
g2
Ntp4417
Rp4418
(dp4419
g17
VMuonOffsetESProducer
p4420
sg19
(lp4421
g3912
aVnames
p4422
ag2757
asg21
I00
sg22
Nsg3912
g0
(g71
g2
Ntp4423
Rp4424
(dp4425
g21
I00
sg49
I01
sg23
I00
sg50
I00
sbsg23
I00
sg4422
g0
(g449
g62
(lp4426
VMuonCommonNumbering
p4427
aVMuonBarrel
p4428
aVMuonEndcap
p4429
aVMuonBarrelWheels
p4430
aVMuonBarrelStation1
p4431
aVMuonBarrelStation2
p4432
aVMuonBarrelStation3
p4433
aVMuonBarrelStation4
p4434
aVMuonBarrelSuperLayer
p4435
aVMuonBarrelLayer
p4436
aVMuonBarrelWire
p4437
aVMuonRpcPlane1I
p4438
aVMuonRpcPlane1O
p4439
aVMuonRpcPlane2I
p4440
aVMuonRpcPlane2O
p4441
aVMuonRpcPlane3S
p4442
aVMuonRpcPlane4
p4443
aVMuonRpcChamberLeft
p4444
aVMuonRpcChamberMiddle
p4445
aVMuonRpcChamberRight
p4446
aVMuonRpcEndcap1
p4447
aVMuonRpcEndcap2
p4448
aVMuonRpcEndcap3
p4449
aVMuonRpcEndcap4
p4450
aVMuonRpcEndcapSector
p4451
aVMuonRpcEndcapChamberB1
p4452
aVMuonRpcEndcapChamberB2
p4453
aVMuonRpcEndcapChamberB3
p4454
aVMuonRpcEndcapChamberC1
p4455
aVMuonRpcEndcapChamberC2
p4456
aVMuonRpcEndcapChamberC3
p4457
aVMuonRpcEndcapChamberE1
p4458
aVMuonRpcEndcapChamberE2
p4459
aVMuonRpcEndcapChamberE3
p4460
aVMuonRpcEndcapChamberF1
p4461
aVMuonRpcEndcapChamberF2
p4462
aVMuonRpcEndcapChamberF3
p4463
aVMuonEndcapStation1
p4464
aVMuonEndcapStation2
p4465
aVMuonEndcapStation3
p4466
aVMuonEndcapStation4
p4467
aVMuonEndcapSubrings
p4468
aVMuonEndcapSectors
p4469
aVMuonEndcapLayers
p4470
aVMuonEndcapRing1
p4471
aVMuonEndcapRing2
p4472
aVMuonEndcapRing3
p4473
aVMuonEndcapRingA
p4474
aVMuonGEMEndcap
p4475
aVMuonGEMSector
p4476
aVMuonGEMChamber
p4477
atp4478
Rp4479
(dp4480
g21
I00
sg49
I01
sg23
I00
sg743
I1
sbsg2757
g0
(g45
g2
Ntp4481
Rp4482
(dp4483
g21
I00
sg49
I01
sg23
I00
sg50
g59
sbsg24
g1504
sg26
I55
sg27
g4416
sbsVCastorDbProducer
p4484
g0
(g3906
g2
Ntp4485
Rp4486
(dp4487
g17
g4484
sg19
(lp4488
g2757
asg21
I00
sg22
Nsg2757
g0
(g45
g2
Ntp4489
Rp4490
(dp4491
g21
I00
sg49
I01
sg23
I00
sg50
g59
sbsg23
I00
sg24
g1504
sg26
I55
sg27
g4484
sbsVEcalLaserCorrectionService
p4492
g0
(g3906
g2
Ntp4493
Rp4494
(dp4495
g17
g4492
sg19
(lp4496
VmaxExtrapolationTimeInSec
p4497
asg21
I00
sg22
Nsg4497
g0
(g67
g2
Ntp4498
Rp4499
(dp4500
g21
I00
sg49
I01
sg23
I00
sg50
I0
sbsg23
I00
sg24
g1504
sg26
I55
sg27
g4492
sbsVEcalLaserCorrectionServiceMC
p4501
g0
(g3906
g2
Ntp4502
Rp4503
(dp4504
g17
g4501
sg19
(lp4505
g2757
asg21
I00
sg22
Nsg2757
g0
(g45
g2
Ntp4506
Rp4507
(dp4508
g21
I00
sg49
I01
sg23
I00
sg50
g59
sbsg23
I00
sg24
g1504
sg26
I55
sg27
g4501
sbsVSiStripRecHitMatcherESProducer
p4509
g0
(g3906
g2
Ntp4510
Rp4511
(dp4512
g17
g4509
sg19
(lp4513
VComponentName
p4514
aVNSigmaInside
p4515
aVPreFilter
p4516
asg21
I00
sg22
Nsg4514
g0
(g45
g2
Ntp4517
Rp4518
(dp4519
g21
I00
sg49
I01
sg23
I00
sg50
VStandardMatcher
p4520
sbsg23
I00
sg4515
g0
(g406
g2
Ntp4521
Rp4522
(dp4523
g21
I00
sg49
I01
sg23
I00
sg50
F3.0
sbsg4516
g0
(g71
g2
Ntp4524
Rp4525
(dp4526
g21
I00
sg49
I01
sg23
I00
sg50
I00
sbsg24
g1504
sg26
I55
sg27
g4509
sbsVStripCPEfromTrackAngleESProducer
p4527
g0
(g3906
g2
Ntp4528
Rp4529
(dp4530
g17
VStripCPEESProducer
p4531
sg19
(lp4532
g4514
aVComponentType
p4533
aVparameters
p4534
asg21
I00
sg22
Nsg4514
g0
(g45
g2
Ntp4535
Rp4536
(dp4537
g21
I00
sg49
I01
sg23
I01
sg50
VStripCPEfromTrackAngle
p4538
sbsg23
I00
sg4533
g0
(g45
g2
Ntp4539
Rp4540
(dp4541
g21
I00
sg49
I01
sg23
I01
sg50
g4538
sbsg4534
g0
(g358
g2
Ntp4542
Rp4543
(dp4544
g21
I00
sg49
I01
sg23
I00
sg19
(lp4545
VmLC_P0
p4546
aVmLC_P1
p4547
aVmLC_P2
p4548
aVmTIB_P0
p4549
aVmTIB_P1
p4550
aVmTOB_P0
p4551
aVmTOB_P1
p4552
aVmTID_P0
p4553
aVmTID_P1
p4554
aVmTEC_P0
p4555
aVmTEC_P1
p4556
aVuseLegacyError
p4557
aVmaxChgOneMIP
p4558
asg22
Nsg4546
g0
(g406
g2
Ntp4559
Rp4560
(dp4561
g21
I00
sg49
I01
sg23
I00
sg50
F-0.326
sbsg4547
g0
(g406
g2
Ntp4562
Rp4563
(dp4564
g21
I00
sg49
I01
sg23
I00
sg50
F0.618
sbsg4548
g0
(g406
g2
Ntp4565
Rp4566
(dp4567
g21
I00
sg49
I01
sg23
I00
sg50
F0.3
sbsg4549
g0
(g406
g2
Ntp4568
Rp4569
(dp4570
g21
I00
sg49
I01
sg23
I00
sg50
F-0.742
sbsg4550
g0
(g406
g2
Ntp4571
Rp4572
(dp4573
g21
I00
sg49
I01
sg23
I00
sg50
F0.202
sbsg4551
g0
(g406
g2
Ntp4574
Rp4575
(dp4576
g21
I00
sg49
I01
sg23
I00
sg50
F-1.026
sbsg4552
g0
(g406
g2
Ntp4577
Rp4578
(dp4579
g21
I00
sg49
I01
sg23
I00
sg50
F0.253
sbsg4553
g0
(g406
g2
Ntp4580
Rp4581
(dp4582
g21
I00
sg49
I01
sg23
I00
sg50
F-1.427
sbsg4554
g0
(g406
g2
Ntp4583
Rp4584
(dp4585
g21
I00
sg49
I01
sg23
I00
sg50
F0.433
sbsg4555
g0
(g406
g2
Ntp4586
Rp4587
(dp4588
g21
I00
sg49
I01
sg23
I00
sg50
F-1.885
sbsg4556
g0
(g406
g2
Ntp4589
Rp4590
(dp4591
g21
I00
sg49
I01
sg23
I00
sg50
F0.471
sbsg4557
g0
(g71
g2
Ntp4592
Rp4593
(dp4594
g21
I00
sg49
I01
sg23
I00
sg50
I00
sbsg4558
g0
(g406
g2
Ntp4595
Rp4596
(dp4597
g21
I00
sg49
I01
sg23
I00
sg50
F6000.0
sbsbsg24
V/cvmfs/cms.cern.ch/slc7_amd64_gcc10/cms/cmssw/CMSSW_12_4_7/python/RecoLocalTracker/SiStripRecHitConverter/StripCPEfromTrackAngle_cfi.py
p4598
sg26
I4
sg27
g4527
sbsVctppsBeamParametersFromLHCInfoESSource
p4599
g0
(g3906
g2
Ntp4600
Rp4601
(dp4602
g17
VCTPPSBeamParametersFromLHCInfoESSource
p4603
sg19
(lp4604
VlhcInfoLabel
p4605
aVbeamDivX45
p4606
aVbeamDivY45
p4607
aVbeamDivX56
p4608
aVbeamDivY56
p4609
aVvtxOffsetX45
p4610
aVvtxOffsetY45
p4611
aVvtxOffsetZ45
p4612
aVvtxOffsetX56
p4613
aVvtxOffsetY56
p4614
aVvtxOffsetZ56
p4615
aVvtxStddevX
p4616
aVvtxStddevY
p4617
aVvtxStddevZ
p4618
ag2757
asg21
I00
sg22
Nsg4605
g0
(g45
g2
Ntp4619
Rp4620
(dp4621
g21
I00
sg49
I01
sg23
I00
sg50
g59
sbsg23
I00
sg4606
g0
(g406
g2
Ntp4622
Rp4623
(dp4624
g21
I00
sg49
I01
sg23
I00
sg50
F0.1
sbsg4607
g0
(g406
g2
Ntp4625
Rp4626
(dp4627
g21
I00
sg49
I01
sg23
I00
sg50
F0.1
sbsg4608
g0
(g406
g2
Ntp4628
Rp4629
(dp4630
g21
I00
sg49
I01
sg23
I00
sg50
F0.1
sbsg4609
g0
(g406
g2
Ntp4631
Rp4632
(dp4633
g21
I00
sg49
I01
sg23
I00
sg50
F0.1
sbsg4610
g0
(g406
g2
Ntp4634
Rp4635
(dp4636
g21
I00
sg49
I01
sg23
I00
sg50
F0.01
sbsg4611
g0
(g406
g2
Ntp4637
Rp4638
(dp4639
g21
I00
sg49
I01
sg23
I00
sg50
F0.01
sbsg4612
g0
(g406
g2
Ntp4640
Rp4641
(dp4642
g21
I00
sg49
I01
sg23
I00
sg50
F0.01
sbsg4613
g0
(g406
g2
Ntp4643
Rp4644
(dp4645
g21
I00
sg49
I01
sg23
I00
sg50
F0.01
sbsg4614
g0
(g406
g2
Ntp4646
Rp4647
(dp4648
g21
I00
sg49
I01
sg23
I00
sg50
F0.01
sbsg4615
g0
(g406
g2
Ntp4649
Rp4650
(dp4651
g21
I00
sg49
I01
sg23
I00
sg50
F0.01
sbsg4616
g0
(g406
g2
Ntp4652
Rp4653
(dp4654
g21
I00
sg49
I01
sg23
I00
sg50
F0.02
sbsg4617
g0
(g406
g2
Ntp4655
Rp4656
(dp4657
g21
I00
sg49
I01
sg23
I00
sg50
F0.02
sbsg4618
g0
(g406
g2
Ntp4658
Rp4659
(dp4660
g21
I00
sg49
I01
sg23
I00
sg50
F0.02
sbsg2757
g0
(g45
g2
Ntp4661
Rp4662
(dp4663
g21
I00
sg49
I01
sg23
I00
sg50
g59
sbsg24
g1504
sg26
I55
sg27
g4599
sbsVctppsInterpolatedOpticalFunctionsESSource
p4664
g0
(g3906
g2
Ntp4665
Rp4666
(dp4667
g17
VCTPPSInterpolatedOpticalFunctionsESSource
p4668
sg19
(lp4669
g4605
aVopticsLabel
p4670
ag2757
asg21
I00
sg22
Nsg4605
g0
(g45
g2
Ntp4671
Rp4672
(dp4673
g21
I00
sg49
I01
sg23
I00
sg50
g59
sbsg23
I01
sg4670
g0
(g45
g2
Ntp4674
Rp4675
(dp4676
g21
I00
sg49
I01
sg23
I00
sg50
g59
sbsg2757
g0
(g45
g2
Ntp4677
Rp4678
(dp4679
g21
I00
sg49
I01
sg23
I00
sg50
g59
sbsg24
g1504
sg26
I55
sg27
g4664
sbsVhcal_db_producer
p4680
g0
(g3906
g2
Ntp4681
Rp4682
(dp4683
g17
VHcalDbProducer
p4684
sg19
(lp4685
Vdump
p4686
aVfile
p4687
asg21
I00
sg22
Nsg4686
g0
(g449
g62
(lp4688
g59
atp4689
Rp4690
(dp4691
g21
I00
sg49
I00
sg23
I00
sg743
I1
sbsg23
I00
sg4687
g0
(g45
g2
Ntp4692
Rp4693
(dp4694
g21
I00
sg49
I00
sg23
I00
sg50
g59
sbsg24
g1504
sg26
I55
sg27
g4680
sbsVmultipleScatteringParametrisationMakerESProducer
p4695
g0
(g3906
g2
Ntp4696
Rp4697
(dp4698
g17
VMultipleScatteringParametrisationMakerESProducer
p4699
sg19
(lp4700
g2757
asg21
I00
sg22
Nsg2757
g0
(g45
g2
Ntp4701
Rp4702
(dp4703
g21
I00
sg49
I01
sg23
I00
sg50
g59
sbsg23
I00
sg24
g1504
sg26
I55
sg27
g4695
sbsVsiPixelQualityESProducer
p4704
g0
(g3906
g2
Ntp4705
Rp4706
(dp4707
g17
VSiPixelQualityESProducer
p4708
sg19
(lp4709
VsiPixelQualityLabel
p4710
aVListOfRecordToMerge
p4711
asg21
I00
sg22
Nsg4710
g0
(g45
g2
Ntp4712
Rp4713
(dp4714
g21
I00
sg49
I01
sg23
I00
sg50
g59
sbsg23
I01
sg24
g1504
sg26
I55
sg4711
g0
(g2725
g62
(lp4715
g0
(g358
g2
Ntp4716
Rp4717
(dp4718
g21
I00
sg49
I01
sg23
I00
sg19
(lp4719
Vrecord
p4720
aVtag
p4721
asg22
Nsg4720
g0
(g45
g2
Ntp4722
Rp4723
(dp4724
g21
I00
sg49
I01
sg23
I00
sg50
VSiPixelQualityFromDbRcd
p4725
sbsg4721
g0
(g45
g2
Ntp4726
Rp4727
(dp4728
g21
I00
sg49
I01
sg23
I00
sg50
g59
sbsbag0
(g358
g2
Ntp4729
Rp4730
(dp4731
g21
I00
sg49
I01
sg23
I00
sg19
(lp4732
g4720
ag4721
asg22
Nsg4720
g0
(g45
g2
Ntp4733
Rp4734
(dp4735
g21
I00
sg49
I01
sg23
I00
sg50
VSiPixelDetVOffRcd
p4736
sbsg4721
g0
(g45
g2
Ntp4737
Rp4738
(dp4739
g21
I00
sg49
I01
sg23
I00
sg50
g59
sbsbatp4740
Rp4741
(dp4742
g21
I00
sg49
I01
sg23
I00
sg743
I1
sbsg27
g4704
sbsVsiStripBackPlaneCorrectionDepESProducer
p4743
g0
(g3906
g2
Ntp4744
Rp4745
(dp4746
g17
VSiStripBackPlaneCorrectionDepESProducer
p4747
sg19
(lp4748
VLatencyRecord
p4749
aVBackPlaneCorrectionPeakMode
p4750
aVBackPlaneCorrectionDeconvMode
p4751
asg21
I00
sg22
Nsg4749
g0
(g358
g2
Ntp4752
Rp4753
(dp4754
g21
I00
sg49
I01
sg23
I00
sg19
(lp4755
g4720
ag4326
asg22
Nsg4720
g0
(g45
g2
Ntp4756
Rp4757
(dp4758
g21
I00
sg49
I01
sg23
I00
sg50
VSiStripLatencyRcd
p4759
sbsg4326
g0
(g45
g2
Ntp4760
Rp4761
(dp4762
g21
I00
sg49
I00
sg23
I00
sg50
g59
sbsbsg23
I00
sg4750
g0
(g358
g2
Ntp4763
Rp4764
(dp4765
g21
I00
sg49
I01
sg23
I00
sg19
(lp4766
g4720
ag4326
asg22
Nsg4720
g0
(g45
g2
Ntp4767
Rp4768
(dp4769
g21
I00
sg49
I01
sg23
I00
sg50
VSiStripBackPlaneCorrectionRcd
p4770
sbsg4326
g0
(g45
g2
Ntp4771
Rp4772
(dp4773
g21
I00
sg49
I00
sg23
I00
sg50
Vpeak
p4774
sbsbsg4751
g0
(g358
g2
Ntp4775
Rp4776
(dp4777
g21
I00
sg49
I01
sg23
I00
sg19
(lp4778
g4720
ag4326
asg22
Nsg4720
g0
(g45
g2
Ntp4779
Rp4780
(dp4781
g21
I00
sg49
I01
sg23
I00
sg50
g4770
sbsg4326
g0
(g45
g2
Ntp4782
Rp4783
(dp4784
g21
I00
sg49
I00
sg23
I00
sg50
Vdeconvolution
p4785
sbsbsg24
g1504
sg26
I55
sg27
g4743
sbsVsiStripGainESProducer
p4786
g0
(g3906
g2
Ntp4787
Rp4788
(dp4789
g17
VSiStripGainESProducer
p4790
sg19
(lp4791
g2757
aVprintDebug
p4792
aVAutomaticNormalization
p4793
aVAPVGain
p4794
asg21
I00
sg22
Nsg2757
g0
(g45
g2
Ntp4795
Rp4796
(dp4797
g21
I00
sg49
I01
sg23
I00
sg50
g59
sbsg23
I00
sg4792
g0
(g71
g2
Ntp4798
Rp4799
(dp4800
g21
I00
sg49
I00
sg23
I00
sg50
I00
sbsg4793
g0
(g71
g2
Ntp4801
Rp4802
(dp4803
g21
I00
sg49
I01
sg23
I00
sg50
I00
sbsg4794
g0
(g2725
g62
(lp4804
g0
(g358
g2
Ntp4805
Rp4806
(dp4807
g21
I00
sg49
I01
sg23
I00
sg19
(lp4808
VRecord
p4809
ag1284
aVNormalizationFactor
p4810
asg22
Nsg4809
g0
(g45
g2
Ntp4811
Rp4812
(dp4813
g21
I00
sg49
I01
sg23
I00
sg50
VSiStripApvGainRcd
p4814
sbsg1284
g0
(g45
g2
Ntp4815
Rp4816
(dp4817
g21
I00
sg49
I00
sg23
I00
sg50
g59
sbsg4810
g0
(g406
g2
Ntp4818
Rp4819
(dp4820
g21
I00
sg49
I00
sg23
I00
sg50
F1.0
sbsbag0
(g358
g2
Ntp4821
Rp4822
(dp4823
g21
I00
sg49
I01
sg23
I00
sg19
(lp4824
g4809
ag1284
ag4810
asg22
Nsg4809
g0
(g45
g2
Ntp4825
Rp4826
(dp4827
g21
I00
sg49
I01
sg23
I00
sg50
VSiStripApvGain2Rcd
p4828
sbsg1284
g0
(g45
g2
Ntp4829
Rp4830
(dp4831
g21
I00
sg49
I00
sg23
I00
sg50
g59
sbsg4810
g0
(g406
g2
Ntp4832
Rp4833
(dp4834
g21
I00
sg49
I00
sg23
I00
sg50
F1.0
sbsbatp4835
Rp4836
(dp4837
g21
I00
sg49
I01
sg23
I00
sg743
I1
sbsg24
g1504
sg26
I55
sg27
g4786
sbsVsiStripLorentzAngleDepESProducer
p4838
g0
(g3906
g2
Ntp4839
Rp4840
(dp4841
g17
VSiStripLorentzAngleDepESProducer
p4842
sg19
(lp4843
g4749
aVLorentzAnglePeakMode
p4844
aVLorentzAngleDeconvMode
p4845
asg21
I00
sg22
Nsg4749
g0
(g358
g2
Ntp4846
Rp4847
(dp4848
g21
I00
sg49
I01
sg23
I00
sg19
(lp4849
g4720
ag4326
asg22
Nsg4720
g0
(g45
g2
Ntp4850
Rp4851
(dp4852
g21
I00
sg49
I01
sg23
I00
sg50
g4759
sbsg4326
g0
(g45
g2
Ntp4853
Rp4854
(dp4855
g21
I00
sg49
I00
sg23
I00
sg50
g59
sbsbsg23
I00
sg4844
g0
(g358
g2
Ntp4856
Rp4857
(dp4858
g21
I00
sg49
I01
sg23
I00
sg19
(lp4859
g4720
ag4326
asg22
Nsg4720
g0
(g45
g2
Ntp4860
Rp4861
(dp4862
g21
I00
sg49
I01
sg23
I00
sg50
VSiStripLorentzAngleRcd
p4863
sbsg4326
g0
(g45
g2
Ntp4864
Rp4865
(dp4866
g21
I00
sg49
I00
sg23
I00
sg50
g4774
sbsbsg4845
g0
(g358
g2
Ntp4867
Rp4868
(dp4869
g21
I00
sg49
I01
sg23
I00
sg19
(lp4870
g4720
ag4326
asg22
Nsg4720
g0
(g45
g2
Ntp4871
Rp4872
(dp4873
g21
I00
sg49
I01
sg23
I00
sg50
g4863
sbsg4326
g0
(g45
g2
Ntp4874
Rp4875
(dp4876
g21
I00
sg49
I00
sg23
I00
sg50
g4785
sbsbsg24
g1504
sg26
I55
sg27
g4838
sbsVsiStripQualityESProducer
p4877
g0
(g3906
g2
Ntp4878
Rp4879
(dp4880
g17
VSiStripQualityESProducer
p4881
sg19
(lp4882
g2757
ag4711
aVReduceGranularity
p4883
aVThresholdForReducedGranularity
p4884
aVPrintDebugOutput
p4885
aVUseEmptyRunInfo
p4886
asg21
I00
sg22
Nsg2757
g0
(g45
g2
Ntp4887
Rp4888
(dp4889
g21
I00
sg49
I01
sg23
I00
sg50
g59
sbsg23
I01
sg4711
g0
(g2725
g62
(lp4890
g0
(g358
g2
Ntp4891
Rp4892
(dp4893
g21
I00
sg49
I01
sg23
I00
sg19
(lp4894
g4720
ag4721
asg22
Nsg4720
g0
(g45
g2
Ntp4895
Rp4896
(dp4897
g21
I00
sg49
I01
sg23
I00
sg50
VSiStripDetVOffRcd
p4898
sbsg4721
g0
(g45
g2
Ntp4899
Rp4900
(dp4901
g21
I00
sg49
I01
sg23
I00
sg50
g59
sbsbag0
(g358
g2
Ntp4902
Rp4903
(dp4904
g21
I00
sg49
I01
sg23
I00
sg19
(lp4905
g4720
ag4721
asg22
Nsg4720
g0
(g45
g2
Ntp4906
Rp4907
(dp4908
g21
I00
sg49
I01
sg23
I00
sg50
VSiStripDetCablingRcd
p4909
sbsg4721
g0
(g45
g2
Ntp4910
Rp4911
(dp4912
g21
I00
sg49
I01
sg23
I00
sg50
g59
sbsbag0
(g358
g2
Ntp4913
Rp4914
(dp4915
g21
I00
sg49
I01
sg23
I00
sg19
(lp4916
g4720
ag4721
asg22
Nsg4720
g0
(g45
g2
Ntp4917
Rp4918
(dp4919
g21
I00
sg49
I01
sg23
I00
sg50
VRunInfoRcd
p4920
sbsg4721
g0
(g45
g2
Ntp4921
Rp4922
(dp4923
g21
I00
sg49
I01
sg23
I00
sg50
g59
sbsbag0
(g358
g2
Ntp4924
Rp4925
(dp4926
g21
I00
sg49
I01
sg23
I00
sg19
(lp4927
g4720
ag4721
asg22
Nsg4720
g0
(g45
g2
Ntp4928
Rp4929
(dp4930
g21
I00
sg49
I01
sg23
I00
sg50
VSiStripBadChannelRcd
p4931
sbsg4721
g0
(g45
g2
Ntp4932
Rp4933
(dp4934
g21
I00
sg49
I01
sg23
I00
sg50
g59
sbsbag0
(g358
g2
Ntp4935
Rp4936
(dp4937
g21
I00
sg49
I01
sg23
I00
sg19
(lp4938
g4720
ag4721
asg22
Nsg4720
g0
(g45
g2
Ntp4939
Rp4940
(dp4941
g21
I00
sg49
I01
sg23
I00
sg50
VSiStripBadFiberRcd
p4942
sbsg4721
g0
(g45
g2
Ntp4943
Rp4944
(dp4945
g21
I00
sg49
I01
sg23
I00
sg50
g59
sbsbag0
(g358
g2
Ntp4946
Rp4947
(dp4948
g21
I00
sg49
I01
sg23
I00
sg19
(lp4949
g4720
ag4721
asg22
Nsg4720
g0
(g45
g2
Ntp4950
Rp4951
(dp4952
g21
I00
sg49
I01
sg23
I00
sg50
VSiStripBadModuleRcd
p4953
sbsg4721
g0
(g45
g2
Ntp4954
Rp4955
(dp4956
g21
I00
sg49
I01
sg23
I00
sg50
g59
sbsbag0
(g358
g2
Ntp4957
Rp4958
(dp4959
g21
I00
sg49
I01
sg23
I00
sg19
(lp4960
g4720
ag4721
asg22
Nsg4720
g0
(g45
g2
Ntp4961
Rp4962
(dp4963
g21
I00
sg49
I01
sg23
I00
sg50
VSiStripBadStripRcd
p4964
sbsg4721
g0
(g45
g2
Ntp4965
Rp4966
(dp4967
g21
I00
sg49
I01
sg23
I00
sg50
g59
sbsbatp4968
Rp4969
(dp4970
g21
I00
sg49
I01
sg23
I00
sg743
I1
sbsg4883
g0
(g71
g2
Ntp4971
Rp4972
(dp4973
g21
I00
sg49
I01
sg23
I00
sg50
I00
sbsg4884
g0
(g406
g2
Ntp4974
Rp4975
(dp4976
g21
I00
sg49
I01
sg23
I00
sg50
F0.3
sbsg4885
g0
(g71
g2
Ntp4977
Rp4978
(dp4979
g21
I00
sg49
I01
sg23
I00
sg50
I00
sbsg4886
g0
(g71
g2
Ntp4980
Rp4981
(dp4982
g21
I00
sg49
I01
sg23
I00
sg50
I00
sbsg24
g1504
sg26
I55
sg27
g4877
sbsVsistripconn
p4983
g0
(g3906
g2
Ntp4984
Rp4985
(dp4986
g17
VSiStripConnectivity
p4987
sg19
(lp4988
sg21
I00
sg22
Nsg23
I00
sg24
g1504
sg26
I55
sg27
g4983
sbsVstripCPEESProducer
p4989
g0
(g3906
g2
Ntp4990
Rp4991
(dp4992
g17
g4531
sg19
(lp4993
g4514
ag4533
ag4534
asg21
I00
sg22
Nsg4514
g0
(g45
g2
Ntp4994
Rp4995
(dp4996
g21
I00
sg49
I01
sg23
I00
sg50
VstripCPE
p4997
sbsg23
I00
sg4533
g0
(g45
g2
Ntp4998
Rp4999
(dp5000
g21
I00
sg49
I01
sg23
I00
sg50
VSimpleStripCPE
p5001
sbsg4534
g0
(g358
g2
Ntp5002
Rp5003
(dp5004
g21
I00
sg49
I01
sg23
I00
sg19
(lp5005
sg22
Nsbsg24
g1504
sg26
I55
sg27
g4989
sbsVecalElectronicsMappingGPUESProducer
p5006
g0
(g3906
g2
Ntp5007
Rp5008
(dp5009
g17
VEcalElectronicsMappingGPUESProducer
p5010
sg19
(lp5011
g4514
ag4326
ag2757
asg21
I00
sg22
Nsg4514
g0
(g45
g2
Ntp5012
Rp5013
(dp5014
g21
I00
sg49
I01
sg23
I00
sg50
g59
sbsg23
I00
sg4326
g0
(g45
g2
Ntp5015
Rp5016
(dp5017
g21
I00
sg49
I01
sg23
I00
sg50
g59
sbsg2757
g0
(g45
g2
Ntp5018
Rp5019
(dp5020
g21
I00
sg49
I01
sg23
I00
sg50
g59
sbsg24
g1504
sg26
I55
sg27
g5006
sbssV_Process__esprefers
p5021
(dp5022
Ves_prefer_hcalHardcode
p5023
g0
(cFWCore.ParameterSet.Modules
ESPrefer
p5024
g2
Ntp5025
Rp5026
(dp5027
g17
g2926
sg19
(lp5028
sg21
I00
sg22
Nsg23
I00
sg24
g1504
sg26
I91
sV_targetLabel
p5029
g2922
sg27
g5023
sbssV_Process__aliases
p5030
(dp5031
sV_Process__psets
p5032
(dp5033
VmaxLuminosityBlocks
p5034
g0
(g358
g2
Ntp5035
Rp5036
(dp5037
g21
I00
sg49
I00
sg23
I00
sg19
(lp5038
Vinput
p5039
asg22
Nsg5039
g0
(g75
g2
Ntp5040
Rp5041
(dp5042
g21
I00
sg49
I00
sg23
I00
sg50
I-1
sbsg27
g5034
sbsVoptions
p5043
g0
(g358
g2
Ntp5044
Rp5045
(dp5046
g21
I00
sg49
I00
sg23
I01
sg19
(lp5047
VnumberOfThreads
p5048
aVnumberOfStreams
p5049
aVnumberOfConcurrentRuns
p5050
aVnumberOfConcurrentLuminosityBlocks
p5051
aVeventSetup
p5052
aVaccelerators
p5053
aVwantSummary
p5054
aVfileMode
p5055
aVforceEventSetupCacheClearOnNewRun
p5056
aVthrowIfIllegalParameter
p5057
aVprintDependencies
p5058
aVdeleteNonConsumedUnscheduledModules
p5059
aVsizeOfStackForThreadsInKB
p5060
aVRethrow
p5061
aVSkipEvent
p5062
aVFailPath
p5063
aVIgnoreCompletely
p5064
aVcanDeleteEarly
p5065
aVdumpOptions
p5066
aVallowUnscheduled
p5067
aVemptyRunLumiMode
p5068
aVmakeTriggerResults
p5069
asg22
Nsg5048
g0
(g67
g2
Ntp5070
Rp5071
(dp5072
g21
I00
sg49
I00
sg23
I00
sg50
I1
sbsg5049
g0
(g67
g2
Ntp5073
Rp5074
(dp5075
g21
I00
sg49
I00
sg23
I00
sg50
I0
sbsg5050
g0
(g67
g2
Ntp5076
Rp5077
(dp5078
g21
I00
sg49
I00
sg23
I00
sg50
I1
sbsg5051
g0
(g67
g2
Ntp5079
Rp5080
(dp5081
g21
I00
sg49
I00
sg23
I00
sg50
I0
sbsg5052
g0
(g358
g2
Ntp5082
Rp5083
(dp5084
g21
I00
sg49
I00
sg23
I00
sg19
(lp5085
VnumberOfConcurrentIOVs
p5086
aVforceNumberOfConcurrentIOVs
p5087
asg22
Nsg5086
g0
(g67
g2
Ntp5088
Rp5089
(dp5090
g21
I00
sg49
I00
sg23
I00
sg50
I0
sbsg5087
g0
(g358
g2
Ntp5091
Rp5092
(dp5093
g21
I00
sg49
I00
sg23
I00
sg19
(lp5094
sg22
g0
(cFWCore.ParameterSet.Types
_RequiredParameter
p5095
g2
Ntp5096
Rp5097
(dp5098
g21
I00
sg49
I00
sg23
I00
sg448
g67
sg450
Nsbsbsbsg5053
g0
(g449
g62
(lp5099
V*
p5100
atp5101
Rp5102
(dp5103
g21
I00
sg49
I00
sg23
I00
sg743
I1
sbsg5054
g0
(g71
g2
Ntp5104
Rp5105
(dp5106
g21
I00
sg49
I00
sg23
I00
sg50
I00
sbsg5055
g0
(g45
g2
Ntp5107
Rp5108
(dp5109
g21
I00
sg49
I00
sg23
I00
sg50
VFULLMERGE
p5110
sbsg5056
g0
(g71
g2
Ntp5111
Rp5112
(dp5113
g21
I00
sg49
I00
sg23
I00
sg50
I00
sbsg5057
g0
(g71
g2
Ntp5114
Rp5115
(dp5116
g21
I00
sg49
I00
sg23
I00
sg50
I01
sbsg5058
g0
(g71
g2
Ntp5117
Rp5118
(dp5119
g21
I00
sg49
I00
sg23
I00
sg50
I00
sbsg5059
g0
(g71
g2
Ntp5120
Rp5121
(dp5122
g21
I00
sg49
I00
sg23
I00
sg50
I01
sbsg5060
g0
(g444
g2
Ntp5123
Rp5124
(dp5125
g21
I00
sg49
I00
sg23
I00
sg448
g67
sg450
Nsbsg5061
g0
(g449
g62
(lp5126
tp5127
Rp5128
(dp5129
g21
I00
sg49
I00
sg23
I00
sg743
I1
sbsg5062
g0
(g449
g62
(lp5130
tp5131
Rp5132
(dp5133
g21
I00
sg49
I00
sg23
I00
sg743
I1
sbsg5063
g0
(g449
g62
(lp5134
tp5135
Rp5136
(dp5137
g21
I00
sg49
I00
sg23
I00
sg743
I1
sbsg5064
g0
(g449
g62
(lp5138
tp5139
Rp5140
(dp5141
g21
I00
sg49
I00
sg23
I00
sg743
I1
sbsg5065
g0
(g449
g62
(lp5142
tp5143
Rp5144
(dp5145
g21
I00
sg49
I00
sg23
I00
sg743
I1
sbsg5066
g0
(g71
g2
Ntp5146
Rp5147
(dp5148
g21
I00
sg49
I00
sg23
I00
sg50
I00
sbsg5067
g0
(cFWCore.ParameterSet.Types
_ObsoleteParameter
p5149
g2
Ntp5150
Rp5151
(dp5152
g21
I00
sg49
I00
sg23
I00
sg448
g71
sg450
Nsbsg5068
g0
(g5149
g2
Ntp5153
Rp5154
(dp5155
g21
I00
sg49
I00
sg23
I00
sg448
g45
sg450
Nsbsg5069
g0
(g5149
g2
Ntp5156
Rp5157
(dp5158
g21
I00
sg49
I00
sg23
I00
sg448
g71
sg450
Nsbsg27
g5043
sbsVnanoDQMIO_perLSoutput
p5159
g0
(g358
g2
Ntp5160
Rp5161
(dp5162
g21
I00
sg49
I01
sg23
I00
sg19
(lp5163
g2296
asg22
Nsg2296
g0
(g449
g62
(lp5164
g2307
ag2308
ag2309
ag2310
ag2311
ag2312
ag2313
ag2314
ag2315
ag2316
ag2317
ag2318
ag2319
ag2320
ag2321
ag2322
ag2323
ag2324
ag2325
ag2326
ag2327
ag2328
ag2329
ag2330
ag2331
ag2332
ag2333
ag2334
ag2335
ag2336
atp5165
Rp5166
(dp5167
g21
I00
sg49
I00
sg23
I00
sg743
I1
sbsg27
g5159
sbsVCondDB
p5168
g0
(g358
g2
Ntp5169
Rp5170
(dp5171
g21
I00
sg49
I01
sg23
I00
sg19
(lp5172
g2678
ag2679
asg22
Nsg2678
g0
(g358
g2
Ntp5173
Rp5174
(dp5175
g21
I00
sg49
I01
sg23
I00
sg19
(lp5176
g2694
ag2695
ag2696
ag2697
ag2698
asg22
Nsg2694
g0
(g45
g2
Ntp5177
Rp5178
(dp5179
g21
I00
sg49
I00
sg23
I00
sg50
g59
sbsg2695
g0
(g75
g2
Ntp5180
Rp5181
(dp5182
g21
I00
sg49
I00
sg23
I00
sg50
I0
sbsg2696
g0
(g45
g2
Ntp5183
Rp5184
(dp5185
g21
I00
sg49
I00
sg23
I00
sg50
g59
sbsg2697
g0
(g75
g2
Ntp5186
Rp5187
(dp5188
g21
I00
sg49
I00
sg23
I00
sg50
I0
sbsg2698
g0
(g75
g2
Ntp5189
Rp5190
(dp5191
g21
I00
sg49
I00
sg23
I00
sg50
I0
sbsbsg2679
g0
(g45
g2
Ntp5192
Rp5193
(dp5194
g21
I00
sg49
I01
sg23
I00
sg50
g59
sbsg27
g5168
sbsg2936
g2987
sVmaxEvents
p5195
g0
(g358
g2
Ntp5196
Rp5197
(dp5198
g21
I00
sg49
I00
sg23
I01
sg19
(lp5199
g5039
ag2258
asg22
Nsg5039
g0
(g75
g2
Ntp5200
Rp5201
(dp5202
g21
I00
sg49
I00
sg23
I00
sg50
I1000
sbsg2258
g0
(g444
g2
Ntp5203
Rp5204
(dp5205
g21
I00
sg49
I00
sg23
I00
sg448
g0
(cFWCore.ParameterSet.Types
_AllowedParameterTypes
p5206
g2
Ntp5207
Rp5208
(dp5209
V_AllowedParameterTypes__types
p5210
(g75
g358
tp5211
sV_AllowedParameterTypes__value
p5212
NsV__name__
p5213
Vallowed(cms.int32,cms.PSet)
p5214
sbsg450
Nsbsg27
g5195
sbssV_Process__vpsets
p5215
(dp5216
sV_cloneToObjectDict
p5217
(dp5218
L139941479408400L
g0
(g358
g2
Ntp5219
Rp5220
(dp5221
g21
I00
sg49
I00
sg23
I01
sg19
(lp5222
g5048
ag5049
ag5050
ag5051
ag5052
ag5053
ag5054
ag5055
ag5056
ag5057
ag5058
ag5059
ag5060
ag5061
ag5062
ag5063
ag5064
ag5065
ag5066
ag5067
ag5068
ag5069
asg22
Nsg5048
g0
(g67
g2
Ntp5223
Rp5224
(dp5225
g21
I00
sg49
I00
sg23
I00
sg50
I1
sbsg5049
g0
(g67
g2
Ntp5226
Rp5227
(dp5228
g21
I00
sg49
I00
sg23
I00
sg50
I0
sbsg5050
g0
(g67
g2
Ntp5229
Rp5230
(dp5231
g21
I00
sg49
I00
sg23
I00
sg50
I1
sbsg5051
g0
(g67
g2
Ntp5232
Rp5233
(dp5234
g21
I00
sg49
I00
sg23
I00
sg50
I0
sbsg5052
g0
(g358
g2
Ntp5235
Rp5236
(dp5237
g21
I00
sg49
I00
sg23
I00
sg19
(lp5238
g5086
ag5087
asg22
Nsg5086
g0
(g67
g2
Ntp5239
Rp5240
(dp5241
g21
I00
sg49
I00
sg23
I00
sg50
I0
sbsg5087
g0
(g358
g2
Ntp5242
Rp5243
(dp5244
g21
I00
sg49
I00
sg23
I00
sg19
(lp5245
sg22
g0
(g5095
g2
Ntp5246
Rp5247
(dp5248
g21
I00
sg49
I00
sg23
I00
sg448
g67
sg450
Nsbsbsbsg5053
g0
(g449
g62
(lp5249
g5100
atp5250
Rp5251
(dp5252
g21
I00
sg49
I00
sg23
I00
sg743
I1
sbsg5054
g0
(g71
g2
Ntp5253
Rp5254
(dp5255
g21
I00
sg49
I00
sg23
I00
sg50
I00
sbsg5055
g0
(g45
g2
Ntp5256
Rp5257
(dp5258
g21
I00
sg49
I00
sg23
I00
sg50
g5110
sbsg5056
g0
(g71
g2
Ntp5259
Rp5260
(dp5261
g21
I00
sg49
I00
sg23
I00
sg50
I00
sbsg5057
g0
(g71
g2
Ntp5262
Rp5263
(dp5264
g21
I00
sg49
I00
sg23
I00
sg50
I01
sbsg5058
g0
(g71
g2
Ntp5265
Rp5266
(dp5267
g21
I00
sg49
I00
sg23
I00
sg50
I00
sbsg5059
g0
(g71
g2
Ntp5268
Rp5269
(dp5270
g21
I00
sg49
I00
sg23
I00
sg50
I01
sbsg5060
g0
(g444
g2
Ntp5271
Rp5272
(dp5273
g21
I00
sg49
I00
sg23
I00
sg448
g67
sg450
Nsbsg5061
g0
(g449
g62
(lp5274
tp5275
Rp5276
(dp5277
g21
I00
sg49
I00
sg23
I00
sg743
I1
sbsg5062
g0
(g449
g62
(lp5278
tp5279
Rp5280
(dp5281
g21
I00
sg49
I00
sg23
I00
sg743
I1
sbsg5063
g0
(g449
g62
(lp5282
tp5283
Rp5284
(dp5285
g21
I00
sg49
I00
sg23
I00
sg743
I1
sbsg5064
g0
(g449
g62
(lp5286
tp5287
Rp5288
(dp5289
g21
I00
sg49
I00
sg23
I00
sg743
I1
sbsg5065
g0
(g449
g62
(lp5290
tp5291
Rp5292
(dp5293
g21
I00
sg49
I00
sg23
I00
sg743
I1
sbsg5066
g0
(g71
g2
Ntp5294
Rp5295
(dp5296
g21
I00
sg49
I00
sg23
I00
sg50
I00
sbsg5067
g0
(g5149
g2
Ntp5297
Rp5298
(dp5299
g21
I00
sg49
I00
sg23
I00
sg448
g71
sg450
Nsbsg5068
g0
(g5149
g2
Ntp5300
Rp5301
(dp5302
g21
I00
sg49
I00
sg23
I00
sg448
g45
sg450
Nsbsg5069
g0
(g5149
g2
Ntp5303
Rp5304
(dp5305
g21
I00
sg49
I00
sg23
I00
sg448
g71
sg450
Nsbsg27
NsbsL139941479514608L
g0
(g358
g2
Ntp5306
Rp5307
(dp5308
g21
I00
sg49
I00
sg23
I01
sg19
(lp5309
g5039
ag2258
asg22
Nsg5039
g0
(g444
g2
Ntp5310
Rp5311
(dp5312
g21
I00
sg49
I00
sg23
I00
sg448
g75
sg450
Nsbsg2258
g0
(g444
g2
Ntp5313
Rp5314
(dp5315
g21
I00
sg49
I00
sg23
I00
sg448
g0
(g5206
g2
Ntp5316
Rp5317
(dp5318
g5210
(g75
g358
tp5319
sg5212
Nsg5213
Vallowed(cms.int32,cms.PSet)
p5320
sbsg450
Nsbsg27
NsbsL139941479514848L
g5036
sL139941480295680L
g5045
sL139941477944240L
g2642
sL139941480072288L
g5161
sL139941480306096L
g15
sL139941479405984L
g3908
sL139941478619744L
g3952
sL139941479383536L
g3969
sL139941478291728L
g3974
sL139941478292976L
g3982
sL139941478296640L
g3987
sL139941479301376L
g3995
sL139941478290912L
g4032
sL139941478618736L
g4040
sL139941478290336L
g4045
sL139941478290624L
g4053
sL139941479385888L
g4061
sL139941479303680L
g4071
sL139941478291680L
g4076
sL139941478619792L
g4081
sL139941479383200L
g4089
sL139941479405744L
g4094
sL139941479302432L
g4105
sL139941479404592L
g4114
sL139941478296928L
g4123
sL139941478296064L
g2653
sL139941478295680L
g4131
sL139941478294336L
g4142
sL139941478294144L
g4151
sL139941478292784L
g4160
sL139941478295824L
g4177
sL139941478293760L
g4214
sL139941478294672L
g4244
sL139941479386704L
g4263
sL139941479303824L
g4275
sL139941479301952L
g4292
sL139941479384976L
g4307
sL139941479628080L
g4316
sL139941479627696L
g4321
sL139941480177088L
g4337
sL139941479625920L
g4349
sL139941479628224L
g4366
sL139941479625728L
g4382
sL139941485676960L
g4397
sL139941485675328L
g4406
sL139941480177280L
g4418
sL139941476645904L
g4486
sL139941485520736L
g5170
sL139941481677968L
g4494
sL139941479872400L
g4503
sL139941485522080L
g2674
sL139941484633680L
g2987
sL139941484992304L
g2754
sL139941476233856L
g4511
sL139941476724448L
g4529
sL139941476257504L
g4601
sL139941476290864L
g4666
sL139941476645616L
g2924
sL139941476645856L
g5026
sL139941481679600L
g4682
sL139941476235728L
g4697
sL139941476234576L
g4706
sL139941476721904L
g4745
sL139941476687392L
g4788
sL139941476720992L
g4840
sL139941476236256L
g4879
sL139941476645760L
g4985
sL139941476723392L
g4991
sL139941475915472L
g30
sL139941475935760L
g97
sL139941475845024L
g125
sL139941475846128L
g142
sL139941475845648L
g181
sL139941475936624L
g211
sL139941475705616L
g238
sL139941475741264L
g305
sL139941475517776L
g337
sL139941475531984L
g422
sL139941475740784L
g454
sL139941476461104L
g1500
sL139941476011456L
g468
sL139941476032816L
g5008
sL139941476235344L
g503
sL139941475935088L
g534
sL139941475740544L
g561
sL139941475937056L
g604
sL139941475781696L
g621
sL139941475814992L
g650
sL139941475937344L
g674
sL139941485675808L
g691
sL139941475552272L
g772
sL139941475552704L
g787
sL139941476254960L
g811
sL139941476130240L
g904
sL139941476209568L
g983
sL139941476159984L
g1019
sL139941475934368L
g1035
sL139941481678976L
g1049
sL139941475739872L
g1062
sL139941475847904L
g1074
sL139941475847472L
g1122
sL139941475739008L
g1147
sL139941476291776L
g1161
sL139941476291680L
g1193
sL139941476291728L
g1595
sL139941476290912L
g1207
sL139941476460816L
g1219
sL139941475963040L
g1274
sL139941481677296L
g1313
sL139941475738384L
g1325
sL139941475517104L
g3616
sL139941475519264L
g3727
sL139941475441008L
g3792
sL139941475441584L
g1337
sL139941475530688L
g1401
sL139941475439664L
g1453
sL139941475937488L
g1467
sL139941475846848L
g1801
sL139941475739920L
g1835
sL139941475550544L
g1887
sL139941475550928L
g1909
sL139941475550016L
g1929
sL139941475550160L
g1959
sL139941475519456L
g1980
sL139941475740928L
g1810
sL139941475814944L
g1818
sL139941475846704L
g2006
sL139941475844256L
g2022
sL139941475736640L
g1843
sL139941475550352L
g1895
sL139941475550736L
g1917
sL139941475549536L
g1937
sL139941475549248L
g1967
sL139941475519024L
g1988
sL139941476461056L
g1860
sL139941476257552L
g1872
sL139941485675760L
g5197
sL139941475576080L
g1710
sL139941475576464L
g1762
ssV_Process__InExtendCall
p5321
I00
sV_Process__partialschedules
p5322
(dp5323
sV_Process__isStrict
p5324
I00
sV_Process__modifiers
p5325
(tsV_Process__accelerators
p5326
(dp5327
sg5034
g5036
sg2043
g2046
sg5043
g5045
sg2290
g2292
sg2639
g2642
sg2349
g2351
sg5159
g5161
sg12
g15
sg3905
g3908
sg3950
g3952
sg3967
g3969
sg3972
g3974
sg3980
g3982
sg3985
g3987
sg3993
g3995
sg4030
g4032
sg4038
g4040
sg4043
g4045
sg4051
g4053
sg4059
g4061
sg4069
g4071
sg4074
g4076
sg4079
g4081
sg4087
g4089
sg4092
g4094
sg4103
g4105
sg4112
g4114
sg4121
g4123
sg2651
g2653
sg4129
g4131
sg4140
g4142
sg4149
g4151
sg4158
g4160
sg4175
g4177
sg4212
g4214
sg4242
g4244
sg4261
g4263
sg4273
g4275
sg4290
g4292
sg4305
g4307
sg4314
g4316
sg4319
g4321
sg4335
g4337
sg4347
g4349
sg4364
g4366
sg4380
g4382
sg4395
g4397
sg4404
g4406
sg4416
g4418
sg4484
g4486
sg5168
g5170
sg4492
g4494
sg4501
g4503
sg2672
g2674
sg2936
g2987
sg2752
g2754
sg4509
g4511
sg4527
g4529
sg4599
g4601
sg4664
g4666
sg2922
g2924
sg5023
g5026
sg4680
g4682
sg4695
g4697
sg4704
g4706
sg4743
g4745
sg4786
g4788
sg4838
g4840
sg4877
g4879
sg4983
g4985
sg4989
g4991
sg28
g30
sg95
g97
sg123
g125
sg140
g142
sg179
g181
sg209
g211
sg236
g238
sg303
g305
sg335
g337
sg420
g422
sg452
g454
sg1497
g1500
sg466
g468
sg5006
g5008
sg501
g503
sg532
g534
sg559
g561
sg602
g604
sg619
g621
sg648
g650
sg672
g674
sg689
g691
sg770
g772
sg785
g787
sg809
g811
sg902
g904
sg981
g983
sg1017
g1019
sg1033
g1035
sg1047
g1049
sg1060
g1062
sg1072
g1074
sg1120
g1122
sg1145
g1147
sg1159
g1161
sg1173
g1193
sg1593
g1595
sg1205
g1207
sg1217
g1219
sg1272
g1274
sg1311
g1313
sg1323
g1325
sg3614
g3616
sg3725
g3727
sg3790
g3792
sg1335
g1337
sg1399
g1401
sg1451
g1453
sg1465
g1467
sg32
g1801
sg345
g1835
sg1885
g1887
sg1907
g1909
sg1927
g1929
sg1957
g1959
sg1978
g1980
sg1832
g1810
sg1830
g1818
sg2004
g2006
sg2020
g2022
sg1883
g1843
sg1905
g1895
sg1925
g1917
sg1955
g1937
sg1976
g1967
sg2000
g1988
sg1868
g1860
sg1880
g1872
sg5195
g5197
sVsource
p5328
g1668
sg1670
g1668
sg1707
g1710
sg2627
g2629
sg1759
g1762
sb.