ccopy_reg
_reconstructor
p0
(cFWCore.ParameterSet.Config
Process
p1
c__builtin__
object
p2
Ntp3
Rp4
(dp5
V_Process__name
p6
VDemo
p7
sV_Process__filters
p8
(dp9
sV_Process__producers
p10
(dp11
VrandomEngineStateProducer
p12
g0
(cFWCore.ParameterSet.Modules
EDProducer
p13
g2
Ntp14
Rp15
(dp16
V_TypedParameterizable__type
p17
VRandomEngineStateProducer
p18
sV_Parameterizable__parameterNames
p19
(lp20
sV_isFrozen
p21
I00
sV_Parameterizable__validator
p22
NsV_isModified
p23
I00
sV_filename
p24
V/cvmfs/cms.cern.ch/slc7_amd64_gcc12/cms/cmssw-patch/CMSSW_14_0_5_patch1/src/IOMC/RandomEngine/python/IOMC_cff.py
p25
sV_lineNumber
p26
I172
sV_Labelable__label
p27
g12
sbsVbmtfDigis
p28
g0
(g13
g2
Ntp29
Rp30
(dp31
g17
VL1TRawToDigi
p32
sg19
(lp33
VSetup
p34
aVInputLabel
p35
aVFedIds
p36
aVFWId
p37
aVFWOverride
p38
aVlenSlinkHeader
p39
aVlenSlinkTrailer
p40
aVlenAMCHeader
p41
aVlenAMCTrailer
p42
aVlenAMC13Header
p43
aVlenAMC13Trailer
p44
asg21
I00
sg22
Nsg34
g0
(cFWCore.ParameterSet.Types
string
p45
g2
Ntp46
Rp47
(dp48
g21
I00
sV_ParameterTypeBase__isTracked
p49
I01
sg23
I00
sV_value
p50
Vstage2::BMTFSetup
p51
sbsg23
I00
sg35
g0
(cFWCore.ParameterSet.Types
InputTag
p52
g2
Ntp53
Rp54
(dp55
g21
I00
sg49
I01
sg23
I00
sV_InputTag__moduleLabel
p56
VrawDataCollector
p57
sV_InputTag__productInstance
p58
V
p59
sV_InputTag__processName
p60
g59
sbsg36
g0
(cFWCore.ParameterSet.Types
vint32
p61
c__builtin__
list
p62
(lp63
I1376
aI1377
atp64
Rp65
(dp66
g21
I00
sg49
I01
sg23
I00
sbsg37
g0
(cFWCore.ParameterSet.Types
uint32
p67
g2
Ntp68
Rp69
(dp70
g21
I00
sg49
I01
sg23
I00
sg50
I1
sbsg38
g0
(cFWCore.ParameterSet.Types
bool
p71
g2
Ntp72
Rp73
(dp74
g21
I00
sg49
I01
sg23
I00
sg50
I00
sbsg39
g0
(cFWCore.ParameterSet.Types
int32
p75
g2
Ntp76
Rp77
(dp78
g21
I00
sg49
I00
sg23
I00
sg50
I8
sbsg40
g0
(g75
g2
Ntp79
Rp80
(dp81
g21
I00
sg49
I00
sg23
I00
sg50
I8
sbsg41
g0
(g75
g2
Ntp82
Rp83
(dp84
g21
I00
sg49
I00
sg23
I00
sg50
I8
sbsg42
g0
(g75
g2
Ntp85
Rp86
(dp87
g21
I00
sg49
I00
sg23
I00
sg50
I0
sbsg43
g0
(g75
g2
Ntp88
Rp89
(dp90
g21
I00
sg49
I00
sg23
I00
sg50
I8
sbsg44
g0
(g75
g2
Ntp91
Rp92
(dp93
g21
I00
sg49
I00
sg23
I00
sg50
I8
sbsg24
V/cvmfs/cms.cern.ch/slc7_amd64_gcc12/cms/cmssw-patch/CMSSW_14_0_5_patch1/src/EventFilter/L1TRawToDigi/python/bmtfDigis_cfi.py
p94
sg26
I3
sg27
g28
sbsVcaloLayer1Digis
p95
g0
(g13
g2
Ntp96
Rp97
(dp98
g17
g32
sg19
(lp99
g34
ag35
ag36
ag37
aVdebug
p100
aVCTP7
p101
asg21
I00
sg22
Nsg34
g0
(g45
g2
Ntp102
Rp103
(dp104
g21
I00
sg49
I01
sg23
I00
sg50
Vstage2::CaloLayer1Setup
p105
sbsg23
I00
sg35
g0
(g52
g2
Ntp106
Rp107
(dp108
g21
I00
sg49
I01
sg23
I00
sg56
g57
sg58
g59
sg60
g59
sbsg36
g0
(g61
g62
(lp109
I1354
aI1356
aI1358
atp110
Rp111
(dp112
g21
I00
sg49
I01
sg23
I00
sbsg37
g0
(g67
g2
Ntp113
Rp114
(dp115
g21
I00
sg49
I01
sg23
I00
sg50
I305419896
sbsg100
g0
(g71
g2
Ntp116
Rp117
(dp118
g21
I00
sg49
I00
sg23
I00
sg50
I00
sbsg101
g0
(g71
g2
Ntp119
Rp120
(dp121
g21
I00
sg49
I00
sg23
I00
sg50
I01
sbsg24
V/cvmfs/cms.cern.ch/slc7_amd64_gcc12/cms/cmssw-patch/CMSSW_14_0_5_patch1/src/EventFilter/L1TRawToDigi/python/caloLayer1Digis_cfi.py
p122
sg26
I3
sg27
g95
sbsVcaloStage1Digis
p123
g0
(g13
g2
Ntp124
Rp125
(dp126
g17
g32
sg19
(lp127
g35
ag34
ag36
asg21
I00
sg22
Nsg35
g0
(g52
g2
Ntp128
Rp129
(dp130
g21
I00
sg49
I01
sg23
I00
sg56
g57
sg58
g59
sg60
g59
sbsg23
I00
sg34
g0
(g45
g2
Ntp131
Rp132
(dp133
g21
I00
sg49
I01
sg23
I00
sg50
Vstage1::CaloSetup
p134
sbsg36
g0
(g61
g62
(lp135
I1352
atp136
Rp137
(dp138
g21
I00
sg49
I01
sg23
I00
sbsg24
V/cvmfs/cms.cern.ch/slc7_amd64_gcc12/cms/cmssw-patch/CMSSW_14_0_5_patch1/src/EventFilter/L1TRawToDigi/python/caloStage1Digis_cfi.py
p139
sg26
I3
sg27
g123
sbsVcaloStage1FinalDigis
p140
g0
(g13
g2
Ntp141
Rp142
(dp143
g17
VL1TPhysicalEtAdder
p144
sg19
(lp145
VInputCollection
p146
aVInputRlxTauCollection
p147
aVInputIsoTauCollection
p148
aVInputPreGtJetCollection
p149
aVInputHFSumsCollection
p150
aVInputHFCountsCollection
p151
asg21
I00
sg22
Nsg146
g0
(g52
g2
Ntp152
Rp153
(dp154
g21
I00
sg49
I01
sg23
I00
sg56
g123
sg58
g59
sg60
g59
sbsg23
I00
sg147
g0
(g52
g2
Ntp155
Rp156
(dp157
g21
I00
sg49
I01
sg23
I00
sg56
VcaloStage1Digis
p158
sg58
VrlxTaus
p159
sg60
g59
sbsg148
g0
(g52
g2
Ntp160
Rp161
(dp162
g21
I00
sg49
I01
sg23
I00
sg56
VcaloStage1Digis
p163
sg58
VisoTaus
p164
sg60
g59
sbsg149
g0
(g52
g2
Ntp165
Rp166
(dp167
g21
I00
sg49
I01
sg23
I00
sg56
g123
sg58
g59
sg60
g59
sbsg150
g0
(g52
g2
Ntp168
Rp169
(dp170
g21
I00
sg49
I01
sg23
I00
sg56
VcaloStage1Digis
p171
sg58
VHFRingSums
p172
sg60
g59
sbsg151
g0
(g52
g2
Ntp173
Rp174
(dp175
g21
I00
sg49
I01
sg23
I00
sg56
VcaloStage1Digis
p176
sg58
VHFBitCounts
p177
sg60
g59
sbsg24
V/cvmfs/cms.cern.ch/slc7_amd64_gcc12/cms/cmssw-patch/CMSSW_14_0_5_patch1/src/L1Trigger/L1TCalorimeter/python/caloStage1FinalDigis_cfi.py
p178
sg26
I3
sg27
g140
sbsVcaloStage1LegacyFormatDigis
p179
g0
(g13
g2
Ntp180
Rp181
(dp182
g17
VL1TCaloUpgradeToGCTConverter
p183
sg19
(lp184
g146
ag147
ag148
ag150
ag151
asg21
I00
sg22
Nsg146
g0
(g52
g2
Ntp185
Rp186
(dp187
g21
I00
sg49
I01
sg23
I00
sg56
g123
sg58
g59
sg60
g59
sbsg23
I00
sg147
g0
(g52
g2
Ntp188
Rp189
(dp190
g21
I00
sg49
I01
sg23
I00
sg56
VcaloStage1Digis
p191
sg58
VrlxTaus
p192
sg60
g59
sbsg148
g0
(g52
g2
Ntp193
Rp194
(dp195
g21
I00
sg49
I01
sg23
I00
sg56
VcaloStage1Digis
p196
sg58
VisoTaus
p197
sg60
g59
sbsg150
g0
(g52
g2
Ntp198
Rp199
(dp200
g21
I00
sg49
I01
sg23
I00
sg56
VcaloStage1Digis
p201
sg58
VHFRingSums
p202
sg60
g59
sbsg151
g0
(g52
g2
Ntp203
Rp204
(dp205
g21
I00
sg49
I01
sg23
I00
sg56
VcaloStage1Digis
p206
sg58
VHFBitCounts
p207
sg60
g59
sbsg24
V/cvmfs/cms.cern.ch/slc7_amd64_gcc12/cms/cmssw-patch/CMSSW_14_0_5_patch1/src/L1Trigger/L1TCalorimeter/python/caloStage1LegacyFormatDigis_cfi.py
p208
sg26
I3
sg27
g179
sbsVcaloStage2Digis
p209
g0
(g13
g2
Ntp210
Rp211
(dp212
g17
g32
sg19
(lp213
g35
ag34
ag36
ag37
ag38
aVTMTCheck
p214
asg21
I00
sg22
Nsg35
g0
(g52
g2
Ntp215
Rp216
(dp217
g21
I00
sg49
I01
sg23
I00
sg56
g57
sg58
g59
sg60
g59
sbsg23
I00
sg34
g0
(g45
g2
Ntp218
Rp219
(dp220
g21
I00
sg49
I01
sg23
I00
sg50
Vstage2::CaloSetup
p221
sbsg36
g0
(g61
g62
(lp222
I1360
aI1366
atp223
Rp224
(dp225
g21
I00
sg49
I01
sg23
I00
sbsg37
g0
(g67
g2
Ntp226
Rp227
(dp228
g21
I00
sg49
I01
sg23
I00
sg50
I0
sbsg38
g0
(g71
g2
Ntp229
Rp230
(dp231
g21
I00
sg49
I01
sg23
I00
sg50
I00
sbsg214
g0
(g71
g2
Ntp232
Rp233
(dp234
g21
I00
sg49
I01
sg23
I00
sg50
I01
sbsg24
V/cvmfs/cms.cern.ch/slc7_amd64_gcc12/cms/cmssw-patch/CMSSW_14_0_5_patch1/src/EventFilter/L1TRawToDigi/python/caloStage2Digis_cfi.py
p235
sg26
I3
sg27
g209
sbsVcastorDigis
p236
g0
(g13
g2
Ntp237
Rp238
(dp239
g17
VCastorRawToDigi
p240
sg19
(lp241
VFilterDataQuality
p242
aVCastorFirstFED
p243
aVZDCFirstFED
p244
aVFEDs
p245
aVExceptionEmptyData
p246
aVComplainEmptyData
p247
aVfirstSample
p248
aVlastSample
p249
aVUnpackTTP
p250
aVsilent
p251
ag35
aVCastorCtdc
p252
aVUseNominalOrbitMessageTime
p253
aVExpectedOrbitMessageTime
p254
aVUnpackZDC
p255
asg21
I00
sg22
Nsg242
g0
(g71
g2
Ntp256
Rp257
(dp258
g21
I00
sg49
I01
sg23
I00
sg50
I01
sbsg23
I01
sg243
g0
(g75
g2
Ntp259
Rp260
(dp261
g21
I00
sg49
I01
sg23
I00
sg50
I690
sbsg244
g0
(g75
g2
Ntp262
Rp263
(dp264
g21
I00
sg49
I01
sg23
I00
sg50
I693
sbsg245
g0
(g61
g62
(lp265
I690
aI691
aI692
aI693
aI722
atp266
Rp267
(dp268
g21
I00
sg49
I00
sg23
I00
sbsg246
g0
(g71
g2
Ntp269
Rp270
(dp271
g21
I00
sg49
I00
sg23
I00
sg50
I00
sbsg247
g0
(g71
g2
Ntp272
Rp273
(dp274
g21
I00
sg49
I00
sg23
I00
sg50
I00
sbsg248
g0
(g75
g2
Ntp275
Rp276
(dp277
g21
I00
sg49
I01
sg23
I00
sg50
I0
sbsg249
g0
(g75
g2
Ntp278
Rp279
(dp280
g21
I00
sg49
I01
sg23
I00
sg50
I9
sbsg250
g0
(g71
g2
Ntp281
Rp282
(dp283
g21
I00
sg49
I01
sg23
I00
sg50
I01
sbsg251
g0
(g71
g2
Ntp284
Rp285
(dp286
g21
I00
sg49
I00
sg23
I00
sg50
I00
sbsg35
g0
(g52
g2
Ntp287
Rp288
(dp289
g21
I00
sg49
I01
sg23
I01
sg56
g57
sg58
g59
sg60
g59
sbsg252
g0
(g71
g2
Ntp290
Rp291
(dp292
g21
I00
sg49
I01
sg23
I00
sg50
I00
sbsg253
g0
(g71
g2
Ntp293
Rp294
(dp295
g21
I00
sg49
I01
sg23
I00
sg50
I01
sbsg254
g0
(g75
g2
Ntp296
Rp297
(dp298
g21
I00
sg49
I01
sg23
I00
sg50
I-1
sbsg255
g0
(g71
g2
Ntp299
Rp300
(dp301
g21
I00
sg49
I01
sg23
I00
sg50
I01
sbsg24
V/cvmfs/cms.cern.ch/slc7_amd64_gcc12/cms/cmssw-patch/CMSSW_14_0_5_patch1/src/Configuration/StandardSequences/python/RawToDigi_cff.py
p302
sg26
I34
sg27
g236
sbsVcsctfDigis
p303
g0
(g13
g2
Ntp304
Rp305
(dp306
g17
VCSCTFUnpacker
p307
sg19
(lp308
VMaxBX
p309
aVMinBX
p310
aVslot2sector
p311
aVmappingFile
p312
aVswapME1strips
p313
aVproducer
p314
asg21
I00
sg22
Nsg309
g0
(g75
g2
Ntp315
Rp316
(dp317
g21
I00
sg49
I01
sg23
I00
sg50
I11
sbsg23
I00
sg310
g0
(g75
g2
Ntp318
Rp319
(dp320
g21
I00
sg49
I01
sg23
I00
sg50
I5
sbsg311
g0
(g61
g62
(lp321
I0
aI0
aI0
aI0
aI0
aI0
aI0
aI0
aI0
aI0
aI0
aI0
aI0
aI0
aI0
aI0
aI0
aI0
aI0
aI0
aI0
aI0
atp322
Rp323
(dp324
g21
I00
sg49
I01
sg23
I00
sbsg312
g0
(g45
g2
Ntp325
Rp326
(dp327
g21
I00
sg49
I01
sg23
I00
sg50
g59
sbsg313
g0
(g71
g2
Ntp328
Rp329
(dp330
g21
I00
sg49
I01
sg23
I00
sg50
I00
sbsg314
g0
(g52
g2
Ntp331
Rp332
(dp333
g21
I00
sg49
I01
sg23
I01
sg56
g57
sg58
g59
sg60
g59
sbsg24
V/cvmfs/cms.cern.ch/slc7_amd64_gcc12/cms/cmssw-patch/CMSSW_14_0_5_patch1/src/L1Trigger/Configuration/python/L1TRawToDigi_cff.py
p334
sg26
I17
sg27
g303
sbsVctppsDiamondRawToDigi
p335
g0
(g13
g2
Ntp336
Rp337
(dp338
g17
VTotemVFATRawToDigi
p339
sg19
(lp340
VrawDataTag
p341
aVsubSystem
p342
aVfedIds
p343
aVRawUnpacking
p344
aVRawToDigi
p345
aVmightGet
p346
asg21
I00
sg22
Nsg341
g0
(g52
g2
Ntp347
Rp348
(dp349
g21
I00
sg49
I01
sg23
I01
sg56
g57
sg58
g59
sg60
g59
sbsg23
I01
sg342
g0
(g45
g2
Ntp350
Rp351
(dp352
g21
I00
sg49
I01
sg23
I01
sg50
VTimingDiamond
p353
sbsg343
g0
(cFWCore.ParameterSet.Types
vuint32
p354
g62
(lp355
I579
aI581
aI582
aI583
aI588
aI589
atp356
Rp357
(dp358
g21
I00
sg49
I01
sg23
I01
sbsg344
g0
(cFWCore.ParameterSet.Types
PSet
p359
g2
Ntp360
Rp361
(dp362
g21
I00
sg49
I01
sg23
I00
sg19
(lp363
Vverbosity
p364
asg22
Nsg364
g0
(g67
g2
Ntp365
Rp366
(dp367
g21
I00
sg49
I00
sg23
I00
sg50
I0
sbsbsg345
g0
(g359
g2
Ntp368
Rp369
(dp370
g21
I00
sg49
I01
sg23
I01
sg19
(lp371
g364
aVtestFootprint
p372
aVtestCRC
p373
aVtestID
p374
aVtestECMostFrequent
p375
aVtestBCMostFrequent
p376
aVEC_min
p377
aVBC_min
p378
aVEC_fraction
p379
aVBC_fraction
p380
aVuseOlderT2TestFile
p381
aVprintErrorSummary
p382
aVprintUnknownFrameSummary
p383
asg22
Nsg364
g0
(g67
g2
Ntp384
Rp385
(dp386
g21
I00
sg49
I00
sg23
I00
sg50
I0
sbsg372
g0
(g67
g2
Ntp387
Rp388
(dp389
g21
I00
sg49
I01
sg23
I00
sg50
I2
sbsg373
g0
(g67
g2
Ntp390
Rp391
(dp392
g21
I00
sg49
I01
sg23
I01
sg50
I0
sbsg374
g0
(g67
g2
Ntp393
Rp394
(dp395
g21
I00
sg49
I01
sg23
I00
sg50
I2
sbsg375
g0
(g67
g2
Ntp396
Rp397
(dp398
g21
I00
sg49
I01
sg23
I01
sg50
I0
sbsg376
g0
(g67
g2
Ntp399
Rp400
(dp401
g21
I00
sg49
I01
sg23
I00
sg50
I2
sbsg377
g0
(g67
g2
Ntp402
Rp403
(dp404
g21
I00
sg49
I00
sg23
I00
sg50
I10
sbsg378
g0
(g67
g2
Ntp405
Rp406
(dp407
g21
I00
sg49
I00
sg23
I00
sg50
I10
sbsg379
g0
(cFWCore.ParameterSet.Types
double
p408
g2
Ntp409
Rp410
(dp411
g21
I00
sg49
I00
sg23
I00
sg50
F0.6
sbsg380
g0
(g408
g2
Ntp412
Rp413
(dp414
g21
I00
sg49
I00
sg23
I00
sg50
F0.6
sbsg381
g0
(g71
g2
Ntp415
Rp416
(dp417
g21
I00
sg49
I01
sg23
I00
sg50
I00
sbsg382
g0
(g71
g2
Ntp418
Rp419
(dp420
g21
I00
sg49
I00
sg23
I00
sg50
I00
sbsg383
g0
(g71
g2
Ntp421
Rp422
(dp423
g21
I00
sg49
I00
sg23
I00
sg50
I00
sbsbsg346
g0
(cFWCore.ParameterSet.Types
_OptionalParameter
p424
g2
Ntp425
Rp426
(dp427
g21
I00
sg49
I00
sg23
I00
sV_ProxyParameter__type
p428
cFWCore.ParameterSet.Types
vstring
p429
sV_ProxyParameter__value
p430
Nsbsg24
V/cvmfs/cms.cern.ch/slc7_amd64_gcc12/cms/cmssw-patch/CMSSW_14_0_5_patch1/src/EventFilter/CTPPSRawToDigi/python/ctppsDiamondRawToDigi_cfi.py
p431
sg26
I11
sg27
g335
sbsVctppsPixelDigis
p432
g0
(g13
g2
Ntp433
Rp434
(dp435
g17
VCTPPSPixelRawToDigi
p436
sg19
(lp437
VisRun3
p438
aVincludeErrors
p439
aVinputLabel
p440
aVmappingLabel
p441
ag346
asg21
I00
sg22
Nsg438
g0
(g71
g2
Ntp442
Rp443
(dp444
g21
I00
sg49
I01
sg23
I00
sg50
I01
sbsg23
I01
sg439
g0
(g71
g2
Ntp445
Rp446
(dp447
g21
I00
sg49
I01
sg23
I00
sg50
I01
sbsg440
g0
(g52
g2
Ntp448
Rp449
(dp450
g21
I00
sg49
I01
sg23
I01
sg56
g57
sg58
g59
sg60
g59
sbsg441
g0
(g45
g2
Ntp451
Rp452
(dp453
g21
I00
sg49
I01
sg23
I00
sg50
VRPix
p454
sbsg346
g0
(g424
g2
Ntp455
Rp456
(dp457
g21
I00
sg49
I00
sg23
I00
sg428
g429
sg430
Nsbsg24
V/cvmfs/cms.cern.ch/slc7_amd64_gcc12/cms/cmssw-patch/CMSSW_14_0_5_patch1/cfipython/slc7_amd64_gcc12/EventFilter/CTPPSRawToDigi/ctppsPixelDigis_cfi.py
p458
sg26
I3
sg27
g432
sbsVdttfDigis
p459
g0
(g13
g2
Ntp460
Rp461
(dp462
g17
VDTTFFEDReader
p463
sg19
(lp464
VDTTF_FED_Source
p465
aVverbose
p466
asg21
I00
sg22
Nsg465
g0
(g52
g2
Ntp467
Rp468
(dp469
g21
I00
sg49
I01
sg23
I01
sg56
g57
sg58
g59
sg60
g59
sbsg23
I00
sg466
g0
(g71
g2
Ntp470
Rp471
(dp472
g21
I00
sg49
I00
sg23
I00
sg50
I00
sbsg24
g334
sg26
I19
sg27
g459
sbsVecalDigisCPU
p473
g0
(g13
g2
Ntp474
Rp475
(dp476
g17
VEcalRawToDigi
p477
sg19
(lp478
VtccUnpacking
p479
aVFedLabel
p480
aVsrpUnpacking
p481
aVsyncCheck
p482
aVfeIdCheck
p483
aVsilentMode
p484
ag35
aVorderedFedList
p485
aVeventPut
p486
aVnumbTriggerTSamples
p487
aVnumbXtalTSamples
p488
aVorderedDCCIdList
p489
ag245
aVDoRegional
p490
aVfeUnpacking
p491
aVforceToKeepFRData
p492
aVheaderUnpacking
p493
aVmemUnpacking
p494
ag346
asg21
I00
sg22
Nsg479
g0
(g71
g2
Ntp495
Rp496
(dp497
g21
I00
sg49
I01
sg23
I00
sg50
I01
sbsg23
I01
sg480
g0
(g52
g2
Ntp498
Rp499
(dp500
g21
I00
sg49
I01
sg23
I00
sg56
Vlistfeds
p501
sg58
g59
sg60
g59
sbsg481
g0
(g71
g2
Ntp502
Rp503
(dp504
g21
I00
sg49
I01
sg23
I00
sg50
I01
sbsg482
g0
(g71
g2
Ntp505
Rp506
(dp507
g21
I00
sg49
I01
sg23
I00
sg50
I01
sbsg483
g0
(g71
g2
Ntp508
Rp509
(dp510
g21
I00
sg49
I01
sg23
I00
sg50
I01
sbsg484
g0
(g71
g2
Ntp511
Rp512
(dp513
g21
I00
sg49
I00
sg23
I00
sg50
I01
sbsg35
g0
(g52
g2
Ntp514
Rp515
(dp516
g21
I00
sg49
I01
sg23
I01
sg56
g57
sg58
g59
sg60
g59
sbsg485
g0
(g61
g62
(lp517
I601
aI602
aI603
aI604
aI605
aI606
aI607
aI608
aI609
aI610
aI611
aI612
aI613
aI614
aI615
aI616
aI617
aI618
aI619
aI620
aI621
aI622
aI623
aI624
aI625
aI626
aI627
aI628
aI629
aI630
aI631
aI632
aI633
aI634
aI635
aI636
aI637
aI638
aI639
aI640
aI641
aI642
aI643
aI644
aI645
aI646
aI647
aI648
aI649
aI650
aI651
aI652
aI653
aI654
atp518
Rp519
(dp520
g21
I00
sg49
I01
sg23
I00
sbsg486
g0
(g71
g2
Ntp521
Rp522
(dp523
g21
I00
sg49
I01
sg23
I00
sg50
I01
sbsg487
g0
(g75
g2
Ntp524
Rp525
(dp526
g21
I00
sg49
I01
sg23
I00
sg50
I1
sbsg488
g0
(g75
g2
Ntp527
Rp528
(dp529
g21
I00
sg49
I01
sg23
I00
sg50
I10
sbsg489
g0
(g61
g62
(lp530
I1
aI2
aI3
aI4
aI5
aI6
aI7
aI8
aI9
aI10
aI11
aI12
aI13
aI14
aI15
aI16
aI17
aI18
aI19
aI20
aI21
aI22
aI23
aI24
aI25
aI26
aI27
aI28
aI29
aI30
aI31
aI32
aI33
aI34
aI35
aI36
aI37
aI38
aI39
aI40
aI41
aI42
aI43
aI44
aI45
aI46
aI47
aI48
aI49
aI50
aI51
aI52
aI53
aI54
atp531
Rp532
(dp533
g21
I00
sg49
I01
sg23
I00
sbsg245
g0
(g61
g62
(lp534
I601
aI602
aI603
aI604
aI605
aI606
aI607
aI608
aI609
aI610
aI611
aI612
aI613
aI614
aI615
aI616
aI617
aI618
aI619
aI620
aI621
aI622
aI623
aI624
aI625
aI626
aI627
aI628
aI629
aI630
aI631
aI632
aI633
aI634
aI635
aI636
aI637
aI638
aI639
aI640
aI641
aI642
aI643
aI644
aI645
aI646
aI647
aI648
aI649
aI650
aI651
aI652
aI653
aI654
atp535
Rp536
(dp537
g21
I00
sg49
I01
sg23
I00
sbsg490
g0
(g71
g2
Ntp538
Rp539
(dp540
g21
I00
sg49
I01
sg23
I00
sg50
I00
sbsg491
g0
(g71
g2
Ntp541
Rp542
(dp543
g21
I00
sg49
I01
sg23
I00
sg50
I01
sbsg492
g0
(g71
g2
Ntp544
Rp545
(dp546
g21
I00
sg49
I01
sg23
I00
sg50
I00
sbsg493
g0
(g71
g2
Ntp547
Rp548
(dp549
g21
I00
sg49
I01
sg23
I00
sg50
I01
sbsg494
g0
(g71
g2
Ntp550
Rp551
(dp552
g21
I00
sg49
I01
sg23
I00
sg50
I01
sbsg346
g0
(g424
g2
Ntp553
Rp554
(dp555
g21
I00
sg49
I00
sg23
I00
sg428
g429
sg430
Nsbsg24
V/cvmfs/cms.cern.ch/slc7_amd64_gcc12/cms/cmssw-patch/CMSSW_14_0_5_patch1/src/EventFilter/EcalRawToDigi/python/ecalDigis_cff.py
p556
sg26
I6
sg27
g473
sbsVecalDigisGPU
p557
g0
(g13
g2
Ntp558
Rp559
(dp560
g17
VEcalRawToDigiGPU
p561
sg19
(lp562
g35
ag245
aVmaxChannelsEB
p563
aVmaxChannelsEE
p564
aVdigisLabelEB
p565
aVdigisLabelEE
p566
ag346
asg21
I00
sg22
Nsg35
g0
(g52
g2
Ntp567
Rp568
(dp569
g21
I00
sg49
I01
sg23
I00
sg56
g57
sg58
g59
sg60
g59
sbsg23
I00
sg245
g0
(g61
g62
(lp570
I601
aI602
aI603
aI604
aI605
aI606
aI607
aI608
aI609
aI610
aI611
aI612
aI613
aI614
aI615
aI616
aI617
aI618
aI619
aI620
aI621
aI622
aI623
aI624
aI625
aI626
aI627
aI628
aI629
aI630
aI631
aI632
aI633
aI634
aI635
aI636
aI637
aI638
aI639
aI640
aI641
aI642
aI643
aI644
aI645
aI646
aI647
aI648
aI649
aI650
aI651
aI652
aI653
aI654
atp571
Rp572
(dp573
g21
I00
sg49
I01
sg23
I00
sbsg563
g0
(g67
g2
Ntp574
Rp575
(dp576
g21
I00
sg49
I01
sg23
I00
sg50
I61200
sbsg564
g0
(g67
g2
Ntp577
Rp578
(dp579
g21
I00
sg49
I01
sg23
I00
sg50
I14648
sbsg565
g0
(g45
g2
Ntp580
Rp581
(dp582
g21
I00
sg49
I01
sg23
I00
sg50
VebDigis
p583
sbsg566
g0
(g45
g2
Ntp584
Rp585
(dp586
g21
I00
sg49
I01
sg23
I00
sg50
VeeDigis
p587
sbsg346
g0
(g424
g2
Ntp588
Rp589
(dp590
g21
I00
sg49
I00
sg23
I00
sg428
g429
sg430
Nsbsg24
g556
sg26
I27
sg27
g557
sbsVecalDigisPortable
p591
g0
(g13
g2
Ntp592
Rp593
(dp594
g17
VEcalRawToDigiPortable@alpaka
p595
sg19
(lp596
g35
ag245
ag563
ag564
ag565
ag566
ag346
aValpaka
p597
asg21
I00
sg22
Nsg35
g0
(g52
g2
Ntp598
Rp599
(dp600
g21
I00
sg49
I01
sg23
I00
sg56
g57
sg58
g59
sg60
g59
sbsg23
I00
sg245
g0
(g61
g62
(lp601
I601
aI602
aI603
aI604
aI605
aI606
aI607
aI608
aI609
aI610
aI611
aI612
aI613
aI614
aI615
aI616
aI617
aI618
aI619
aI620
aI621
aI622
aI623
aI624
aI625
aI626
aI627
aI628
aI629
aI630
aI631
aI632
aI633
aI634
aI635
aI636
aI637
aI638
aI639
aI640
aI641
aI642
aI643
aI644
aI645
aI646
aI647
aI648
aI649
aI650
aI651
aI652
aI653
aI654
atp602
Rp603
(dp604
g21
I00
sg49
I01
sg23
I00
sbsg563
g0
(g67
g2
Ntp605
Rp606
(dp607
g21
I00
sg49
I01
sg23
I00
sg50
I61200
sbsg564
g0
(g67
g2
Ntp608
Rp609
(dp610
g21
I00
sg49
I01
sg23
I00
sg50
I14648
sbsg565
g0
(g45
g2
Ntp611
Rp612
(dp613
g21
I00
sg49
I01
sg23
I00
sg50
g583
sbsg566
g0
(g45
g2
Ntp614
Rp615
(dp616
g21
I00
sg49
I01
sg23
I00
sg50
g587
sbsg346
g0
(g424
g2
Ntp617
Rp618
(dp619
g21
I00
sg49
I00
sg23
I00
sg428
g429
sg430
Nsbsg597
g0
(g359
g2
Ntp620
Rp621
(dp622
g21
I00
sg49
I00
sg23
I00
sg19
(lp623
Vbackend
p624
asg22
Nsg624
g0
(g45
g2
Ntp625
Rp626
(dp627
g21
I00
sg49
I00
sg23
I00
sg50
g59
sbsbsg24
g556
sg26
I57
sg27
g591
sbsVecalPreshowerDigis
p628
g0
(g13
g2
Ntp629
Rp630
(dp631
g17
VESRawToDigi
p632
sg19
(lp633
VsourceTag
p634
aVdebugMode
p635
aVInstanceES
p636
aVLookupTable
p637
aVESdigiCollection
p638
ag346
asg21
I00
sg22
Nsg634
g0
(g52
g2
Ntp639
Rp640
(dp641
g21
I00
sg49
I01
sg23
I01
sg56
g57
sg58
g59
sg60
g59
sbsg23
I01
sg635
g0
(g71
g2
Ntp642
Rp643
(dp644
g21
I00
sg49
I00
sg23
I00
sg50
I00
sbsg636
g0
(g45
g2
Ntp645
Rp646
(dp647
g21
I00
sg49
I01
sg23
I00
sg50
g59
sbsg637
g0
(cFWCore.ParameterSet.Types
FileInPath
p648
g2
Ntp649
Rp650
(dp651
g21
I00
sg49
I01
sg23
I00
sg50
VEventFilter/ESDigiToRaw/data/ES_lookup_table.dat
p652
sbsg638
g0
(g45
g2
Ntp653
Rp654
(dp655
g21
I00
sg49
I01
sg23
I00
sg50
g59
sbsg346
g0
(g424
g2
Ntp656
Rp657
(dp658
g21
I00
sg49
I00
sg23
I00
sg428
g429
sg430
Nsbsg24
g302
sg26
I16
sg27
g628
sbsVemtfStage2Digis
p659
g0
(g13
g2
Ntp660
Rp661
(dp662
g17
g32
sg19
(lp663
g34
ag35
ag36
ag37
ag100
aVMTF7
p664
asg21
I00
sg22
Nsg34
g0
(g45
g2
Ntp665
Rp666
(dp667
g21
I00
sg49
I01
sg23
I00
sg50
Vstage2::EMTFSetup
p668
sbsg23
I00
sg35
g0
(g52
g2
Ntp669
Rp670
(dp671
g21
I00
sg49
I01
sg23
I00
sg56
g57
sg58
g59
sg60
g59
sbsg36
g0
(g61
g62
(lp672
I1384
aI1385
atp673
Rp674
(dp675
g21
I00
sg49
I01
sg23
I00
sbsg37
g0
(g67
g2
Ntp676
Rp677
(dp678
g21
I00
sg49
I01
sg23
I00
sg50
I0
sbsg100
g0
(g71
g2
Ntp679
Rp680
(dp681
g21
I00
sg49
I00
sg23
I00
sg50
I00
sbsg664
g0
(g71
g2
Ntp682
Rp683
(dp684
g21
I00
sg49
I00
sg23
I00
sg50
I01
sbsg24
V/cvmfs/cms.cern.ch/slc7_amd64_gcc12/cms/cmssw-patch/CMSSW_14_0_5_patch1/src/EventFilter/L1TRawToDigi/python/emtfStage2Digis_cfi.py
p685
sg26
I3
sg27
g659
sbsVgctDigis
p686
g0
(g13
g2
Ntp687
Rp688
(dp689
g17
VGctRawToDigi
p690
sg19
(lp691
VunpackSharedRegions
p692
aVnumberOfGctSamplesToUnpack
p693
aVnumberOfRctSamplesToUnpack
p694
aVhltMode
p695
ag440
aVunpackerVersion
p696
aVgctFedId
p697
aVcheckHeaders
p698
ag466
ag346
asg21
I00
sg22
Nsg692
g0
(g71
g2
Ntp699
Rp700
(dp701
g21
I00
sg49
I01
sg23
I00
sg50
I00
sbsg23
I00
sg693
g0
(g67
g2
Ntp702
Rp703
(dp704
g21
I00
sg49
I01
sg23
I00
sg50
I1
sbsg694
g0
(g67
g2
Ntp705
Rp706
(dp707
g21
I00
sg49
I01
sg23
I00
sg50
I1
sbsg695
g0
(g71
g2
Ntp708
Rp709
(dp710
g21
I00
sg49
I01
sg23
I00
sg50
I00
sbsg440
g0
(g52
g2
Ntp711
Rp712
(dp713
g21
I00
sg49
I01
sg23
I01
sg56
g57
sg58
g59
sg60
g59
sbsg696
g0
(g67
g2
Ntp714
Rp715
(dp716
g21
I00
sg49
I01
sg23
I00
sg50
I0
sbsg697
g0
(g75
g2
Ntp717
Rp718
(dp719
g21
I00
sg49
I00
sg23
I00
sg50
I745
sbsg698
g0
(g71
g2
Ntp720
Rp721
(dp722
g21
I00
sg49
I00
sg23
I00
sg50
I00
sbsg466
g0
(g71
g2
Ntp723
Rp724
(dp725
g21
I00
sg49
I00
sg23
I00
sg50
I00
sbsg346
g0
(g424
g2
Ntp726
Rp727
(dp728
g21
I00
sg49
I00
sg23
I00
sg428
g429
sg430
Nsbsg24
g334
sg26
I21
sg27
g686
sbsVgmtStage2Digis
p729
g0
(g13
g2
Ntp730
Rp731
(dp732
g17
g32
sg19
(lp733
g35
ag34
ag36
asg21
I00
sg22
Nsg35
g0
(g52
g2
Ntp734
Rp735
(dp736
g21
I00
sg49
I01
sg23
I00
sg56
g57
sg58
g59
sg60
g59
sbsg23
I00
sg34
g0
(g45
g2
Ntp737
Rp738
(dp739
g21
I00
sg49
I01
sg23
I00
sg50
Vstage2::GMTSetup
p740
sbsg36
g0
(g61
g62
(lp741
I1402
atp742
Rp743
(dp744
g21
I00
sg49
I01
sg23
I00
sbsg24
V/cvmfs/cms.cern.ch/slc7_amd64_gcc12/cms/cmssw-patch/CMSSW_14_0_5_patch1/src/EventFilter/L1TRawToDigi/python/gmtStage2Digis_cfi.py
p745
sg26
I3
sg27
g729
sbsVgtDigis
p746
g0
(g13
g2
Ntp747
Rp748
(dp749
g17
VL1GlobalTriggerRawToDigi
p750
sg19
(lp751
VDaqGtInputTag
p752
aVDaqGtFedId
p753
aVActiveBoardsMask
p754
aVUnpackBxInEvent
p755
aVVerbosity
p756
ag346
asg21
I00
sg22
Nsg752
g0
(g52
g2
Ntp757
Rp758
(dp759
g21
I00
sg49
I01
sg23
I01
sg56
g57
sg58
g59
sg60
g59
sbsg23
I00
sg753
g0
(g75
g2
Ntp760
Rp761
(dp762
g21
I00
sg49
I00
sg23
I00
sg50
I813
sbsg754
g0
(g67
g2
Ntp763
Rp764
(dp765
g21
I00
sg49
I01
sg23
I00
sg50
I65535
sbsg755
g0
(g75
g2
Ntp766
Rp767
(dp768
g21
I00
sg49
I01
sg23
I00
sg50
I-1
sbsg756
g0
(g75
g2
Ntp769
Rp770
(dp771
g21
I00
sg49
I00
sg23
I00
sg50
I0
sbsg346
g0
(g424
g2
Ntp772
Rp773
(dp774
g21
I00
sg49
I00
sg23
I00
sg428
g429
sg430
Nsbsg24
g334
sg26
I23
sg27
g746
sbsVgtEvmDigis
p775
g0
(g13
g2
Ntp776
Rp777
(dp778
g17
VL1GlobalTriggerEvmRawToDigi
p779
sg19
(lp780
VEvmGtInputTag
p781
aVEvmGtFedId
p782
ag754
ag755
aVBstLengthBytes
p783
asg21
I00
sg22
Nsg781
g0
(g52
g2
Ntp784
Rp785
(dp786
g21
I00
sg49
I01
sg23
I01
sg56
g57
sg58
g59
sg60
g59
sbsg23
I00
sg782
g0
(g75
g2
Ntp787
Rp788
(dp789
g21
I00
sg49
I00
sg23
I00
sg50
I812
sbsg754
g0
(g67
g2
Ntp790
Rp791
(dp792
g21
I00
sg49
I01
sg23
I00
sg50
I65535
sbsg755
g0
(g75
g2
Ntp793
Rp794
(dp795
g21
I00
sg49
I01
sg23
I00
sg50
I-1
sbsg783
g0
(g75
g2
Ntp796
Rp797
(dp798
g21
I00
sg49
I01
sg23
I00
sg50
I-1
sbsg24
g334
sg26
I25
sg27
g775
sbsVgtStage2Digis
p799
g0
(g13
g2
Ntp800
Rp801
(dp802
g17
g32
sg19
(lp803
g35
ag34
ag36
asg21
I00
sg22
Nsg35
g0
(g52
g2
Ntp804
Rp805
(dp806
g21
I00
sg49
I01
sg23
I00
sg56
g57
sg58
g59
sg60
g59
sbsg23
I00
sg34
g0
(g45
g2
Ntp807
Rp808
(dp809
g21
I00
sg49
I01
sg23
I00
sg50
Vstage2::GTSetup
p810
sbsg36
g0
(g61
g62
(lp811
I1404
atp812
Rp813
(dp814
g21
I00
sg49
I01
sg23
I00
sbsg24
V/cvmfs/cms.cern.ch/slc7_amd64_gcc12/cms/cmssw-patch/CMSSW_14_0_5_patch1/src/EventFilter/L1TRawToDigi/python/gtStage2Digis_cfi.py
p815
sg26
I3
sg27
g799
sbsVgtTestcrateStage2Digis
p816
g0
(g13
g2
Ntp817
Rp818
(dp819
g17
g32
sg19
(lp820
g35
ag34
ag36
asg21
I00
sg22
Nsg35
g0
(g52
g2
Ntp821
Rp822
(dp823
g21
I00
sg49
I01
sg23
I00
sg56
g57
sg58
g59
sg60
g59
sbsg23
I00
sg34
g0
(g45
g2
Ntp824
Rp825
(dp826
g21
I00
sg49
I01
sg23
I00
sg50
Vstage2::GTSetup
p827
sbsg36
g0
(g61
g62
(lp828
I1405
atp829
Rp830
(dp831
g21
I00
sg49
I01
sg23
I00
sbsg24
V/cvmfs/cms.cern.ch/slc7_amd64_gcc12/cms/cmssw-patch/CMSSW_14_0_5_patch1/src/EventFilter/L1TRawToDigi/python/gtTestcrateStage2Digis_cfi.py
p832
sg26
I3
sg27
g816
sbsVhcalDigis
p833
g0
(g13
g2
Ntp834
Rp835
(dp836
g17
VHcalRawToDigi
p837
sg19
(lp838
VHcalFirstFED
p839
ag248
ag249
ag242
ag245
ag255
aVUnpackCalib
p840
aVUnpackUMNio
p841
ag250
ag251
aVsaveQIE10DataNSamples
p842
aVsaveQIE10DataTags
p843
aVsaveQIE11DataNSamples
p844
aVsaveQIE11DataTags
p845
ag247
aVUnpackerMode
p846
ag254
ag35
aVElectronicsMap
p847
ag346
asg21
I00
sg22
Nsg839
g0
(g75
g2
Ntp848
Rp849
(dp850
g21
I00
sg49
I00
sg23
I00
sg50
I700
sbsg23
I01
sg248
g0
(g75
g2
Ntp851
Rp852
(dp853
g21
I00
sg49
I01
sg23
I00
sg50
I0
sbsg249
g0
(g75
g2
Ntp854
Rp855
(dp856
g21
I00
sg49
I01
sg23
I00
sg50
I9
sbsg242
g0
(g71
g2
Ntp857
Rp858
(dp859
g21
I00
sg49
I01
sg23
I00
sg50
I01
sbsg245
g0
(g61
g62
(lp860
tp861
Rp862
(dp863
g21
I00
sg49
I00
sg23
I00
sbsg255
g0
(g71
g2
Ntp864
Rp865
(dp866
g21
I00
sg49
I00
sg23
I00
sg50
I01
sbsg840
g0
(g71
g2
Ntp867
Rp868
(dp869
g21
I00
sg49
I00
sg23
I00
sg50
I01
sbsg841
g0
(g71
g2
Ntp870
Rp871
(dp872
g21
I00
sg49
I00
sg23
I00
sg50
I01
sbsg250
g0
(g71
g2
Ntp873
Rp874
(dp875
g21
I00
sg49
I00
sg23
I00
sg50
I01
sbsg251
g0
(g71
g2
Ntp876
Rp877
(dp878
g21
I00
sg49
I00
sg23
I00
sg50
I01
sbsg842
g0
(g61
g62
(lp879
tp880
Rp881
(dp882
g21
I00
sg49
I00
sg23
I00
sbsg843
g0
(g429
g62
(lp883
tp884
Rp885
(dp886
g21
I00
sg49
I00
sg23
I00
sV_nPerLine
p887
I1
sbsg844
g0
(g61
g62
(lp888
tp889
Rp890
(dp891
g21
I00
sg49
I00
sg23
I00
sbsg845
g0
(g429
g62
(lp892
tp893
Rp894
(dp895
g21
I00
sg49
I00
sg23
I00
sg887
I1
sbsg247
g0
(g71
g2
Ntp896
Rp897
(dp898
g21
I00
sg49
I00
sg23
I00
sg50
I00
sbsg846
g0
(g75
g2
Ntp899
Rp900
(dp901
g21
I00
sg49
I00
sg23
I00
sg50
I0
sbsg254
g0
(g75
g2
Ntp902
Rp903
(dp904
g21
I00
sg49
I00
sg23
I00
sg50
I-1
sbsg35
g0
(g52
g2
Ntp905
Rp906
(dp907
g21
I00
sg49
I01
sg23
I01
sg56
g57
sg58
g59
sg60
g59
sbsg847
g0
(g45
g2
Ntp908
Rp909
(dp910
g21
I00
sg49
I01
sg23
I00
sg50
g59
sbsg346
g0
(g424
g2
Ntp911
Rp912
(dp913
g21
I00
sg49
I00
sg23
I00
sg428
g429
sg430
Nsbsg24
g302
sg26
I19
sg27
g833
sbsVhfnoseDigis
p914
g0
(g13
g2
Ntp915
Rp916
(dp917
g17
VHFNoseRawToDigiFake
p918
sg19
(lp919
g914
ag346
asg21
I00
sg22
Nsg914
g0
(g52
g2
Ntp920
Rp921
(dp922
g21
I00
sg49
I01
sg23
I00
sg56
VsimHFNoseUnsuppressedDigis
p923
sg58
VHFNose
p924
sg60
g59
sbsg23
I00
sg346
g0
(g424
g2
Ntp925
Rp926
(dp927
g21
I00
sg49
I00
sg23
I00
sg428
g429
sg430
Nsbsg24
V/cvmfs/cms.cern.ch/slc7_amd64_gcc12/cms/cmssw-patch/CMSSW_14_0_5_patch1/src/EventFilter/HGCalRawToDigi/python/HGCalRawToDigi_cfi.py
p928
sg26
I8
sg27
g914
sbsVhgcalDigis
p929
g0
(g13
g2
Ntp930
Rp931
(dp932
g17
VHGCalRawToDigiFake
p933
sg19
(lp934
g587
aVfhDigis
p935
aVbhDigis
p936
ag346
asg21
I00
sg22
Nsg587
g0
(g52
g2
Ntp937
Rp938
(dp939
g21
I00
sg49
I01
sg23
I00
sg56
VsimHGCalUnsuppressedDigis
p940
sg58
VEE
p941
sg60
g59
sbsg23
I00
sg935
g0
(g52
g2
Ntp942
Rp943
(dp944
g21
I00
sg49
I01
sg23
I00
sg56
g940
sg58
VHEfront
p945
sg60
g59
sbsg936
g0
(g52
g2
Ntp946
Rp947
(dp948
g21
I00
sg49
I01
sg23
I00
sg56
g940
sg58
VHEback
p949
sg60
g59
sbsg346
g0
(g424
g2
Ntp950
Rp951
(dp952
g21
I00
sg49
I00
sg23
I00
sg428
g429
sg430
Nsbsg24
g928
sg26
I4
sg27
g929
sbsVmuonCSCDigis
p953
g0
(g13
g2
Ntp954
Rp955
(dp956
g17
VCSCDCCUnpacker
p957
sg19
(lp958
VInputObjects
p959
aVUseExaminer
p960
aVExaminerMask
p961
aVUseSelectiveUnpacking
p962
aVErrorMask
p963
aVUnpackStatusDigis
p964
aVUseFormatStatus
p965
aVuseRPCs
p966
aVuseGEMs
p967
aVuseCSCShowers
p968
aVDebug
p969
aVPrintEventNumber
p970
aVrunDQM
p971
aVVisualFEDInspect
p972
aVVisualFEDShort
p973
aVFormatedEventDump
p974
aVSuppressZeroLCT
p975
aVDisableMappingCheck
p976
aVB904Setup
p977
aVB904vmecrate
p978
aVB904dmb
p979
ag346
asg21
I00
sg22
Nsg959
g0
(g52
g2
Ntp980
Rp981
(dp982
g21
I00
sg49
I01
sg23
I01
sg56
g57
sg58
g59
sg60
g59
sbsg23
I01
sg960
g0
(g71
g2
Ntp983
Rp984
(dp985
g21
I00
sg49
I01
sg23
I00
sg50
I01
sbsg961
g0
(g67
g2
Ntp986
Rp987
(dp988
g21
I00
sg49
I01
sg23
I01
sg50
I535558134
sbsg962
g0
(g71
g2
Ntp989
Rp990
(dp991
g21
I00
sg49
I01
sg23
I00
sg50
I01
sbsg963
g0
(g67
g2
Ntp992
Rp993
(dp994
g21
I00
sg49
I01
sg23
I00
sg50
I0
sbsg964
g0
(g71
g2
Ntp995
Rp996
(dp997
g21
I00
sg49
I01
sg23
I00
sg50
I00
sbsg965
g0
(g71
g2
Ntp998
Rp999
(dp1000
g21
I00
sg49
I01
sg23
I00
sg50
I01
sbsg966
g0
(g71
g2
Ntp1001
Rp1002
(dp1003
g21
I00
sg49
I01
sg23
I00
sg50
I00
sbsg967
g0
(g71
g2
Ntp1004
Rp1005
(dp1006
g21
I00
sg49
I01
sg23
I00
sg50
I01
sbsg968
g0
(g71
g2
Ntp1007
Rp1008
(dp1009
g21
I00
sg49
I01
sg23
I00
sg50
I01
sbsg969
g0
(g71
g2
Ntp1010
Rp1011
(dp1012
g21
I00
sg49
I00
sg23
I00
sg50
I00
sbsg970
g0
(g71
g2
Ntp1013
Rp1014
(dp1015
g21
I00
sg49
I00
sg23
I00
sg50
I00
sbsg971
g0
(g71
g2
Ntp1016
Rp1017
(dp1018
g21
I00
sg49
I00
sg23
I00
sg50
I00
sbsg972
g0
(g71
g2
Ntp1019
Rp1020
(dp1021
g21
I00
sg49
I00
sg23
I00
sg50
I00
sbsg973
g0
(g71
g2
Ntp1022
Rp1023
(dp1024
g21
I00
sg49
I00
sg23
I00
sg50
I00
sbsg974
g0
(g71
g2
Ntp1025
Rp1026
(dp1027
g21
I00
sg49
I00
sg23
I00
sg50
I00
sbsg975
g0
(g71
g2
Ntp1028
Rp1029
(dp1030
g21
I00
sg49
I00
sg23
I00
sg50
I01
sbsg976
g0
(g71
g2
Ntp1031
Rp1032
(dp1033
g21
I00
sg49
I00
sg23
I00
sg50
I00
sbsg977
g0
(g71
g2
Ntp1034
Rp1035
(dp1036
g21
I00
sg49
I00
sg23
I00
sg50
I00
sbsg978
g0
(g75
g2
Ntp1037
Rp1038
(dp1039
g21
I00
sg49
I00
sg23
I00
sg50
I1
sbsg979
g0
(g75
g2
Ntp1040
Rp1041
(dp1042
g21
I00
sg49
I00
sg23
I00
sg50
I3
sbsg346
g0
(g424
g2
Ntp1043
Rp1044
(dp1045
g21
I00
sg49
I00
sg23
I00
sg428
g429
sg430
Nsbsg24
g302
sg26
I22
sg27
g953
sbsVmuonDTDigis
p1046
g0
(g13
g2
Ntp1047
Rp1048
(dp1049
g17
VDTUnpackingModule
p1050
sg19
(lp1051
VdataType
p1052
ag440
aVuseStandardFEDid
p1053
aVminFEDid
p1054
aVmaxFEDid
p1055
aVfedbyType
p1056
aVreadOutParameters
p1057
aVdqmOnly
p1058
ag346
asg21
I00
sg22
Nsg1052
g0
(g45
g2
Ntp1059
Rp1060
(dp1061
g21
I00
sg49
I01
sg23
I00
sg50
VDDU
p1062
sbsg23
I01
sg440
g0
(g52
g2
Ntp1063
Rp1064
(dp1065
g21
I00
sg49
I01
sg23
I01
sg56
g57
sg58
g59
sg60
g59
sbsg1053
g0
(g71
g2
Ntp1066
Rp1067
(dp1068
g21
I00
sg49
I01
sg23
I00
sg50
I01
sbsg1054
g0
(g75
g2
Ntp1069
Rp1070
(dp1071
g21
I00
sg49
I00
sg23
I00
sg50
I770
sbsg1055
g0
(g75
g2
Ntp1072
Rp1073
(dp1074
g21
I00
sg49
I00
sg23
I00
sg50
I779
sbsg1056
g0
(g424
g2
Ntp1075
Rp1076
(dp1077
g21
I00
sg49
I01
sg23
I00
sg428
g71
sg430
Nsbsg1057
g0
(g359
g2
Ntp1078
Rp1079
(dp1080
g21
I00
sg49
I01
sg23
I00
sg19
(lp1081
g100
aVrosParameters
p1082
aVlocalDAQ
p1083
aVperformDataIntegrityMonitor
p1084
asg22
Nsg100
g0
(g71
g2
Ntp1085
Rp1086
(dp1087
g21
I00
sg49
I00
sg23
I00
sg50
I00
sbsg1082
g0
(g359
g2
Ntp1088
Rp1089
(dp1090
g21
I00
sg49
I01
sg23
I00
sg19
(lp1091
VwriteSC
p1092
aVreadingDDU
p1093
ag1084
aVreadDDUIDfromDDU
p1094
ag100
ag1083
asg22
Nsg1092
g0
(g71
g2
Ntp1095
Rp1096
(dp1097
g21
I00
sg49
I00
sg23
I00
sg50
I01
sbsg1093
g0
(g71
g2
Ntp1098
Rp1099
(dp1100
g21
I00
sg49
I00
sg23
I00
sg50
I01
sbsg1084
g0
(g71
g2
Ntp1101
Rp1102
(dp1103
g21
I00
sg49
I00
sg23
I00
sg50
I00
sbsg1094
g0
(g71
g2
Ntp1104
Rp1105
(dp1106
g21
I00
sg49
I00
sg23
I00
sg50
I01
sbsg100
g0
(g71
g2
Ntp1107
Rp1108
(dp1109
g21
I00
sg49
I00
sg23
I00
sg50
I00
sbsg1083
g0
(g71
g2
Ntp1110
Rp1111
(dp1112
g21
I00
sg49
I00
sg23
I00
sg50
I00
sbsbsg1083
g0
(g71
g2
Ntp1113
Rp1114
(dp1115
g21
I00
sg49
I00
sg23
I00
sg50
I00
sbsg1084
g0
(g71
g2
Ntp1116
Rp1117
(dp1118
g21
I00
sg49
I00
sg23
I00
sg50
I00
sbsbsg1058
g0
(g71
g2
Ntp1119
Rp1120
(dp1121
g21
I00
sg49
I01
sg23
I00
sg50
I00
sbsg346
g0
(g424
g2
Ntp1122
Rp1123
(dp1124
g21
I00
sg49
I00
sg23
I00
sg428
g429
sg430
Nsbsg24
g302
sg26
I25
sg27
g1046
sbsVmuonGEMDigis
p1125
g0
(g13
g2
Ntp1126
Rp1127
(dp1128
g17
VGEMRawToDigiModule
p1129
sg19
(lp1130
g35
aVuseDBEMap
p1131
aVkeepDAQStatus
p1132
aVreadMultiBX
p1133
aVge21Off
p1134
aVfedIdStart
p1135
aVfedIdEnd
p1136
ag346
asg21
I00
sg22
Nsg35
g0
(g52
g2
Ntp1137
Rp1138
(dp1139
g21
I00
sg49
I01
sg23
I00
sg56
g57
sg58
g59
sg60
g59
sbsg23
I00
sg1131
g0
(g71
g2
Ntp1140
Rp1141
(dp1142
g21
I00
sg49
I01
sg23
I00
sg50
I00
sbsg1132
g0
(g71
g2
Ntp1143
Rp1144
(dp1145
g21
I00
sg49
I01
sg23
I00
sg50
I01
sbsg1133
g0
(g71
g2
Ntp1146
Rp1147
(dp1148
g21
I00
sg49
I01
sg23
I00
sg50
I00
sbsg1134
g0
(g71
g2
Ntp1149
Rp1150
(dp1151
g21
I00
sg49
I01
sg23
I00
sg50
I00
sbsg1135
g0
(g67
g2
Ntp1152
Rp1153
(dp1154
g21
I00
sg49
I01
sg23
I00
sg50
I1467
sbsg1136
g0
(g67
g2
Ntp1155
Rp1156
(dp1157
g21
I00
sg49
I01
sg23
I00
sg50
I1478
sbsg346
g0
(g424
g2
Ntp1158
Rp1159
(dp1160
g21
I00
sg49
I00
sg23
I00
sg428
g429
sg430
Nsbsg24
g302
sg26
I31
sg27
g1125
sbsVmuonRPCDigis
p1161
g0
(g13
g2
Ntp1162
Rp1163
(dp1164
g17
VRPCUnpackingModule
p1165
sg19
(lp1166
g35
aVdoSynchro
p1167
ag346
asg21
I00
sg22
Nsg35
g0
(g52
g2
Ntp1168
Rp1169
(dp1170
g21
I00
sg49
I01
sg23
I01
sg56
g57
sg58
g59
sg60
g59
sbsg23
I01
sg1167
g0
(g71
g2
Ntp1171
Rp1172
(dp1173
g21
I00
sg49
I01
sg23
I00
sg50
I01
sbsg346
g0
(g424
g2
Ntp1174
Rp1175
(dp1176
g21
I00
sg49
I00
sg23
I00
sg428
g429
sg430
Nsbsg24
g302
sg26
I28
sg27
g1161
sbsVomtfStage2Digis
p1177
g0
(g13
g2
Ntp1178
Rp1179
(dp1180
g17
VOmtfUnpacker
p1181
sg19
(lp1182
g440
aVskipRpc
p1183
asg21
I00
sg22
Nsg440
g0
(g52
g2
Ntp1184
Rp1185
(dp1186
g21
I00
sg49
I01
sg23
I00
sg56
g57
sg58
g59
sg60
g59
sbsg23
I00
sg1183
g0
(g71
g2
Ntp1187
Rp1188
(dp1189
g21
I00
sg49
I01
sg23
I00
sg50
I00
sbsg24
V/cvmfs/cms.cern.ch/slc7_amd64_gcc12/cms/cmssw-patch/CMSSW_14_0_5_patch1/src/EventFilter/L1TRawToDigi/python/omtfStage2Digis_cfi.py
p1190
sg26
I3
sg27
g1177
sbsVonlineMetaDataDigis
p1191
g0
(g13
g2
Ntp1192
Rp1193
(dp1194
g17
VOnlineMetaDataRawToDigi
p1195
sg19
(lp1196
VonlineMetaDataInputLabel
p1197
ag346
asg21
I00
sg22
Nsg1197
g0
(g52
g2
Ntp1198
Rp1199
(dp1200
g21
I00
sg49
I01
sg23
I00
sg56
g57
sg58
g59
sg60
g59
sbsg23
I00
sg346
g0
(g424
g2
Ntp1201
Rp1202
(dp1203
g21
I00
sg49
I00
sg23
I00
sg428
g429
sg430
Nsbsg24
g302
sg26
I42
sg27
g1191
sbsVonlineMetaDataRawToDigi
p1204
g0
(g13
g2
Ntp1205
Rp1206
(dp1207
g17
g1195
sg19
(lp1208
g1197
ag346
asg21
I00
sg22
Nsg1197
g0
(g52
g2
Ntp1209
Rp1210
(dp1211
g21
I00
sg49
I01
sg23
I00
sg56
g57
sg58
g59
sg60
g59
sbsg23
I00
sg346
g0
(g424
g2
Ntp1212
Rp1213
(dp1214
g21
I00
sg49
I00
sg23
I00
sg428
g429
sg430
Nsbsg24
V/cvmfs/cms.cern.ch/slc7_amd64_gcc12/cms/cmssw-patch/CMSSW_14_0_5_patch1/cfipython/slc7_amd64_gcc12/EventFilter/OnlineMetaDataRawToDigi/onlineMetaDataRawToDigi_cfi.py
p1215
sg26
I3
sg27
g1204
sbsVrpcCPPFRawToDigi
p1216
g0
(g13
g2
Ntp1217
Rp1218
(dp1219
g17
VRPCAMCRawToDigi
p1220
sg19
(lp1221
VinputTag
p1222
aVcalculateCRC
p1223
aVfillCounters
p1224
aVRPCAMCUnpacker
p1225
aVRPCAMCUnpackerSettings
p1226
ag346
asg21
I00
sg22
Nsg1222
g0
(g52
g2
Ntp1227
Rp1228
(dp1229
g21
I00
sg49
I01
sg23
I00
sg56
g57
sg58
g59
sg60
g59
sbsg23
I00
sg1223
g0
(g71
g2
Ntp1230
Rp1231
(dp1232
g21
I00
sg49
I01
sg23
I00
sg50
I01
sbsg1224
g0
(g71
g2
Ntp1233
Rp1234
(dp1235
g21
I00
sg49
I01
sg23
I00
sg50
I01
sbsg1225
g0
(g45
g2
Ntp1236
Rp1237
(dp1238
g21
I00
sg49
I01
sg23
I01
sg50
VRPCCPPFUnpacker
p1239
sbsg1226
g0
(g359
g2
Ntp1240
Rp1241
(dp1242
g21
I00
sg49
I01
sg23
I01
sg19
(lp1243
VfillAMCCounters
p1244
aVbxMin
p1245
aVbxMax
p1246
aVcppfDaqDelay
p1247
asg22
Nsg1244
g0
(g71
g2
Ntp1248
Rp1249
(dp1250
g21
I00
sg49
I01
sg23
I00
sg50
I01
sbsg1245
g0
(g75
g2
Ntp1251
Rp1252
(dp1253
g21
I00
sg49
I01
sg23
I00
sg50
I-2
sbsg1246
g0
(g75
g2
Ntp1254
Rp1255
(dp1256
g21
I00
sg49
I01
sg23
I00
sg50
I2
sbsg1247
g0
(g75
g2
Ntp1257
Rp1258
(dp1259
g21
I00
sg49
I01
sg23
I00
sg50
I0
sbsbsg346
g0
(g424
g2
Ntp1260
Rp1261
(dp1262
g21
I00
sg49
I00
sg23
I00
sg428
g429
sg430
Nsbsg24
V/cvmfs/cms.cern.ch/slc7_amd64_gcc12/cms/cmssw-patch/CMSSW_14_0_5_patch1/src/EventFilter/RPCRawToDigi/python/RPCCPPFRawToDigi_cfi.py
p1263
sg26
I4
sg27
g1216
sbsVrpcTwinMuxRawToDigi
p1264
g0
(g13
g2
Ntp1265
Rp1266
(dp1267
g17
VRPCTwinMuxRawToDigi
p1268
sg19
(lp1269
g1222
ag1223
ag1224
ag1245
ag1246
ag346
asg21
I00
sg22
Nsg1222
g0
(g52
g2
Ntp1270
Rp1271
(dp1272
g21
I00
sg49
I01
sg23
I00
sg56
g57
sg58
g59
sg60
g59
sbsg23
I00
sg1223
g0
(g71
g2
Ntp1273
Rp1274
(dp1275
g21
I00
sg49
I01
sg23
I00
sg50
I01
sbsg1224
g0
(g71
g2
Ntp1276
Rp1277
(dp1278
g21
I00
sg49
I01
sg23
I00
sg50
I01
sbsg1245
g0
(g75
g2
Ntp1279
Rp1280
(dp1281
g21
I00
sg49
I01
sg23
I00
sg50
I-2
sbsg1246
g0
(g75
g2
Ntp1282
Rp1283
(dp1284
g21
I00
sg49
I01
sg23
I00
sg50
I2
sbsg346
g0
(g424
g2
Ntp1285
Rp1286
(dp1287
g21
I00
sg49
I00
sg23
I00
sg428
g429
sg430
Nsbsg24
V/cvmfs/cms.cern.ch/slc7_amd64_gcc12/cms/cmssw-patch/CMSSW_14_0_5_patch1/cfipython/slc7_amd64_gcc12/EventFilter/RPCRawToDigi/rpcTwinMuxRawToDigi_cfi.py
p1288
sg26
I3
sg27
g1264
sbsVrpcunpacker
p1289
g0
(g13
g2
Ntp1290
Rp1291
(dp1292
g17
g1165
sg19
(lp1293
g35
ag1167
ag346
asg21
I00
sg22
Nsg35
g0
(g52
g2
Ntp1294
Rp1295
(dp1296
g21
I00
sg49
I01
sg23
I00
sg56
g57
sg58
g59
sg60
g59
sbsg23
I01
sg1167
g0
(g71
g2
Ntp1297
Rp1298
(dp1299
g21
I00
sg49
I01
sg23
I00
sg50
I01
sbsg346
g0
(g424
g2
Ntp1300
Rp1301
(dp1302
g21
I00
sg49
I00
sg23
I00
sg428
g429
sg430
Nsbsg24
V/cvmfs/cms.cern.ch/slc7_amd64_gcc12/cms/cmssw-patch/CMSSW_14_0_5_patch1/src/EventFilter/RPCRawToDigi/python/rpcUnpacker_cfi.py
p1303
sg26
I4
sg27
g1289
sbsVscalersRawToDigi
p1304
g0
(g13
g2
Ntp1305
Rp1306
(dp1307
g17
VScalersRawToDigi
p1308
sg19
(lp1309
VscalersInputTag
p1310
ag346
asg21
I00
sg22
Nsg1310
g0
(g52
g2
Ntp1311
Rp1312
(dp1313
g21
I00
sg49
I01
sg23
I01
sg56
g57
sg58
g59
sg60
g59
sbsg23
I01
sg346
g0
(g424
g2
Ntp1314
Rp1315
(dp1316
g21
I00
sg49
I00
sg23
I00
sg428
g429
sg430
Nsbsg24
V/cvmfs/cms.cern.ch/slc7_amd64_gcc12/cms/cmssw-patch/CMSSW_14_0_5_patch1/cfipython/slc7_amd64_gcc12/EventFilter/ScalersRawToDigi/scalersRawToDigi_cfi.py
p1317
sg26
I3
sg27
g1304
sbsVsiPixelDigiErrors
p1318
g0
(g13
g2
Ntp1319
Rp1320
(dp1321
g17
VSiPixelDigiErrorsFromSoA
p1322
sg19
(lp1323
VdigiErrorSoASrc
p1324
aVCablingMapLabel
p1325
aVUsePhase1
p1326
aVErrorList
p1327
aVUserErrorList
p1328
ag346
asg21
I00
sg22
Nsg1324
g0
(g52
g2
Ntp1329
Rp1330
(dp1331
g21
I00
sg49
I01
sg23
I00
sg56
VsiPixelDigiErrorsSoA
p1332
sg58
g59
sg60
g59
sbsg23
I00
sg1325
g0
(g45
g2
Ntp1333
Rp1334
(dp1335
g21
I00
sg49
I01
sg23
I00
sg50
g59
sbsg1326
g0
(g71
g2
Ntp1336
Rp1337
(dp1338
g21
I00
sg49
I01
sg23
I00
sg50
I00
sbsg1327
g0
(g61
g62
(lp1339
I29
atp1340
Rp1341
(dp1342
g21
I00
sg49
I01
sg23
I00
sbsg1328
g0
(g61
g62
(lp1343
I40
atp1344
Rp1345
(dp1346
g21
I00
sg49
I01
sg23
I00
sbsg346
g0
(g424
g2
Ntp1347
Rp1348
(dp1349
g21
I00
sg49
I00
sg23
I00
sg428
g429
sg430
Nsbsg24
V/cvmfs/cms.cern.ch/slc7_amd64_gcc12/cms/cmssw-patch/CMSSW_14_0_5_patch1/src/EventFilter/SiPixelRawToDigi/python/siPixelDigis_cff.py
p1350
sg26
I24
sg27
g1318
sbsg1332
g0
(g13
g2
Ntp1351
Rp1352
(dp1353
g17
VSiPixelDigiErrorsSoAFromCUDA
p1354
sg19
(lp1355
Vsrc
p1356
ag346
asg21
I00
sg22
Nsg1356
g0
(g52
g2
Ntp1357
Rp1358
(dp1359
g21
I00
sg49
I01
sg23
I01
sg56
VsiPixelClustersPreSplittingCUDA
p1360
sg58
g59
sg60
g59
sbsg23
I00
sg346
g0
(g424
g2
Ntp1361
Rp1362
(dp1363
g21
I00
sg49
I00
sg23
I00
sg428
g429
sg430
Nsbsg24
g1350
sg26
I18
sg27
g1332
sbsVsiPixelDigisSoA
p1364
g0
(g13
g2
Ntp1365
Rp1366
(dp1367
g17
VSiPixelDigisSoAFromCUDA
p1368
sg19
(lp1369
g1356
ag346
asg21
I00
sg22
Nsg1356
g0
(g52
g2
Ntp1370
Rp1371
(dp1372
g21
I00
sg49
I01
sg23
I01
sg56
g1360
sg58
g59
sg60
g59
sbsg23
I00
sg346
g0
(g424
g2
Ntp1373
Rp1374
(dp1375
g21
I00
sg49
I00
sg23
I00
sg428
g429
sg430
Nsbsg24
g1350
sg26
I12
sg27
g1364
sbsVsiStripDigis
p1376
g0
(g13
g2
Ntp1377
Rp1378
(dp1379
g17
VSiStripRawToDigiModule
p1380
sg19
(lp1381
VProductLabel
p1382
aVLegacyUnpacker
p1383
aVAppendedBytes
p1384
aVUseDaqRegister
p1385
aVUseFedKey
p1386
aVUnpackBadChannels
p1387
aVMarkModulesOnMissingFeds
p1388
aVTriggerFedId
p1389
aVUnpackCommonModeValues
p1390
aVDoAllCorruptBufferChecks
p1391
aVDoAPVEmulatorCheck
p1392
aVErrorThreshold
p1393
asg21
I00
sg22
Nsg1382
g0
(g52
g2
Ntp1394
Rp1395
(dp1396
g21
I00
sg49
I01
sg23
I00
sg56
g57
sg58
g59
sg60
g59
sbsg23
I00
sg1383
g0
(g71
g2
Ntp1397
Rp1398
(dp1399
g21
I00
sg49
I01
sg23
I00
sg50
I00
sbsg1384
g0
(g75
g2
Ntp1400
Rp1401
(dp1402
g21
I00
sg49
I01
sg23
I00
sg50
I0
sbsg1385
g0
(g71
g2
Ntp1403
Rp1404
(dp1405
g21
I00
sg49
I01
sg23
I00
sg50
I00
sbsg1386
g0
(g71
g2
Ntp1406
Rp1407
(dp1408
g21
I00
sg49
I01
sg23
I00
sg50
I00
sbsg1387
g0
(g71
g2
Ntp1409
Rp1410
(dp1411
g21
I00
sg49
I01
sg23
I00
sg50
I00
sbsg1388
g0
(g71
g2
Ntp1412
Rp1413
(dp1414
g21
I00
sg49
I01
sg23
I00
sg50
I01
sbsg1389
g0
(g75
g2
Ntp1415
Rp1416
(dp1417
g21
I00
sg49
I01
sg23
I00
sg50
I0
sbsg1390
g0
(g71
g2
Ntp1418
Rp1419
(dp1420
g21
I00
sg49
I01
sg23
I00
sg50
I00
sbsg1391
g0
(g71
g2
Ntp1421
Rp1422
(dp1423
g21
I00
sg49
I01
sg23
I00
sg50
I00
sbsg1392
g0
(g71
g2
Ntp1424
Rp1425
(dp1426
g21
I00
sg49
I01
sg23
I00
sg50
I00
sbsg1393
g0
(g67
g2
Ntp1427
Rp1428
(dp1429
g21
I00
sg49
I01
sg23
I00
sg50
I7174
sbsg24
V/cvmfs/cms.cern.ch/slc7_amd64_gcc12/cms/cmssw-patch/CMSSW_14_0_5_patch1/src/EventFilter/SiStripRawToDigi/python/SiStripDigis_cfi.py
p1430
sg26
I3
sg27
g1376
sbsVsimEcalTriggerPrimitiveDigis
p1431
g0
(g13
g2
Ntp1432
Rp1433
(dp1434
g17
VEcalTrigPrimProducer
p1435
sg19
(lp1436
VBarrelOnly
p1437
aVInstanceEB
p1438
aVInstanceEE
p1439
aVbinOfMaximum
p1440
aVFamos
p1441
aVTcpOutput
p1442
ag969
aVLabel
p1443
asg21
I00
sg22
Nsg1437
g0
(g71
g2
Ntp1444
Rp1445
(dp1446
g21
I00
sg49
I01
sg23
I00
sg50
I00
sbsg23
I00
sg1438
g0
(g45
g2
Ntp1447
Rp1448
(dp1449
g21
I00
sg49
I01
sg23
I00
sg50
g59
sbsg1439
g0
(g45
g2
Ntp1450
Rp1451
(dp1452
g21
I00
sg49
I01
sg23
I00
sg50
g59
sbsg1440
g0
(g75
g2
Ntp1453
Rp1454
(dp1455
g21
I00
sg49
I01
sg23
I00
sg50
I6
sbsg1441
g0
(g71
g2
Ntp1456
Rp1457
(dp1458
g21
I00
sg49
I01
sg23
I00
sg50
I00
sbsg1442
g0
(g71
g2
Ntp1459
Rp1460
(dp1461
g21
I00
sg49
I01
sg23
I00
sg50
I00
sbsg969
g0
(g71
g2
Ntp1462
Rp1463
(dp1464
g21
I00
sg49
I01
sg23
I00
sg50
I00
sbsg1443
g0
(g45
g2
Ntp1465
Rp1466
(dp1467
g21
I00
sg49
I01
sg23
I00
sg50
VsimEcalUnsuppressedDigis
p1468
sbsg24
V/cvmfs/cms.cern.ch/slc7_amd64_gcc12/cms/cmssw-patch/CMSSW_14_0_5_patch1/src/SimCalorimetry/EcalTrigPrimProducers/python/ecalTriggerPrimitiveDigis_cfi.py
p1469
sg26
I6
sg27
g1431
sbsVtcdsDigis
p1470
g0
(g13
g2
Ntp1471
Rp1472
(dp1473
g17
VTcdsRawToDigi
p1474
sg19
(lp1475
g35
ag346
asg21
I00
sg22
Nsg35
g0
(g52
g2
Ntp1476
Rp1477
(dp1478
g21
I00
sg49
I01
sg23
I00
sg56
g57
sg58
g59
sg60
g59
sbsg23
I00
sg346
g0
(g424
g2
Ntp1479
Rp1480
(dp1481
g21
I00
sg49
I00
sg23
I00
sg428
g429
sg430
Nsbsg24
g302
sg26
I39
sg27
g1470
sbsVtcdsRawToDigi
p1482
g0
(g13
g2
Ntp1483
Rp1484
(dp1485
g17
g1474
sg19
(lp1486
g35
ag346
asg21
I00
sg22
Nsg35
g0
(g52
g2
Ntp1487
Rp1488
(dp1489
g21
I00
sg49
I01
sg23
I00
sg56
g57
sg58
g59
sg60
g59
sbsg23
I00
sg346
g0
(g424
g2
Ntp1490
Rp1491
(dp1492
g21
I00
sg49
I00
sg23
I00
sg428
g429
sg430
Nsbsg24
V/cvmfs/cms.cern.ch/slc7_amd64_gcc12/cms/cmssw-patch/CMSSW_14_0_5_patch1/cfipython/slc7_amd64_gcc12/EventFilter/OnlineMetaDataRawToDigi/tcdsRawToDigi_cfi.py
p1493
sg26
I3
sg27
g1482
sbsVtotemRPRawToDigi
p1494
g0
(g13
g2
Ntp1495
Rp1496
(dp1497
g17
g339
sg19
(lp1498
g341
ag342
ag343
ag344
ag345
ag346
asg21
I00
sg22
Nsg341
g0
(g52
g2
Ntp1499
Rp1500
(dp1501
g21
I00
sg49
I01
sg23
I00
sg56
g57
sg58
g59
sg60
g59
sbsg23
I01
sg342
g0
(g45
g2
Ntp1502
Rp1503
(dp1504
g21
I00
sg49
I01
sg23
I01
sg50
VTrackingStrip
p1505
sbsg343
g0
(g354
g62
(lp1506
I578
aI580
aI584
aI585
atp1507
Rp1508
(dp1509
g21
I00
sg49
I01
sg23
I01
sbsg344
g0
(g359
g2
Ntp1510
Rp1511
(dp1512
g21
I00
sg49
I01
sg23
I00
sg19
(lp1513
g364
asg22
Nsg364
g0
(g67
g2
Ntp1514
Rp1515
(dp1516
g21
I00
sg49
I00
sg23
I00
sg50
I0
sbsbsg345
g0
(g359
g2
Ntp1517
Rp1518
(dp1519
g21
I00
sg49
I01
sg23
I00
sg19
(lp1520
g364
ag372
ag373
ag374
ag375
ag376
ag377
ag378
ag379
ag380
ag381
ag382
ag383
asg22
Nsg364
g0
(g67
g2
Ntp1521
Rp1522
(dp1523
g21
I00
sg49
I00
sg23
I00
sg50
I0
sbsg372
g0
(g67
g2
Ntp1524
Rp1525
(dp1526
g21
I00
sg49
I01
sg23
I00
sg50
I2
sbsg373
g0
(g67
g2
Ntp1527
Rp1528
(dp1529
g21
I00
sg49
I01
sg23
I00
sg50
I2
sbsg374
g0
(g67
g2
Ntp1530
Rp1531
(dp1532
g21
I00
sg49
I01
sg23
I00
sg50
I2
sbsg375
g0
(g67
g2
Ntp1533
Rp1534
(dp1535
g21
I00
sg49
I01
sg23
I00
sg50
I2
sbsg376
g0
(g67
g2
Ntp1536
Rp1537
(dp1538
g21
I00
sg49
I01
sg23
I00
sg50
I2
sbsg377
g0
(g67
g2
Ntp1539
Rp1540
(dp1541
g21
I00
sg49
I00
sg23
I00
sg50
I10
sbsg378
g0
(g67
g2
Ntp1542
Rp1543
(dp1544
g21
I00
sg49
I00
sg23
I00
sg50
I10
sbsg379
g0
(g408
g2
Ntp1545
Rp1546
(dp1547
g21
I00
sg49
I00
sg23
I00
sg50
F0.6
sbsg380
g0
(g408
g2
Ntp1548
Rp1549
(dp1550
g21
I00
sg49
I00
sg23
I00
sg50
F0.6
sbsg381
g0
(g71
g2
Ntp1551
Rp1552
(dp1553
g21
I00
sg49
I01
sg23
I00
sg50
I00
sbsg382
g0
(g71
g2
Ntp1554
Rp1555
(dp1556
g21
I00
sg49
I00
sg23
I00
sg50
I00
sbsg383
g0
(g71
g2
Ntp1557
Rp1558
(dp1559
g21
I00
sg49
I00
sg23
I00
sg50
I00
sbsbsg346
g0
(g424
g2
Ntp1560
Rp1561
(dp1562
g21
I00
sg49
I00
sg23
I00
sg428
g429
sg430
Nsbsg24
V/cvmfs/cms.cern.ch/slc7_amd64_gcc12/cms/cmssw-patch/CMSSW_14_0_5_patch1/src/EventFilter/CTPPSRawToDigi/python/totemRPRawToDigi_cfi.py
p1563
sg26
I9
sg27
g1494
sbsVtotemT2Digis
p1564
g0
(g13
g2
Ntp1565
Rp1566
(dp1567
g17
g339
sg19
(lp1568
g341
ag342
ag343
ag344
ag345
ag346
asg21
I00
sg22
Nsg341
g0
(g52
g2
Ntp1569
Rp1570
(dp1571
g21
I00
sg49
I01
sg23
I01
sg56
g57
sg58
g59
sg60
g59
sbsg23
I01
sg342
g0
(g45
g2
Ntp1572
Rp1573
(dp1574
g21
I00
sg49
I01
sg23
I01
sg50
VTotemT2
p1575
sbsg343
g0
(g354
g62
(lp1576
tp1577
Rp1578
(dp1579
g21
I00
sg49
I01
sg23
I00
sbsg344
g0
(g359
g2
Ntp1580
Rp1581
(dp1582
g21
I00
sg49
I01
sg23
I00
sg19
(lp1583
g364
asg22
Nsg364
g0
(g67
g2
Ntp1584
Rp1585
(dp1586
g21
I00
sg49
I00
sg23
I00
sg50
I0
sbsbsg345
g0
(g359
g2
Ntp1587
Rp1588
(dp1589
g21
I00
sg49
I01
sg23
I00
sg19
(lp1590
g364
ag372
ag373
ag374
ag375
ag376
ag377
ag378
ag379
ag380
ag381
ag382
ag383
asg22
Nsg364
g0
(g67
g2
Ntp1591
Rp1592
(dp1593
g21
I00
sg49
I00
sg23
I00
sg50
I0
sbsg372
g0
(g67
g2
Ntp1594
Rp1595
(dp1596
g21
I00
sg49
I01
sg23
I00
sg50
I2
sbsg373
g0
(g67
g2
Ntp1597
Rp1598
(dp1599
g21
I00
sg49
I01
sg23
I01
sg50
I0
sbsg374
g0
(g67
g2
Ntp1600
Rp1601
(dp1602
g21
I00
sg49
I01
sg23
I01
sg50
I0
sbsg375
g0
(g67
g2
Ntp1603
Rp1604
(dp1605
g21
I00
sg49
I01
sg23
I01
sg50
I0
sbsg376
g0
(g67
g2
Ntp1606
Rp1607
(dp1608
g21
I00
sg49
I01
sg23
I01
sg50
I0
sbsg377
g0
(g67
g2
Ntp1609
Rp1610
(dp1611
g21
I00
sg49
I00
sg23
I00
sg50
I10
sbsg378
g0
(g67
g2
Ntp1612
Rp1613
(dp1614
g21
I00
sg49
I00
sg23
I00
sg50
I10
sbsg379
g0
(g408
g2
Ntp1615
Rp1616
(dp1617
g21
I00
sg49
I00
sg23
I00
sg50
F0.6
sbsg380
g0
(g408
g2
Ntp1618
Rp1619
(dp1620
g21
I00
sg49
I00
sg23
I00
sg50
F0.6
sbsg381
g0
(g71
g2
Ntp1621
Rp1622
(dp1623
g21
I00
sg49
I01
sg23
I00
sg50
I00
sbsg382
g0
(g71
g2
Ntp1624
Rp1625
(dp1626
g21
I00
sg49
I00
sg23
I00
sg50
I00
sbsg383
g0
(g71
g2
Ntp1627
Rp1628
(dp1629
g21
I00
sg49
I00
sg23
I00
sg50
I00
sbsbsg346
g0
(g424
g2
Ntp1630
Rp1631
(dp1632
g21
I00
sg49
I00
sg23
I00
sg428
g429
sg430
Nsbsg24
V/cvmfs/cms.cern.ch/slc7_amd64_gcc12/cms/cmssw-patch/CMSSW_14_0_5_patch1/src/EventFilter/CTPPSRawToDigi/python/totemT2Digis_cfi.py
p1633
sg26
I5
sg27
g1564
sbsVtotemTimingRawToDigi
p1634
g0
(g13
g2
Ntp1635
Rp1636
(dp1637
g17
g339
sg19
(lp1638
g341
ag342
ag343
ag344
ag345
ag346
asg21
I00
sg22
Nsg341
g0
(g52
g2
Ntp1639
Rp1640
(dp1641
g21
I00
sg49
I01
sg23
I01
sg56
g57
sg58
g59
sg60
g59
sbsg23
I01
sg342
g0
(g45
g2
Ntp1642
Rp1643
(dp1644
g21
I00
sg49
I01
sg23
I01
sg50
VTotemTiming
p1645
sbsg343
g0
(g354
g62
(lp1646
I586
aI587
atp1647
Rp1648
(dp1649
g21
I00
sg49
I01
sg23
I01
sbsg344
g0
(g359
g2
Ntp1650
Rp1651
(dp1652
g21
I00
sg49
I01
sg23
I00
sg19
(lp1653
g364
asg22
Nsg364
g0
(g67
g2
Ntp1654
Rp1655
(dp1656
g21
I00
sg49
I00
sg23
I00
sg50
I0
sbsbsg345
g0
(g359
g2
Ntp1657
Rp1658
(dp1659
g21
I00
sg49
I01
sg23
I01
sg19
(lp1660
g364
ag372
ag373
ag374
ag375
ag376
ag377
ag378
ag379
ag380
ag381
ag382
ag383
asg22
Nsg364
g0
(g67
g2
Ntp1661
Rp1662
(dp1663
g21
I00
sg49
I00
sg23
I00
sg50
I0
sbsg372
g0
(g67
g2
Ntp1664
Rp1665
(dp1666
g21
I00
sg49
I01
sg23
I01
sg50
I0
sbsg373
g0
(g67
g2
Ntp1667
Rp1668
(dp1669
g21
I00
sg49
I01
sg23
I01
sg50
I0
sbsg374
g0
(g67
g2
Ntp1670
Rp1671
(dp1672
g21
I00
sg49
I01
sg23
I01
sg50
I0
sbsg375
g0
(g67
g2
Ntp1673
Rp1674
(dp1675
g21
I00
sg49
I01
sg23
I01
sg50
I0
sbsg376
g0
(g67
g2
Ntp1676
Rp1677
(dp1678
g21
I00
sg49
I01
sg23
I01
sg50
I0
sbsg377
g0
(g67
g2
Ntp1679
Rp1680
(dp1681
g21
I00
sg49
I00
sg23
I00
sg50
I10
sbsg378
g0
(g67
g2
Ntp1682
Rp1683
(dp1684
g21
I00
sg49
I00
sg23
I00
sg50
I10
sbsg379
g0
(g408
g2
Ntp1685
Rp1686
(dp1687
g21
I00
sg49
I00
sg23
I00
sg50
F0.6
sbsg380
g0
(g408
g2
Ntp1688
Rp1689
(dp1690
g21
I00
sg49
I00
sg23
I00
sg50
F0.6
sbsg381
g0
(g71
g2
Ntp1691
Rp1692
(dp1693
g21
I00
sg49
I01
sg23
I00
sg50
I00
sbsg382
g0
(g71
g2
Ntp1694
Rp1695
(dp1696
g21
I00
sg49
I00
sg23
I00
sg50
I00
sbsg383
g0
(g71
g2
Ntp1697
Rp1698
(dp1699
g21
I00
sg49
I00
sg23
I00
sg50
I00
sbsbsg346
g0
(g424
g2
Ntp1700
Rp1701
(dp1702
g21
I00
sg49
I00
sg23
I00
sg428
g429
sg430
Nsbsg24
V/cvmfs/cms.cern.ch/slc7_amd64_gcc12/cms/cmssw-patch/CMSSW_14_0_5_patch1/src/EventFilter/CTPPSRawToDigi/python/totemTimingRawToDigi_cfi.py
p1703
sg26
I9
sg27
g1634
sbsVtwinMuxStage2Digis
p1704
g0
(g13
g2
Ntp1705
Rp1706
(dp1707
g17
VL1TTwinMuxRawToDigi
p1708
sg19
(lp1709
VDTTM7_FED_Source
p1710
aVfeds
p1711
aVwheels
p1712
aVamcsecmap
p1713
ag100
asg21
I00
sg22
Nsg1710
g0
(g52
g2
Ntp1714
Rp1715
(dp1716
g21
I00
sg49
I01
sg23
I00
sg56
g57
sg58
g59
sg60
g59
sbsg23
I00
sg1711
g0
(g61
g62
(lp1717
I1395
aI1391
aI1390
aI1393
aI1394
atp1718
Rp1719
(dp1720
g21
I00
sg49
I00
sg23
I00
sbsg1712
g0
(g61
g62
(lp1721
I-2
aI-1
aI0
aI1
aI2
atp1722
Rp1723
(dp1724
g21
I00
sg49
I00
sg23
I00
sbsg1713
g0
(cFWCore.ParameterSet.Types
vint64
p1725
g62
(lp1726
L20015998343868L
aL20015998343868L
aL20015998343868L
aL20015998343868L
aL20015998343868L
atp1727
Rp1728
(dp1729
g21
I00
sg49
I00
sg23
I00
sbsg100
g0
(g71
g2
Ntp1730
Rp1731
(dp1732
g21
I00
sg49
I00
sg23
I00
sg50
I00
sbsg24
V/cvmfs/cms.cern.ch/slc7_amd64_gcc12/cms/cmssw-patch/CMSSW_14_0_5_patch1/src/EventFilter/L1TXRawToDigi/python/twinMuxStage2Digis_cfi.py
p1733
sg26
I3
sg27
g1704
sbssV_Process__switchproducers
p1734
(dp1735
VecalDigis
p1736
g0
(cHeterogeneousCore.CUDACore.SwitchProducerCUDA
SwitchProducerCUDA
p1737
g2
Ntp1738
Rp1739
(dp1740
g17
Nsg19
(lp1741
Vcpu
p1742
asg21
I00
sg22
Nsg23
I00
sg24
V/cvmfs/cms.cern.ch/slc7_amd64_gcc12/cms/cmssw-patch/CMSSW_14_0_5_patch1/src/FWCore/ParameterSet/python/Modules.py
p1743
sg26
I250
sV_caseFunctionDict
p1744
(dp1745
g1742
cFWCore.ParameterSet.Modules
_switch_cpu
p1746
sVcuda
p1747
cHeterogeneousCore.CUDACore.SwitchProducerCUDA
_switch_cuda
p1748
ssg1742
g475
sg27
g1736
sbsVsiPixelDigis
p1749
g0
(g1737
g2
Ntp1750
Rp1751
(dp1752
g17
Nsg19
(lp1753
g1742
asg21
I00
sg22
Nsg23
I00
sg24
g1743
sg26
I250
sg1744
(dp1754
g1742
g1746
sg1747
g1748
ssg1742
g0
(g13
g2
Ntp1755
Rp1756
(dp1757
g17
VSiPixelRawToDigi
p1758
sg19
(lp1759
VIncludeErrors
p1760
aVUseQualityInfo
p1761
ag1327
ag1328
ag35
aVRegions
p1762
aVUsePilotBlade
p1763
ag1326
ag1325
aVSiPixelQualityLabel
p1764
ag346
asg21
I00
sg22
Nsg1760
g0
(g71
g2
Ntp1765
Rp1766
(dp1767
g21
I00
sg49
I01
sg23
I00
sg50
I01
sbsg23
I01
sg1761
g0
(g71
g2
Ntp1768
Rp1769
(dp1770
g21
I00
sg49
I01
sg23
I00
sg50
I00
sbsg1327
g0
(g61
g62
(lp1771
I29
atp1772
Rp1773
(dp1774
g21
I00
sg49
I01
sg23
I00
sbsg1328
g0
(g61
g62
(lp1775
I40
atp1776
Rp1777
(dp1778
g21
I00
sg49
I01
sg23
I00
sbsg35
g0
(g52
g2
Ntp1779
Rp1780
(dp1781
g21
I00
sg49
I01
sg23
I01
sg56
g57
sg58
g59
sg60
g59
sbsg1762
g0
(g359
g2
Ntp1782
Rp1783
(dp1784
g21
I00
sg49
I01
sg23
I00
sg19
(lp1785
Vinputs
p1786
aVdeltaPhi
p1787
aVmaxZ
p1788
aVbeamSpot
p1789
asg22
Nsg1786
g0
(g424
g2
Ntp1790
Rp1791
(dp1792
g21
I00
sg49
I01
sg23
I00
sg428
cFWCore.ParameterSet.Types
VInputTag
p1793
sg430
Nsbsg1787
g0
(g424
g2
Ntp1794
Rp1795
(dp1796
g21
I00
sg49
I01
sg23
I00
sg428
cFWCore.ParameterSet.Types
vdouble
p1797
sg430
Nsbsg1788
g0
(g424
g2
Ntp1798
Rp1799
(dp1800
g21
I00
sg49
I01
sg23
I00
sg428
g1797
sg430
Nsbsg1789
g0
(g424
g2
Ntp1801
Rp1802
(dp1803
g21
I00
sg49
I01
sg23
I00
sg428
g52
sg430
Nsbsbsg1763
g0
(g71
g2
Ntp1804
Rp1805
(dp1806
g21
I00
sg49
I01
sg23
I00
sg50
I00
sbsg1326
g0
(g71
g2
Ntp1807
Rp1808
(dp1809
g21
I00
sg49
I01
sg23
I00
sg50
I00
sbsg1325
g0
(g45
g2
Ntp1810
Rp1811
(dp1812
g21
I00
sg49
I01
sg23
I00
sg50
g59
sbsg1764
g0
(g45
g2
Ntp1813
Rp1814
(dp1815
g21
I00
sg49
I01
sg23
I00
sg50
g59
sbsg346
g0
(g424
g2
Ntp1816
Rp1817
(dp1818
g21
I00
sg49
I00
sg23
I00
sg428
g429
sg430
Nsbsg24
V/cvmfs/cms.cern.ch/slc7_amd64_gcc12/cms/cmssw-patch/CMSSW_14_0_5_patch1/src/EventFilter/SiPixelRawToDigi/python/SiPixelRawToDigi_cfi.py
p1819
sg26
I8
sg27
VsiPixelDigis@cpu
p1820
sbsg27
g1749
sbssV_Process__source
p1821
g0
(cFWCore.ParameterSet.Modules
Source
p1822
g2
Ntp1823
Rp1824
(dp1825
g17
VPoolSource
p1826
sg19
(lp1827
VfileNames
p1828
asg21
I00
sg22
Nsg1828
g0
(g429
g62
(lp1829
V/store/data/Run2024C/ZeroBias/AOD/PromptReco-v1/000/380/115/00000/132c0550-308e-43c3-b099-3d34a6c33b5c.root
p1830
atp1831
Rp1832
(dp1833
g21
I00
sg49
I00
sg23
I00
sg887
I1
sbsg23
I00
sg24
g1743
sg26
I195
sbsV_Process__looper
p1834
NsV_Process__subProcesses
p1835
(lp1836
sV_Process__schedule
p1837
NsV_Process__analyzers
p1838
(dp1839
Vdemo
p1840
g0
(cFWCore.ParameterSet.Modules
EDAnalyzer
p1841
g2
Ntp1842
Rp1843
(dp1844
g17
VRPCNtuplizer
p1845
sg19
(lp1846
VrpcRecHits_tag
p1847
aVscalersResults
p1848
aVnoisy
p1849
asg21
I00
sg22
Nsg1847
g0
(g52
g2
Ntp1850
Rp1851
(dp1852
g21
I00
sg49
I00
sg23
I00
sg56
VrpcRecHits
p1853
sg58
g59
sg60
g59
sbsg23
I00
sg1848
g0
(g52
g2
Ntp1854
Rp1855
(dp1856
g21
I00
sg49
I01
sg23
I00
sg56
g1191
sg58
g59
sg60
g59
sbsg1849
g0
(g45
g2
Ntp1857
Rp1858
(dp1859
g21
I00
sg49
I01
sg23
I00
sg50
VAll_Dead_and_Noisy_strips_ID.txt
p1860
sbsg24
V/afs/cern.ch/user/l/lfavilla/CMSSW_14_0_5_patch1/src/DPGAnalysis/RateVsLumi/crab/ConfFile_RPCNtuplizer.py
p1861
sg26
I28
sg27
g1840
sbssV_Process__outputmodules
p1862
(dp1863
sV_Process__paths
p1864
g0
(cFWCore.ParameterSet.DictTypes
SortedKeysDict
p1865
c__builtin__
dict
p1866
(dp1867
Vp
p1868
g0
(cFWCore.ParameterSet.SequenceTypes
Path
p1869
g2
Ntp1870
Rp1871
(dp1872
g21
I00
sV_seq
p1873
g0
(cFWCore.ParameterSet.SequenceTypes
_SequenceCollection
p1874
g2
Ntp1875
Rp1876
(dp1877
V_collection
p1878
(lp1879
g1843
asbsg23
I00
sV_tasks
p1880
g0
(cFWCore.ParameterSet.OrderedSet
OrderedSet
p1881
g2
Ntp1882
Rp1883
(dp1884
Vend
p1885
(lp1886
Nag1886
ag1886
asVmap
p1887
(dp1888
sbsg27
g1868
sbstp1889
Rp1890
(dp1891
Vlist
p1892
(lp1893
g1868
asbsV_Process__endpaths
p1894
g0
(g1865
g1866
(dp1895
tp1896
Rp1897
(dp1898
g1892
(lp1899
sbsV_Process__finalpaths
p1900
g0
(g1865
g1866
(dp1901
tp1902
Rp1903
(dp1904
g1892
(lp1905
sbsV_Process__sequences
p1906
(dp1907
g32
g0
(cFWCore.ParameterSet.SequenceTypes
Sequence
p1908
g2
Ntp1909
Rp1910
(dp1911
g21
I00
sg1873
Nsg23
I00
sg1880
g0
(g1881
g2
Ntp1912
Rp1913
(dp1914
g1885
(lp1915
Na(lp1916
g0
(cFWCore.ParameterSet.SequenceTypes
Task
p1917
g2
Ntp1918
Rp1919
(dp1920
g1878
g0
(g1881
g2
Ntp1921
Rp1922
(dp1923
g1885
(lp1924
Na(lp1925
g0
(g1917
g2
Ntp1926
Rp1927
(dp1928
g1878
g0
(g1881
g2
Ntp1929
Rp1930
(dp1931
g1885
(lp1932
Na(lp1933
g777
a(lp1934
g748
a(lp1935
g688
a(lp1936
g461
a(lp1937
g305
ag1932
ag1936
aag1935
aag1934
aag1933
aag1932
aag1937
asg1887
(dp1938
g305
g1937
sg461
g1936
sg688
g1935
sg748
g1934
sg777
g1933
ssbsg27
VL1TRawToDigi_Legacy
p1939
sbag1924
ag1924
aag1925
asg1887
(dp1940
g1927
g1925
ssbsg27
VL1TRawToDigiTask
p1941
sbag1915
ag1915
aag1916
asg1887
(dp1942
g1919
g1916
ssbsg27
g32
sbsg345
g0
(g1908
g2
Ntp1943
Rp1944
(dp1945
g21
I00
sg1873
Nsg23
I00
sg1880
g0
(g1881
g2
Ntp1946
Rp1947
(dp1948
g1885
(lp1949
Na(lp1950
g0
(g1917
g2
Ntp1951
Rp1952
(dp1953
g1878
g0
(g1881
g2
Ntp1954
Rp1955
(dp1956
g1885
(lp1957
Na(lp1958
g1193
a(lp1959
g1472
a(lp1960
g1306
a(lp1961
g238
a(lp1962
g1163
a(lp1963
g1048
a(lp1964
g955
a(lp1965
g835
a(lp1966
g630
a(lp1967
g0
(g1917
g2
Ntp1968
Rp1969
(dp1970
g1878
g0
(g1881
g2
Ntp1971
Rp1972
(dp1973
g1885
(lp1974
Na(lp1975
g1739
ag1974
ag1974
aag1975
asg1887
(dp1976
g1739
g1975
ssbsg27
VecalDigisTask
p1977
sba(lp1978
g1378
a(lp1979
g0
(g1917
g2
Ntp1980
Rp1981
(dp1982
g1878
g0
(g1881
g2
Ntp1983
Rp1984
(dp1985
g1885
(lp1986
Na(lp1987
g1751
ag1986
ag1986
aag1987
asg1887
(dp1988
g1751
g1987
ssbsg27
VsiPixelDigisTask
p1989
sba(lp1990
g1919
ag1957
ag1979
aag1978
aag1967
aag1966
aag1965
aag1964
aag1963
aag1962
aag1961
aag1960
aag1959
aag1958
aag1957
aag1990
asg1887
(dp1991
g1919
g1990
sg1981
g1979
sg1378
g1978
sg1969
g1967
sg630
g1966
sg835
g1965
sg955
g1964
sg1048
g1963
sg1163
g1962
sg238
g1961
sg1306
g1960
sg1472
g1959
sg1193
g1958
ssbsg27
VRawToDigiTask
p1992
sbag1949
ag1949
aag1950
asg1887
(dp1993
g1952
g1950
ssbsg27
g345
sbsVRawToDigi_ecalOnly
p1994
g0
(g1908
g2
Ntp1995
Rp1996
(dp1997
g21
I00
sg1873
Nsg23
I00
sg1880
g0
(g1881
g2
Ntp1998
Rp1999
(dp2000
g1885
(lp2001
Na(lp2002
g0
(g1917
g2
Ntp2003
Rp2004
(dp2005
g1878
g0
(g1881
g2
Ntp2006
Rp2007
(dp2008
g1885
(lp2009
Na(lp2010
g1306
a(lp2011
g630
a(lp2012
g1969
ag2009
ag2011
aag2010
aag2009
aag2012
asg1887
(dp2013
g1969
g2012
sg630
g2011
sg1306
g2010
ssbsg27
VRawToDigiTask_ecalOnly
p2014
sbag2001
ag2001
aag2002
asg1887
(dp2015
g2004
g2002
ssbsg27
g1994
sbsVRawToDigi_hcalOnly
p2016
g0
(g1908
g2
Ntp2017
Rp2018
(dp2019
g21
I00
sg1873
Nsg23
I00
sg1880
g0
(g1881
g2
Ntp2020
Rp2021
(dp2022
g1885
(lp2023
Na(lp2024
g0
(g1917
g2
Ntp2025
Rp2026
(dp2027
g1878
g0
(g1881
g2
Ntp2028
Rp2029
(dp2030
g1885
(lp2031
Na(lp2032
g835
ag2031
ag2031
aag2032
asg1887
(dp2033
g835
g2032
ssbsg27
VRawToDigiTask_hcalOnly
p2034
sbag2023
ag2023
aag2024
asg1887
(dp2035
g2026
g2024
ssbsg27
g2016
sbsVRawToDigi_noTk
p2036
g0
(g1908
g2
Ntp2037
Rp2038
(dp2039
g21
I00
sg1873
Nsg23
I00
sg1880
g0
(g1881
g2
Ntp2040
Rp2041
(dp2042
g1885
(lp2043
Na(lp2044
g0
(g1917
g2
Ntp2045
Rp2046
(dp2047
g1878
g0
(g1881
g2
Ntp2048
Rp2049
(dp2050
g1885
(lp2051
Na(lp2052
g1193
a(lp2053
g1472
a(lp2054
g1306
a(lp2055
g238
a(lp2056
g1163
a(lp2057
g1048
a(lp2058
g955
a(lp2059
g835
a(lp2060
g630
a(lp2061
g1969
a(lp2062
g1919
ag2051
ag2061
aag2060
aag2059
aag2058
aag2057
aag2056
aag2055
aag2054
aag2053
aag2052
aag2051
aag2062
asg1887
(dp2063
g1919
g2062
sg1969
g2061
sg630
g2060
sg835
g2059
sg955
g2058
sg1048
g2057
sg1163
g2056
sg238
g2055
sg1306
g2054
sg1472
g2053
sg1193
g2052
ssbsg27
VRawToDigiTask_noTk
p2064
sbag2043
ag2043
aag2044
asg1887
(dp2065
g2046
g2044
ssbsg27
g2036
sbsVRawToDigi_pixelOnly
p2066
g0
(g1908
g2
Ntp2067
Rp2068
(dp2069
g21
I00
sg1873
Nsg23
I00
sg1880
g0
(g1881
g2
Ntp2070
Rp2071
(dp2072
g1885
(lp2073
Na(lp2074
g0
(g1917
g2
Ntp2075
Rp2076
(dp2077
g1878
g0
(g1881
g2
Ntp2078
Rp2079
(dp2080
g1885
(lp2081
Na(lp2082
g1306
a(lp2083
g1981
ag2081
ag2082
aag2081
aag2083
asg1887
(dp2084
g1981
g2083
sg1306
g2082
ssbsg27
VRawToDigiTask_pixelOnly
p2085
sbag2073
ag2073
aag2074
asg1887
(dp2086
g2076
g2074
ssbsg27
g2066
sbsVctppsRawToDigi
p2087
g0
(g1908
g2
Ntp2088
Rp2089
(dp2090
g21
I00
sg1873
Nsg23
I00
sg1880
g0
(g1881
g2
Ntp2091
Rp2092
(dp2093
g1885
(lp2094
Na(lp2095
g0
(g1917
g2
Ntp2096
Rp2097
(dp2098
g1878
g0
(g1881
g2
Ntp2099
Rp2100
(dp2101
g1885
(lp2102
Na(lp2103
g434
a(lp2104
g1566
a(lp2105
g1636
a(lp2106
g337
a(lp2107
g1496
ag2102
ag2106
aag2105
aag2104
aag2103
aag2102
aag2107
asg1887
(dp2108
g1496
g2107
sg337
g2106
sg1636
g2105
sg1566
g2104
sg434
g2103
ssbsg27
VctppsRawToDigiTask
p2109
sbag2094
ag2094
aag2095
asg1887
(dp2110
g2097
g2095
ssbsg27
g2087
sbssV_Process__tasks
p2111
(dp2112
g1941
g1919
sg1939
g1927
sVL1TRawToDigi_Stage1
p2113
g0
(g1917
g2
Ntp2114
Rp2115
(dp2116
g1878
g0
(g1881
g2
Ntp2117
Rp2118
(dp2119
g1885
(lp2120
Na(lp2121
g688
a(lp2122
g181
a(lp2123
g142
a(lp2124
g125
a(lp2125
g748
a(lp2126
g461
a(lp2127
g305
ag2120
ag2126
aag2125
aag2124
aag2123
aag2122
aag2121
aag2120
aag2127
asg1887
(dp2128
g305
g2127
sg461
g2126
sg748
g2125
sg125
g2124
sg142
g2123
sg181
g2122
sg688
g2121
ssbsg27
g2113
sbsVL1TRawToDigi_Stage2
p2129
g0
(g1917
g2
Ntp2130
Rp2131
(dp2132
g1878
g0
(g1881
g2
Ntp2133
Rp2134
(dp2135
g1885
(lp2136
Na(lp2137
g818
a(lp2138
g801
a(lp2139
g731
a(lp2140
g211
a(lp2141
g97
a(lp2142
g661
a(lp2143
g1218
a(lp2144
g1179
a(lp2145
g30
a(lp2146
g1706
a(lp2147
g1266
a(lp2148
g1291
ag2136
ag2147
aag2146
aag2145
aag2144
aag2143
aag2142
aag2141
aag2140
aag2139
aag2138
aag2137
aag2136
aag2148
asg1887
(dp2149
g1291
g2148
sg1266
g2147
sg1706
g2146
sg30
g2145
sg1179
g2144
sg1218
g2143
sg661
g2142
sg97
g2141
sg211
g2140
sg731
g2139
sg801
g2138
sg818
g2137
ssbsg27
g2129
sbsg1992
g1952
sg2014
g2004
sg2034
g2026
sg2064
g2046
sg2085
g2076
sg2109
g2097
sg1977
g1969
sg1989
g1981
ssV_Process__conditionaltasks
p2150
(dp2151
sV_Process__services
p2152
(dp2153
VMessageLogger
p2154
g0
(cFWCore.ParameterSet.Modules
Service
p2155
g2
Ntp2156
Rp2157
(dp2158
g17
g2154
sg19
(lp2159
VsuppressWarning
p2160
aVsuppressFwkInfo
p2161
aVsuppressInfo
p2162
aVsuppressDebug
p2163
aVdebugModules
p2164
aVcout
p2165
aVdefault
p2166
aVcerr
p2167
aVfiles
p2168
asg21
I00
sg22
g0
(g424
g2
Ntp2169
Rp2170
(dp2171
g21
I00
sg49
I00
sg23
I00
sg428
g0
(cFWCore.ParameterSet.Types
_PSetTemplate
p2172
g2
Ntp2173
Rp2174
(dp2175
V_pset
p2176
g0
(g359
g2
Ntp2177
Rp2178
(dp2179
g21
I00
sg49
I01
sg23
I00
sg19
(lp2180
VreportEvery
p2181
aVlimit
p2182
aVtimespan
p2183
asg22
Nsg2181
g0
(g75
g2
Ntp2184
Rp2185
(dp2186
g21
I00
sg49
I00
sg23
I00
sg50
I1
sbsg2182
g0
(g424
g2
Ntp2187
Rp2188
(dp2189
g21
I00
sg49
I00
sg23
I00
sg428
g75
sg430
Nsbsg2183
g0
(g424
g2
Ntp2190
Rp2191
(dp2192
g21
I00
sg49
I00
sg23
I00
sg428
g75
sg430
NsbsbsV_PSetTemplate__value
p2193
Nsbsg430
Nsbsg2160
g0
(g429
g62
(lp2194
tp2195
Rp2196
(dp2197
g21
I00
sg49
I00
sg23
I00
sg887
I1
sbsg23
I01
sg2161
g0
(g429
g62
(lp2198
tp2199
Rp2200
(dp2201
g21
I00
sg49
I00
sg23
I00
sg887
I1
sbsg2162
g0
(g429
g62
(lp2202
tp2203
Rp2204
(dp2205
g21
I00
sg49
I00
sg23
I00
sg887
I1
sbsg2163
g0
(g429
g62
(lp2206
tp2207
Rp2208
(dp2209
g21
I00
sg49
I00
sg23
I00
sg887
I1
sbsg2164
g0
(g429
g62
(lp2210
tp2211
Rp2212
(dp2213
g21
I00
sg49
I00
sg23
I00
sg887
I1
sbsg2165
g0
(g359
g2
Ntp2214
Rp2215
(dp2216
g21
I00
sg49
I00
sg23
I00
sg19
(lp2217
VnoLineBreaks
p2218
aVnoTimeStamps
p2219
aVlineLength
p2220
aVthreshold
p2221
aVstatisticsThreshold
p2222
aVenableStatistics
p2223
aVresetStatistics
p2224
aVenable
p2225
asg22
g2170
sg2218
g0
(g424
g2
Ntp2226
Rp2227
(dp2228
g21
I00
sg49
I00
sg23
I00
sg428
g71
sg430
Nsbsg2219
g0
(g424
g2
Ntp2229
Rp2230
(dp2231
g21
I00
sg49
I00
sg23
I00
sg428
g71
sg430
Nsbsg2220
g0
(g424
g2
Ntp2232
Rp2233
(dp2234
g21
I00
sg49
I00
sg23
I00
sg428
g75
sg430
Nsbsg2221
g0
(g424
g2
Ntp2235
Rp2236
(dp2237
g21
I00
sg49
I00
sg23
I00
sg428
g45
sg430
Nsbsg2222
g0
(g424
g2
Ntp2238
Rp2239
(dp2240
g21
I00
sg49
I00
sg23
I00
sg428
g45
sg430
Nsbsg2223
g0
(g71
g2
Ntp2241
Rp2242
(dp2243
g21
I00
sg49
I00
sg23
I00
sg50
I00
sbsg2224
g0
(g71
g2
Ntp2244
Rp2245
(dp2246
g21
I00
sg49
I00
sg23
I00
sg50
I00
sbsg2225
g0
(g71
g2
Ntp2247
Rp2248
(dp2249
g21
I00
sg49
I00
sg23
I00
sg50
I00
sbsbsg2166
g0
(g359
g2
Ntp2250
Rp2251
(dp2252
g21
I00
sg49
I00
sg23
I00
sg19
(lp2253
g2181
ag2182
ag2183
ag2218
ag2219
ag2220
ag2221
ag2222
asg22
g2170
sg2181
g0
(g75
g2
Ntp2254
Rp2255
(dp2256
g21
I00
sg49
I00
sg23
I00
sg50
I1
sbsg2182
g0
(g424
g2
Ntp2257
Rp2258
(dp2259
g21
I00
sg49
I00
sg23
I00
sg428
g75
sg430
Nsbsg2183
g0
(g424
g2
Ntp2260
Rp2261
(dp2262
g21
I00
sg49
I00
sg23
I00
sg428
g75
sg430
Nsbsg2218
g0
(g71
g2
Ntp2263
Rp2264
(dp2265
g21
I00
sg49
I00
sg23
I00
sg50
I00
sbsg2219
g0
(g71
g2
Ntp2266
Rp2267
(dp2268
g21
I00
sg49
I00
sg23
I00
sg50
I00
sbsg2220
g0
(g75
g2
Ntp2269
Rp2270
(dp2271
g21
I00
sg49
I00
sg23
I00
sg50
I80
sbsg2221
g0
(g45
g2
Ntp2272
Rp2273
(dp2274
g21
I00
sg49
I00
sg23
I00
sg50
VINFO
p2275
sbsg2222
g0
(g45
g2
Ntp2276
Rp2277
(dp2278
g21
I00
sg49
I00
sg23
I00
sg50
g2275
sbsbsg2167
g0
(g359
g2
Ntp2279
Rp2280
(dp2281
g21
I00
sg49
I00
sg23
I01
sg19
(lp2282
g2218
ag2219
ag2220
ag2221
ag2222
ag2225
ag2223
ag2224
ag2275
aVFwkReport
p2283
ag2166
aVRoot_NoDictionary
p2284
aVFwkSummary
p2285
asg22
g2170
sg2218
g0
(g424
g2
Ntp2286
Rp2287
(dp2288
g21
I00
sg49
I00
sg23
I00
sg428
g71
sg430
Nsbsg2219
g0
(g71
g2
Ntp2289
Rp2290
(dp2291
g21
I00
sg49
I00
sg23
I00
sg50
I00
sbsg2220
g0
(g424
g2
Ntp2292
Rp2293
(dp2294
g21
I00
sg49
I00
sg23
I00
sg428
g75
sg430
Nsbsg2221
g0
(g45
g2
Ntp2295
Rp2296
(dp2297
g21
I00
sg49
I00
sg23
I00
sg50
VDEBUG
p2298
sbsg2222
g0
(g45
g2
Ntp2299
Rp2300
(dp2301
g21
I00
sg49
I00
sg23
I00
sg50
VWARNING
p2302
sbsg2225
g0
(g71
g2
Ntp2303
Rp2304
(dp2305
g21
I00
sg49
I00
sg23
I00
sg50
I01
sbsg2223
g0
(g71
g2
Ntp2306
Rp2307
(dp2308
g21
I00
sg49
I00
sg23
I00
sg50
I00
sbsg2224
g0
(g71
g2
Ntp2309
Rp2310
(dp2311
g21
I00
sg49
I00
sg23
I00
sg50
I00
sbsg2275
g0
(g359
g2
Ntp2312
Rp2313
(dp2314
g21
I00
sg49
I00
sg23
I00
sg19
(lp2315
g2182
asg22
Nsg2182
g0
(g75
g2
Ntp2316
Rp2317
(dp2318
g21
I00
sg49
I00
sg23
I00
sg50
I0
sbsbsg2283
g0
(g359
g2
Ntp2319
Rp2320
(dp2321
g21
I00
sg49
I00
sg23
I01
sg19
(lp2322
g2181
ag2182
asg22
Nsg2181
g0
(g75
g2
Ntp2323
Rp2324
(dp2325
g21
I00
sg49
I00
sg23
I00
sg50
I1
sbsg2182
g0
(g75
g2
Ntp2326
Rp2327
(dp2328
g21
I00
sg49
I00
sg23
I00
sg50
I10000000
sbsbsg2166
g0
(g359
g2
Ntp2329
Rp2330
(dp2331
g21
I00
sg49
I00
sg23
I00
sg19
(lp2332
g2182
asg22
Nsg2182
g0
(g75
g2
Ntp2333
Rp2334
(dp2335
g21
I00
sg49
I00
sg23
I00
sg50
I10000000
sbsbsg2284
g0
(g359
g2
Ntp2336
Rp2337
(dp2338
g21
I00
sg49
I00
sg23
I00
sg19
(lp2339
g2182
asg22
Nsg2182
g0
(g75
g2
Ntp2340
Rp2341
(dp2342
g21
I00
sg49
I00
sg23
I00
sg50
I0
sbsbsg2285
g0
(g359
g2
Ntp2343
Rp2344
(dp2345
g21
I00
sg49
I00
sg23
I00
sg19
(lp2346
g2181
ag2182
asg22
Nsg2181
g0
(g75
g2
Ntp2347
Rp2348
(dp2349
g21
I00
sg49
I00
sg23
I00
sg50
I1
sbsg2182
g0
(g75
g2
Ntp2350
Rp2351
(dp2352
g21
I00
sg49
I00
sg23
I00
sg50
I10000000
sbsbsbsg2168
g0
(g359
g2
Ntp2353
Rp2354
(dp2355
g21
I00
sg49
I00
sg23
I00
sg19
(lp2356
sg22
g0
(g424
g2
Ntp2357
Rp2358
(dp2359
g21
I00
sg49
I00
sg23
I00
sg428
g0
(g2172
g2
Ntp2360
Rp2361
(dp2362
g2176
g0
(g359
g2
Ntp2363
Rp2364
(dp2365
g21
I00
sg49
I01
sg23
I00
sg19
(lp2366
g2218
ag2219
ag2220
ag2221
ag2222
ag2223
ag2224
aVfilename
p2367
aVextension
p2368
aVoutput
p2369
asg22
g2170
sg2218
g0
(g424
g2
Ntp2370
Rp2371
(dp2372
g21
I00
sg49
I00
sg23
I00
sg428
g71
sg430
Nsbsg2219
g0
(g424
g2
Ntp2373
Rp2374
(dp2375
g21
I00
sg49
I00
sg23
I00
sg428
g71
sg430
Nsbsg2220
g0
(g424
g2
Ntp2376
Rp2377
(dp2378
g21
I00
sg49
I00
sg23
I00
sg428
g75
sg430
Nsbsg2221
g0
(g424
g2
Ntp2379
Rp2380
(dp2381
g21
I00
sg49
I00
sg23
I00
sg428
g45
sg430
Nsbsg2222
g0
(g424
g2
Ntp2382
Rp2383
(dp2384
g21
I00
sg49
I00
sg23
I00
sg428
g45
sg430
Nsbsg2223
g0
(g71
g2
Ntp2385
Rp2386
(dp2387
g21
I00
sg49
I00
sg23
I00
sg50
I00
sbsg2224
g0
(g71
g2
Ntp2388
Rp2389
(dp2390
g21
I00
sg49
I00
sg23
I00
sg50
I00
sbsg2367
g0
(g424
g2
Ntp2391
Rp2392
(dp2393
g21
I00
sg49
I00
sg23
I00
sg428
g45
sg430
Nsbsg2368
g0
(g424
g2
Ntp2394
Rp2395
(dp2396
g21
I00
sg49
I00
sg23
I00
sg428
g45
sg430
Nsbsg2369
g0
(g424
g2
Ntp2397
Rp2398
(dp2399
g21
I00
sg49
I00
sg23
I00
sg428
g45
sg430
Nsbsbsg2193
Nsbsg430
Nsbsbsg24
g1743
sg26
I13
sV_inProcess
p2400
I00
sbsVDQMStore
p2401
g0
(g2155
g2
Ntp2402
Rp2403
(dp2404
g17
g2401
sg19
(lp2405
g466
aVsaveByLumi
p2406
aVMEsToSave
p2407
aVtrackME
p2408
aVassertLegacySafe
p2409
aVenableMultiThread
p2410
aVonlineMode
p2411
asg21
I00
sg22
Nsg466
g0
(g75
g2
Ntp2412
Rp2413
(dp2414
g21
I00
sg49
I00
sg23
I00
sg50
I0
sbsg23
I00
sg2406
g0
(g71
g2
Ntp2415
Rp2416
(dp2417
g21
I00
sg49
I00
sg23
I00
sg50
I00
sbsg2407
g0
(g429
g62
(lp2418
VHcal/DigiTask/Occupancy/depth/depth1
p2419
aVHcal/DigiTask/Occupancy/depth/depth2
p2420
aVHcal/DigiTask/Occupancy/depth/depth3
p2421
aVHcal/DigiTask/Occupancy/depth/depth4
p2422
aVHcal/DigiTask/Occupancy/depth/depth5
p2423
aVHcal/DigiTask/Occupancy/depth/depth6
p2424
aVHcal/DigiTask/Occupancy/depth/depth7
p2425
aVHcal/DigiTask/Occupancy/depth/depthHO
p2426
aVHcal/DigiTask/OccupancyCut/depth/depth1
p2427
aVHcal/DigiTask/OccupancyCut/depth/depth2
p2428
aVHcal/DigiTask/OccupancyCut/depth/depth3
p2429
aVHcal/DigiTask/OccupancyCut/depth/depth4
p2430
aVHcal/DigiTask/OccupancyCut/depth/depth5
p2431
aVHcal/DigiTask/OccupancyCut/depth/depth6
p2432
aVHcal/DigiTask/OccupancyCut/depth/depth7
p2433
aVHcal/DigiTask/OccupancyCut/depth/depthHO
p2434
aVEcalBarrel/EBOccupancyTask/EBOT digi occupancy
p2435
aVEcalEndcap/EEOccupancyTask/EEOT digi occupancy EE -
p2436
aVEcalEndcap/EEOccupancyTask/EEOT digi occupancy EE +
p2437
aVEcalBarrel/EBOccupancyTask/EBOT DCC entries
p2438
aVEcalEndcap/EEOccupancyTask/EEOT DCC entries
p2439
aVEcal/EventInfo/processedEvents
p2440
aVPixelPhase1/Tracks/charge_PXBarrel
p2441
aVPixelPhase1/Tracks/charge_PXForward
p2442
aVPixelPhase1/Tracks/PXBarrel/charge_PXLayer_1
p2443
aVPixelPhase1/Tracks/PXBarrel/charge_PXLayer_2
p2444
aVPixelPhase1/Tracks/PXBarrel/charge_PXLayer_3
p2445
aVPixelPhase1/Tracks/PXBarrel/charge_PXLayer_4
p2446
aVPixelPhase1/Tracks/PXForward/charge_PXDisk_+1
p2447
aVPixelPhase1/Tracks/PXForward/charge_PXDisk_+2
p2448
aVPixelPhase1/Tracks/PXForward/charge_PXDisk_+3
p2449
aVPixelPhase1/Tracks/PXForward/charge_PXDisk_-1
p2450
aVPixelPhase1/Tracks/PXForward/charge_PXDisk_-2
p2451
aVPixelPhase1/Tracks/PXForward/charge_PXDisk_-3
p2452
aVPixelPhase1/Tracks/PXBarrel/size_PXLayer_1
p2453
aVPixelPhase1/Tracks/PXBarrel/size_PXLayer_2
p2454
aVPixelPhase1/Tracks/PXBarrel/size_PXLayer_3
p2455
aVPixelPhase1/Tracks/PXBarrel/size_PXLayer_4
p2456
aVPixelPhase1/Tracks/PXForward/size_PXDisk_+1
p2457
aVPixelPhase1/Tracks/PXForward/size_PXDisk_+2
p2458
aVPixelPhase1/Tracks/PXForward/size_PXDisk_+3
p2459
aVPixelPhase1/Tracks/PXForward/size_PXDisk_-1
p2460
aVPixelPhase1/Tracks/PXForward/size_PXDisk_-2
p2461
aVPixelPhase1/Tracks/PXForward/size_PXDisk_-3
p2462
aVHLT/Vertexing/hltPixelVertices/hltPixelVertices/goodvtxNbr
p2463
aVHLT/Tracking/ValidationWRTOffline/hltMergedWrtHighPurityPV/mon_eta
p2464
aVHLT/Tracking/ValidationWRTOffline/hltMergedWrtHighPurityPV/mon_hits
p2465
aVHLT/Tracking/ValidationWRTOffline/hltMergedWrtHighPurityPV/mon_phi
p2466
aVHLT/Tracking/ValidationWRTOffline/hltMergedWrtHighPurityPV/mon_pt
p2467
aVHLT/Tracking/ValidationWRTOffline/hltMergedWrtHighPurityPV/mon_unMatched_eta
p2468
aVHLT/Tracking/ValidationWRTOffline/hltMergedWrtHighPurityPV/mon_unMatched_hits
p2469
aVHLT/Tracking/ValidationWRTOffline/hltMergedWrtHighPurityPV/mon_unMatched_phi
p2470
aVHLT/Tracking/ValidationWRTOffline/hltMergedWrtHighPurityPV/mon_unMatched_pt
p2471
aVHLT/Tracking/ValidationWRTOffline/hltMergedWrtHighPurityPV/ref_eta
p2472
aVHLT/Tracking/ValidationWRTOffline/hltMergedWrtHighPurityPV/ref_hits
p2473
aVHLT/Tracking/ValidationWRTOffline/hltMergedWrtHighPurityPV/ref_matched_eta
p2474
aVHLT/Tracking/ValidationWRTOffline/hltMergedWrtHighPurityPV/ref_matched_hits
p2475
aVHLT/Tracking/ValidationWRTOffline/hltMergedWrtHighPurityPV/ref_matched_phi
p2476
aVHLT/Tracking/ValidationWRTOffline/hltMergedWrtHighPurityPV/ref_matched_pt
p2477
aVHLT/Tracking/ValidationWRTOffline/hltMergedWrtHighPurityPV/ref_phi
p2478
aVHLT/Tracking/ValidationWRTOffline/hltMergedWrtHighPurityPV/ref_pt
p2479
aVHLT/Tracking/pixelTracks/GeneralProperties/Chi2Prob_GenTk
p2480
aVHLT/Tracking/pixelTracks/GeneralProperties/Chi2oNDFVsEta_ImpactPoint_GenTk
p2481
aVHLT/Tracking/pixelTracks/GeneralProperties/DeltaZToPVZoom_GenTk
p2482
aVHLT/Tracking/pixelTracks/GeneralProperties/DistanceOfClosestApproachToPVVsPhi_GenTk
p2483
aVHLT/Tracking/pixelTracks/GeneralProperties/DistanceOfClosestApproachToPVZoom_GenTk
p2484
aVHLT/Tracking/pixelTracks/GeneralProperties/NumberOfTracks_GenTk
p2485
aVHLT/Tracking/tracks/GeneralProperties/Chi2Prob_GenTk
p2486
aVHLT/Tracking/tracks/GeneralProperties/Chi2oNDFVsEta_ImpactPoint_GenTk
p2487
aVHLT/Tracking/tracks/GeneralProperties/DeltaZToPVZoom_GenTk
p2488
aVHLT/Tracking/tracks/GeneralProperties/DistanceOfClosestApproachToPVVsPhi_GenTk
p2489
aVHLT/Tracking/tracks/GeneralProperties/DistanceOfClosestApproachToPVZoom_GenTk
p2490
aVHLT/Tracking/tracks/GeneralProperties/NumberOfTracks_GenTk
p2491
aVHLT/Tracking/tracks/LUMIanalysis/NumberEventsVsLUMI
p2492
aVHLT/Tracking/tracks/PUmonitoring/NumberEventsVsGoodPVtx
p2493
aVPixelPhase1/Tracks/num_clusters_ontrack_PXBarrel
p2494
aVPixelPhase1/Tracks/num_clusters_ontrack_PXForward
p2495
aVPixelPhase1/Tracks/clusterposition_zphi_ontrack
p2496
aVPixelPhase1/Tracks/PXBarrel/clusterposition_zphi_ontrack_PXLayer_1
p2497
aVPixelPhase1/Tracks/PXBarrel/clusterposition_zphi_ontrack_PXLayer_2
p2498
aVPixelPhase1/Tracks/PXBarrel/clusterposition_zphi_ontrack_PXLayer_3
p2499
aVPixelPhase1/Tracks/PXBarrel/clusterposition_zphi_ontrack_PXLayer_4
p2500
aVPixelPhase1/Tracks/PXForward/clusterposition_xy_ontrack_PXDisk_+1
p2501
aVPixelPhase1/Tracks/PXForward/clusterposition_xy_ontrack_PXDisk_+2
p2502
aVPixelPhase1/Tracks/PXForward/clusterposition_xy_ontrack_PXDisk_+3
p2503
aVPixelPhase1/Tracks/PXForward/clusterposition_xy_ontrack_PXDisk_-1
p2504
aVPixelPhase1/Tracks/PXForward/clusterposition_xy_ontrack_PXDisk_-2
p2505
aVPixelPhase1/Tracks/PXForward/clusterposition_xy_ontrack_PXDisk_-3
p2506
aVPixelPhase1/Phase1_MechanicalView/PXBarrel/digi_occupancy_per_SignedModuleCoord_per_SignedLadderCoord_PXLayer_1
p2507
aVPixelPhase1/Phase1_MechanicalView/PXBarrel/digi_occupancy_per_SignedModuleCoord_per_SignedLadderCoord_PXLayer_2
p2508
aVPixelPhase1/Phase1_MechanicalView/PXBarrel/digi_occupancy_per_SignedModuleCoord_per_SignedLadderCoord_PXLayer_3
p2509
aVPixelPhase1/Phase1_MechanicalView/PXBarrel/digi_occupancy_per_SignedModuleCoord_per_SignedLadderCoord_PXLayer_4
p2510
aVPixelPhase1/Phase1_MechanicalView/PXForward/digi_occupancy_per_SignedDiskCoord_per_SignedBladePanelCoord_PXRing_1
p2511
aVPixelPhase1/Phase1_MechanicalView/PXForward/digi_occupancy_per_SignedDiskCoord_per_SignedBladePanelCoord_PXRing_2
p2512
aVPixelPhase1/Phase1_MechanicalView/PXBarrel/clusters_per_SignedModuleCoord_per_SignedLadderCoord_PXLayer_1
p2513
aVPixelPhase1/Phase1_MechanicalView/PXBarrel/clusters_per_SignedModuleCoord_per_SignedLadderCoord_PXLayer_2
p2514
aVPixelPhase1/Phase1_MechanicalView/PXBarrel/clusters_per_SignedModuleCoord_per_SignedLadderCoord_PXLayer_3
p2515
aVPixelPhase1/Phase1_MechanicalView/PXBarrel/clusters_per_SignedModuleCoord_per_SignedLadderCoord_PXLayer_4
p2516
aVPixelPhase1/Phase1_MechanicalView/PXForward/clusters_per_SignedDiskCoord_per_SignedBladePanelCoord_PXRing_1
p2517
aVPixelPhase1/Phase1_MechanicalView/PXForward/clusters_per_SignedDiskCoord_per_SignedBladePanelCoord_PXRing_2
p2518
aVSiStrip/MechanicalView/TEC/PLUS/wheel_1/NormalizedHitResiduals_TEC__wheel__1
p2519
aVSiStrip/MechanicalView/TEC/PLUS/wheel_2/NormalizedHitResiduals_TEC__wheel__2
p2520
aVSiStrip/MechanicalView/TEC/PLUS/wheel_3/NormalizedHitResiduals_TEC__wheel__3
p2521
aVSiStrip/MechanicalView/TEC/PLUS/wheel_4/NormalizedHitResiduals_TEC__wheel__4
p2522
aVSiStrip/MechanicalView/TEC/PLUS/wheel_5/NormalizedHitResiduals_TEC__wheel__5
p2523
aVSiStrip/MechanicalView/TEC/PLUS/wheel_6/NormalizedHitResiduals_TEC__wheel__6
p2524
aVSiStrip/MechanicalView/TEC/PLUS/wheel_7/NormalizedHitResiduals_TEC__wheel__7
p2525
aVSiStrip/MechanicalView/TEC/PLUS/wheel_8/NormalizedHitResiduals_TEC__wheel__8
p2526
aVSiStrip/MechanicalView/TEC/PLUS/wheel_9/NormalizedHitResiduals_TEC__wheel__9
p2527
aVSiStrip/MechanicalView/TEC/MINUS/wheel_1/NormalizedHitResiduals_TEC__wheel__1
p2528
aVSiStrip/MechanicalView/TEC/MINUS/wheel_2/NormalizedHitResiduals_TEC__wheel__2
p2529
aVSiStrip/MechanicalView/TEC/MINUS/wheel_3/NormalizedHitResiduals_TEC__wheel__3
p2530
aVSiStrip/MechanicalView/TEC/MINUS/wheel_4/NormalizedHitResiduals_TEC__wheel__4
p2531
aVSiStrip/MechanicalView/TEC/MINUS/wheel_5/NormalizedHitResiduals_TEC__wheel__5
p2532
aVSiStrip/MechanicalView/TEC/MINUS/wheel_6/NormalizedHitResiduals_TEC__wheel__6
p2533
aVSiStrip/MechanicalView/TEC/MINUS/wheel_7/NormalizedHitResiduals_TEC__wheel__7
p2534
aVSiStrip/MechanicalView/TEC/MINUS/wheel_8/NormalizedHitResiduals_TEC__wheel__8
p2535
aVSiStrip/MechanicalView/TEC/MINUS/wheel_9/NormalizedHitResiduals_TEC__wheel__9
p2536
aVSiStrip/MechanicalView/TEC/PLUS/wheel_1/Summary_ClusterStoNCorr__OnTrack__TEC__PLUS__wheel__1
p2537
aVSiStrip/MechanicalView/TEC/PLUS/wheel_2/Summary_ClusterStoNCorr__OnTrack__TEC__PLUS__wheel__2
p2538
aVSiStrip/MechanicalView/TEC/PLUS/wheel_3/Summary_ClusterStoNCorr__OnTrack__TEC__PLUS__wheel__3
p2539
aVSiStrip/MechanicalView/TEC/PLUS/wheel_4/Summary_ClusterStoNCorr__OnTrack__TEC__PLUS__wheel__4
p2540
aVSiStrip/MechanicalView/TEC/PLUS/wheel_5/Summary_ClusterStoNCorr__OnTrack__TEC__PLUS__wheel__5
p2541
aVSiStrip/MechanicalView/TEC/PLUS/wheel_6/Summary_ClusterStoNCorr__OnTrack__TEC__PLUS__wheel__6
p2542
aVSiStrip/MechanicalView/TEC/PLUS/wheel_7/Summary_ClusterStoNCorr__OnTrack__TEC__PLUS__wheel__7
p2543
aVSiStrip/MechanicalView/TEC/PLUS/wheel_8/Summary_ClusterStoNCorr__OnTrack__TEC__PLUS__wheel__8
p2544
aVSiStrip/MechanicalView/TEC/PLUS/wheel_9/Summary_ClusterStoNCorr__OnTrack__TEC__PLUS__wheel__9
p2545
aVSiStrip/MechanicalView/TEC/MINUS/wheel_1/Summary_ClusterStoNCorr__OnTrack__TEC__MINUS__wheel__1
p2546
aVSiStrip/MechanicalView/TEC/MINUS/wheel_2/Summary_ClusterStoNCorr__OnTrack__TEC__MINUS__wheel__2
p2547
aVSiStrip/MechanicalView/TEC/MINUS/wheel_3/Summary_ClusterStoNCorr__OnTrack__TEC__MINUS__wheel__3
p2548
aVSiStrip/MechanicalView/TEC/MINUS/wheel_4/Summary_ClusterStoNCorr__OnTrack__TEC__MINUS__wheel__4
p2549
aVSiStrip/MechanicalView/TEC/MINUS/wheel_5/Summary_ClusterStoNCorr__OnTrack__TEC__MINUS__wheel__5
p2550
aVSiStrip/MechanicalView/TEC/MINUS/wheel_6/Summary_ClusterStoNCorr__OnTrack__TEC__MINUS__wheel__6
p2551
aVSiStrip/MechanicalView/TEC/MINUS/wheel_7/Summary_ClusterStoNCorr__OnTrack__TEC__MINUS__wheel__7
p2552
aVSiStrip/MechanicalView/TEC/MINUS/wheel_8/Summary_ClusterStoNCorr__OnTrack__TEC__MINUS__wheel__8
p2553
aVSiStrip/MechanicalView/TEC/MINUS/wheel_9/Summary_ClusterStoNCorr__OnTrack__TEC__MINUS__wheel__9
p2554
aVSiStrip/MechanicalView/TIB/layer_1/NormalizedHitResiduals_TIB__Layer__1
p2555
aVSiStrip/MechanicalView/TIB/layer_2/NormalizedHitResiduals_TIB__Layer__2
p2556
aVSiStrip/MechanicalView/TIB/layer_3/NormalizedHitResiduals_TIB__Layer__3
p2557
aVSiStrip/MechanicalView/TIB/layer_4/NormalizedHitResiduals_TIB__Layer__4
p2558
aVSiStrip/MechanicalView/TIB/layer_1/Summary_ClusterStoNCorr__OnTrack__TIB__layer__1
p2559
aVSiStrip/MechanicalView/TIB/layer_2/Summary_ClusterStoNCorr__OnTrack__TIB__layer__2
p2560
aVSiStrip/MechanicalView/TIB/layer_3/Summary_ClusterStoNCorr__OnTrack__TIB__layer__3
p2561
aVSiStrip/MechanicalView/TIB/layer_4/Summary_ClusterStoNCorr__OnTrack__TIB__layer__4
p2562
aVSiStrip/MechanicalView/TID/PLUS/wheel_1/NormalizedHitResiduals_TID__wheel__1
p2563
aVSiStrip/MechanicalView/TID/PLUS/wheel_2/NormalizedHitResiduals_TID__wheel__2
p2564
aVSiStrip/MechanicalView/TID/PLUS/wheel_3/NormalizedHitResiduals_TID__wheel__3
p2565
aVSiStrip/MechanicalView/TID/MINUS/wheel_1/NormalizedHitResiduals_TID__wheel__1
p2566
aVSiStrip/MechanicalView/TID/MINUS/wheel_2/NormalizedHitResiduals_TID__wheel__2
p2567
aVSiStrip/MechanicalView/TID/MINUS/wheel_3/NormalizedHitResiduals_TID__wheel__3
p2568
aVSiStrip/MechanicalView/TID/PLUS/wheel_1/Summary_ClusterStoNCorr__OnTrack__TID__PLUS__wheel__1
p2569
aVSiStrip/MechanicalView/TID/PLUS/wheel_2/Summary_ClusterStoNCorr__OnTrack__TID__PLUS__wheel__2
p2570
aVSiStrip/MechanicalView/TID/PLUS/wheel_3/Summary_ClusterStoNCorr__OnTrack__TID__PLUS__wheel__3
p2571
aVSiStrip/MechanicalView/TID/MINUS/wheel_1/Summary_ClusterStoNCorr__OnTrack__TID__MINUS__wheel__1
p2572
aVSiStrip/MechanicalView/TID/MINUS/wheel_2/Summary_ClusterStoNCorr__OnTrack__TID__MINUS__wheel__2
p2573
aVSiStrip/MechanicalView/TID/MINUS/wheel_3/Summary_ClusterStoNCorr__OnTrack__TID__MINUS__wheel__3
p2574
aVSiStrip/MechanicalView/TOB/layer_1/NormalizedHitResiduals_TOB__Layer__1
p2575
aVSiStrip/MechanicalView/TOB/layer_2/NormalizedHitResiduals_TOB__Layer__2
p2576
aVSiStrip/MechanicalView/TOB/layer_3/NormalizedHitResiduals_TOB__Layer__3
p2577
aVSiStrip/MechanicalView/TOB/layer_4/NormalizedHitResiduals_TOB__Layer__4
p2578
aVSiStrip/MechanicalView/TOB/layer_5/NormalizedHitResiduals_TOB__Layer__5
p2579
aVSiStrip/MechanicalView/TOB/layer_6/NormalizedHitResiduals_TOB__Layer__6
p2580
aVSiStrip/MechanicalView/TOB/layer_1/Summary_ClusterStoNCorr__OnTrack__TOB__layer__1
p2581
aVSiStrip/MechanicalView/TOB/layer_2/Summary_ClusterStoNCorr__OnTrack__TOB__layer__2
p2582
aVSiStrip/MechanicalView/TOB/layer_3/Summary_ClusterStoNCorr__OnTrack__TOB__layer__3
p2583
aVSiStrip/MechanicalView/TOB/layer_4/Summary_ClusterStoNCorr__OnTrack__TOB__layer__4
p2584
aVSiStrip/MechanicalView/TOB/layer_5/Summary_ClusterStoNCorr__OnTrack__TOB__layer__5
p2585
aVSiStrip/MechanicalView/TOB/layer_6/Summary_ClusterStoNCorr__OnTrack__TOB__layer__6
p2586
aVSiStrip/MechanicalView/MainDiagonal Position
p2587
aVSiStrip/MechanicalView/NumberOfClustersInPixel
p2588
aVSiStrip/MechanicalView/NumberOfClustersInStrip
p2589
aVTracking/TrackParameters/generalTracks/LSanalysis/Chi2oNDF_lumiFlag_GenTk
p2590
aVTracking/TrackParameters/generalTracks/LSanalysis/NumberOfRecHitsPerTrack_lumiFlag_GenTk
p2591
aVTracking/TrackParameters/generalTracks/LSanalysis/NumberOfTracks_lumiFlag_GenTk
p2592
aVTracking/TrackParameters/highPurityTracks/pt_1/GeneralProperties/SIPDxyToPV_GenTk
p2593
aVTracking/TrackParameters/highPurityTracks/pt_1/GeneralProperties/SIPDzToPV_GenTk
p2594
aVTracking/TrackParameters/highPurityTracks/pt_1/GeneralProperties/SIP3DToPV_GenTk
p2595
aVTracking/TrackParameters/generalTracks/HitProperties/NumberOfMissingOuterRecHitsPerTrack_GenTk
p2596
aVTracking/TrackParameters/generalTracks/HitProperties/NumberMORecHitsPerTrackVsPt_GenTk
p2597
aVOfflinePV/offlinePrimaryVertices/tagVtxProb
p2598
aVOfflinePV/offlinePrimaryVertices/tagType
p2599
aVOfflinePV/Resolution/PV/pull_x
p2600
aVOfflinePV/Resolution/PV/pull_y
p2601
aVOfflinePV/Resolution/PV/pull_z
p2602
aVJetMET/Jet/Cleanedak4PFJetsCHS/CHFrac_highPt_Barrel
p2603
aVJetMET/Jet/Cleanedak4PFJetsCHS/CHFrac_highPt_EndCap
p2604
aVJetMET/Jet/Cleanedak4PFJetsCHS/CHFrac_mediumPt_Barrel
p2605
aVJetMET/Jet/Cleanedak4PFJetsCHS/CHFrac_mediumPt_EndCap
p2606
aVJetMET/Jet/Cleanedak4PFJetsCHS/CHFrac_lowPt_Barrel
p2607
aVJetMET/Jet/Cleanedak4PFJetsCHS/CHFrac_lowPt_EndCap
p2608
aVJetMET/Jet/Cleanedak4PFJetsCHS/ChMultiplicity_highPt_Barrel
p2609
aVJetMET/Jet/Cleanedak4PFJetsCHS/ChMultiplicity_highPt_EndCap
p2610
aVJetMET/Jet/Cleanedak4PFJetsCHS/ChMultiplicity_mediumPt_Barrel
p2611
aVJetMET/Jet/Cleanedak4PFJetsCHS/ChMultiplicity_mediumPt_EndCap
p2612
aVJetMET/Jet/Cleanedak4PFJetsCHS/ChMultiplicity_lowPt_Barrel
p2613
aVJetMET/Jet/Cleanedak4PFJetsCHS/ChMultiplicity_lowPt_EndCap
p2614
aVJetMET/Jet/Cleanedak4PFJetsCHS/Constituents
p2615
aVJetMET/Jet/Cleanedak4PFJetsCHS/Eta
p2616
aVJetMET/Jet/Cleanedak4PFJetsCHS/Eta_uncor
p2617
aVJetMET/Jet/Cleanedak4PFJetsCHS/JetEnergyCorr
p2618
aVJetMET/Jet/Cleanedak4PFJetsCHS/NJets
p2619
aVJetMET/Jet/Cleanedak4PFJetsCHS/Phi
p2620
aVJetMET/Jet/Cleanedak4PFJetsCHS/Phi_Barrel
p2621
aVJetMET/Jet/Cleanedak4PFJetsCHS/Phi_EndCap
p2622
aVJetMET/Jet/Cleanedak4PFJetsCHS/Pt
p2623
aVJetMET/MET/pfMETT1/Cleaned/METSig
p2624
aVJetMET/vertices
p2625
atp2626
Rp2627
(dp2628
g21
I00
sg49
I00
sg23
I00
sg887
I1
sbsg2408
g0
(g45
g2
Ntp2629
Rp2630
(dp2631
g21
I00
sg49
I00
sg23
I00
sg50
g59
sbsg2409
g0
(g71
g2
Ntp2632
Rp2633
(dp2634
g21
I00
sg49
I00
sg23
I00
sg50
I00
sbsg2410
g0
(g71
g2
Ntp2635
Rp2636
(dp2637
g21
I00
sg49
I00
sg23
I00
sg50
I01
sbsg2411
g0
(g71
g2
Ntp2638
Rp2639
(dp2640
g21
I00
sg49
I00
sg23
I00
sg50
I00
sbsg24
g1743
sg26
I13
sg2400
I01
sbsVRandomNumberGeneratorService
p2641
g0
(g2155
g2
Ntp2642
Rp2643
(dp2644
g17
g2641
sg19
(lp2645
VexternalLHEProducer
p2646
aVgenerator
p2647
aVVtxSmeared
p2648
aVLHCTransport
p2649
aVhiSignalLHCTransport
p2650
aVg4SimHits
p2651
aVmix
p2652
aVmixData
p2653
aVsimSiStripDigiSimLink
p2654
aVsimMuonDTDigis
p2655
aVsimMuonCSCDigis
p2656
aVsimMuonRPCDigis
p2657
aVhiSignal
p2658
aVhiSignalG4SimHits
p2659
aVfamosPileUp
p2660
aVmixGenPU
p2661
aVmixSimCaloHits
p2662
aVmixRecoTracks
p2663
aVfastSimProducer
p2664
aVfastTrackerRecHits
p2665
aVecalRecHit
p2666
aVecalPreshowerRecHit
p2667
aVhbhereco
p2668
aVhoreco
p2669
aVhfreco
p2670
aVparamMuons
p2671
aVl1ParamMuons
p2672
aVMuonSimHits
p2673
aVCTPPSFastRecHits
p2674
aVsimBeamSpotFilter
p2675
aVRPixDetDigitizer
p2676
aVRPSiDetDigitizer
p2677
aVsaveFileName
p2678
asg21
I00
sg22
Nsg2646
g0
(g359
g2
Ntp2679
Rp2680
(dp2681
g21
I00
sg49
I01
sg23
I00
sg19
(lp2682
VinitialSeed
p2683
aVengineName
p2684
asg22
Nsg2683
g0
(g67
g2
Ntp2685
Rp2686
(dp2687
g21
I00
sg49
I00
sg23
I00
sg50
I234567
sbsg2684
g0
(g45
g2
Ntp2688
Rp2689
(dp2690
g21
I00
sg49
I00
sg23
I00
sg50
VMixMaxRng
p2691
sbsbsg23
I00
sg2647
g0
(g359
g2
Ntp2692
Rp2693
(dp2694
g21
I00
sg49
I01
sg23
I00
sg19
(lp2695
g2683
ag2684
asg22
Nsg2683
g0
(g67
g2
Ntp2696
Rp2697
(dp2698
g21
I00
sg49
I00
sg23
I00
sg50
I123456789
sbsg2684
g2689
sbsg2648
g0
(g359
g2
Ntp2699
Rp2700
(dp2701
g21
I00
sg49
I01
sg23
I00
sg19
(lp2702
g2683
ag2684
asg22
Nsg2683
g0
(g67
g2
Ntp2703
Rp2704
(dp2705
g21
I00
sg49
I00
sg23
I00
sg50
I98765432
sbsg2684
g2689
sbsg2649
g0
(g359
g2
Ntp2706
Rp2707
(dp2708
g21
I00
sg49
I01
sg23
I00
sg19
(lp2709
g2683
ag2684
asg22
Nsg2683
g0
(g67
g2
Ntp2710
Rp2711
(dp2712
g21
I00
sg49
I00
sg23
I00
sg50
I87654321
sbsg2684
g0
(g45
g2
Ntp2713
Rp2714
(dp2715
g21
I00
sg49
I00
sg23
I00
sg50
VTRandom3
p2716
sbsbsg2650
g0
(g359
g2
Ntp2717
Rp2718
(dp2719
g21
I00
sg49
I01
sg23
I00
sg19
(lp2720
g2683
ag2684
asg22
Nsg2683
g0
(g67
g2
Ntp2721
Rp2722
(dp2723
g21
I00
sg49
I00
sg23
I00
sg50
I88776655
sbsg2684
g0
(g45
g2
Ntp2724
Rp2725
(dp2726
g21
I00
sg49
I00
sg23
I00
sg50
g2691
sbsbsg2651
g0
(g359
g2
Ntp2727
Rp2728
(dp2729
g21
I00
sg49
I01
sg23
I00
sg19
(lp2730
g2683
ag2684
asg22
Nsg2683
g0
(g67
g2
Ntp2731
Rp2732
(dp2733
g21
I00
sg49
I00
sg23
I00
sg50
I11
sbsg2684
g2689
sbsg2652
g0
(g359
g2
Ntp2734
Rp2735
(dp2736
g21
I00
sg49
I01
sg23
I00
sg19
(lp2737
g2683
ag2684
asg22
Nsg2683
g0
(g67
g2
Ntp2738
Rp2739
(dp2740
g21
I00
sg49
I00
sg23
I00
sg50
I12345
sbsg2684
g2689
sbsg2653
g0
(g359
g2
Ntp2741
Rp2742
(dp2743
g21
I00
sg49
I01
sg23
I00
sg19
(lp2744
g2683
ag2684
asg22
Nsg2683
g0
(g67
g2
Ntp2745
Rp2746
(dp2747
g21
I00
sg49
I00
sg23
I00
sg50
I12345
sbsg2684
g2689
sbsg2654
g0
(g359
g2
Ntp2748
Rp2749
(dp2750
g21
I00
sg49
I01
sg23
I00
sg19
(lp2751
g2683
ag2684
asg22
Nsg2683
g0
(g67
g2
Ntp2752
Rp2753
(dp2754
g21
I00
sg49
I00
sg23
I00
sg50
I1234567
sbsg2684
g2689
sbsg2655
g0
(g359
g2
Ntp2755
Rp2756
(dp2757
g21
I00
sg49
I01
sg23
I00
sg19
(lp2758
g2683
ag2684
asg22
Nsg2683
g0
(g67
g2
Ntp2759
Rp2760
(dp2761
g21
I00
sg49
I00
sg23
I00
sg50
I1234567
sbsg2684
g2689
sbsg2656
g0
(g359
g2
Ntp2762
Rp2763
(dp2764
g21
I00
sg49
I01
sg23
I00
sg19
(lp2765
g2683
ag2684
asg22
Nsg2683
g0
(g67
g2
Ntp2766
Rp2767
(dp2768
g21
I00
sg49
I00
sg23
I00
sg50
I11223344
sbsg2684
g2689
sbsg2657
g0
(g359
g2
Ntp2769
Rp2770
(dp2771
g21
I00
sg49
I01
sg23
I00
sg19
(lp2772
g2683
ag2684
asg22
Nsg2683
g0
(g67
g2
Ntp2773
Rp2774
(dp2775
g21
I00
sg49
I00
sg23
I00
sg50
I1234567
sbsg2684
g2689
sbsg2658
g0
(g359
g2
Ntp2776
Rp2777
(dp2778
g21
I00
sg49
I01
sg23
I00
sg19
(lp2779
g2683
ag2684
asg22
Nsg2683
g0
(g67
g2
Ntp2780
Rp2781
(dp2782
g21
I00
sg49
I00
sg23
I00
sg50
I123456789
sbsg2684
g2689
sbsg2659
g0
(g359
g2
Ntp2783
Rp2784
(dp2785
g21
I00
sg49
I01
sg23
I00
sg19
(lp2786
g2683
ag2684
asg22
Nsg2683
g0
(g67
g2
Ntp2787
Rp2788
(dp2789
g21
I00
sg49
I00
sg23
I00
sg50
I11
sbsg2684
g2689
sbsg2660
g0
(g359
g2
Ntp2790
Rp2791
(dp2792
g21
I00
sg49
I01
sg23
I00
sg19
(lp2793
g2683
ag2684
asg22
Nsg2683
g0
(g67
g2
Ntp2794
Rp2795
(dp2796
g21
I00
sg49
I00
sg23
I00
sg50
I918273
sbsg2684
g2725
sbsg2661
g0
(g359
g2
Ntp2797
Rp2798
(dp2799
g21
I00
sg49
I01
sg23
I00
sg19
(lp2800
g2683
ag2684
asg22
Nsg2683
g0
(g67
g2
Ntp2801
Rp2802
(dp2803
g21
I00
sg49
I00
sg23
I00
sg50
I918273
sbsg2684
g2725
sbsg2662
g0
(g359
g2
Ntp2804
Rp2805
(dp2806
g21
I00
sg49
I01
sg23
I00
sg19
(lp2807
g2683
ag2684
asg22
Nsg2683
g0
(g67
g2
Ntp2808
Rp2809
(dp2810
g21
I00
sg49
I00
sg23
I00
sg50
I918273
sbsg2684
g2725
sbsg2663
g0
(g359
g2
Ntp2811
Rp2812
(dp2813
g21
I00
sg49
I01
sg23
I00
sg19
(lp2814
g2683
ag2684
asg22
Nsg2683
g0
(g67
g2
Ntp2815
Rp2816
(dp2817
g21
I00
sg49
I00
sg23
I00
sg50
I918273
sbsg2684
g2725
sbsg2664
g0
(g359
g2
Ntp2818
Rp2819
(dp2820
g21
I00
sg49
I01
sg23
I00
sg19
(lp2821
g2683
ag2684
asg22
Nsg2683
g0
(g67
g2
Ntp2822
Rp2823
(dp2824
g21
I00
sg49
I00
sg23
I00
sg50
I13579
sbsg2684
g2725
sbsg2665
g0
(g359
g2
Ntp2825
Rp2826
(dp2827
g21
I00
sg49
I01
sg23
I00
sg19
(lp2828
g2683
ag2684
asg22
Nsg2683
g0
(g67
g2
Ntp2829
Rp2830
(dp2831
g21
I00
sg49
I00
sg23
I00
sg50
I24680
sbsg2684
g2725
sbsg2666
g0
(g359
g2
Ntp2832
Rp2833
(dp2834
g21
I00
sg49
I01
sg23
I00
sg19
(lp2835
g2683
ag2684
asg22
Nsg2683
g0
(g67
g2
Ntp2836
Rp2837
(dp2838
g21
I00
sg49
I00
sg23
I00
sg50
I654321
sbsg2684
g2725
sbsg2667
g0
(g359
g2
Ntp2839
Rp2840
(dp2841
g21
I00
sg49
I01
sg23
I00
sg19
(lp2842
g2683
ag2684
asg22
Nsg2683
g0
(g67
g2
Ntp2843
Rp2844
(dp2845
g21
I00
sg49
I00
sg23
I00
sg50
I6541321
sbsg2684
g2725
sbsg2668
g0
(g359
g2
Ntp2846
Rp2847
(dp2848
g21
I00
sg49
I01
sg23
I00
sg19
(lp2849
g2683
ag2684
asg22
Nsg2683
g0
(g67
g2
Ntp2850
Rp2851
(dp2852
g21
I00
sg49
I00
sg23
I00
sg50
I541321
sbsg2684
g2725
sbsg2669
g0
(g359
g2
Ntp2853
Rp2854
(dp2855
g21
I00
sg49
I01
sg23
I00
sg19
(lp2856
g2683
ag2684
asg22
Nsg2683
g0
(g67
g2
Ntp2857
Rp2858
(dp2859
g21
I00
sg49
I00
sg23
I00
sg50
I541321
sbsg2684
g2725
sbsg2670
g0
(g359
g2
Ntp2860
Rp2861
(dp2862
g21
I00
sg49
I01
sg23
I00
sg19
(lp2863
g2683
ag2684
asg22
Nsg2683
g0
(g67
g2
Ntp2864
Rp2865
(dp2866
g21
I00
sg49
I00
sg23
I00
sg50
I541321
sbsg2684
g2725
sbsg2671
g0
(g359
g2
Ntp2867
Rp2868
(dp2869
g21
I00
sg49
I01
sg23
I00
sg19
(lp2870
g2683
ag2684
asg22
Nsg2683
g0
(g67
g2
Ntp2871
Rp2872
(dp2873
g21
I00
sg49
I00
sg23
I00
sg50
I54525
sbsg2684
g2725
sbsg2672
g0
(g359
g2
Ntp2874
Rp2875
(dp2876
g21
I00
sg49
I01
sg23
I00
sg19
(lp2877
g2683
ag2684
asg22
Nsg2683
g0
(g67
g2
Ntp2878
Rp2879
(dp2880
g21
I00
sg49
I00
sg23
I00
sg50
I6453209
sbsg2684
g2725
sbsg2673
g0
(g359
g2
Ntp2881
Rp2882
(dp2883
g21
I00
sg49
I01
sg23
I00
sg19
(lp2884
g2683
ag2684
asg22
Nsg2683
g0
(g67
g2
Ntp2885
Rp2886
(dp2887
g21
I00
sg49
I00
sg23
I00
sg50
I987346
sbsg2684
g2725
sbsg2674
g0
(g359
g2
Ntp2888
Rp2889
(dp2890
g21
I00
sg49
I01
sg23
I00
sg19
(lp2891
g2683
ag2684
asg22
Nsg2683
g0
(g67
g2
Ntp2892
Rp2893
(dp2894
g21
I00
sg49
I00
sg23
I00
sg50
I1357987
sbsg2684
g2725
sbsg2675
g0
(g359
g2
Ntp2895
Rp2896
(dp2897
g21
I00
sg49
I01
sg23
I00
sg19
(lp2898
g2683
ag2684
asg22
Nsg2683
g0
(g67
g2
Ntp2899
Rp2900
(dp2901
g21
I00
sg49
I00
sg23
I00
sg50
I87654321
sbsg2684
g2689
sbsg2676
g0
(g359
g2
Ntp2902
Rp2903
(dp2904
g21
I00
sg49
I01
sg23
I00
sg19
(lp2905
g2683
ag2684
asg22
Nsg2683
g0
(g67
g2
Ntp2906
Rp2907
(dp2908
g21
I00
sg49
I00
sg23
I00
sg50
I137137
sbsg2684
g2689
sbsg2677
g0
(g359
g2
Ntp2909
Rp2910
(dp2911
g21
I00
sg49
I01
sg23
I00
sg19
(lp2912
g2683
ag2684
asg22
Nsg2683
g0
(g67
g2
Ntp2913
Rp2914
(dp2915
g21
I00
sg49
I00
sg23
I00
sg50
I137137
sbsg2684
g2689
sbsg2678
g0
(g45
g2
Ntp2916
Rp2917
(dp2918
g21
I00
sg49
I00
sg23
I00
sg50
g59
sbsg24
g1743
sg26
I13
sg2400
I01
sbsVTFileService
p2919
g0
(g2155
g2
Ntp2920
Rp2921
(dp2922
g17
g2919
sg19
(lp2923
VfileName
p2924
asg21
I00
sg22
Nsg2924
g0
(g45
g2
Ntp2925
Rp2926
(dp2927
g21
I00
sg49
I01
sg23
I00
sg50
VRPCNtuple.root
p2928
sbsg23
I00
sg24
g1743
sg26
I13
sg2400
I01
sbssV_Process__essources
p2929
(dp2930
VHepPDTESSource
p2931
g0
(cFWCore.ParameterSet.Modules
ESSource
p2932
g2
Ntp2933
Rp2934
(dp2935
g17
g2931
sg19
(lp2936
VpdtFileName
p2937
asg21
I00
sg22
Nsg2937
g0
(g648
g2
Ntp2938
Rp2939
(dp2940
g21
I00
sg49
I01
sg23
I00
sg50
VSimGeneral/HepPDTESSource/data/pythiaparticle.tbl
p2941
sbsg23
I00
sg24
V/cvmfs/cms.cern.ch/slc7_amd64_gcc12/cms/cmssw-patch/CMSSW_14_0_5_patch1/src/SimGeneral/HepPDTESSource/python/pythiapdt_cfi.py
p2942
sg26
I3
sg27
g2931
sbsVeegeom
p2943
g0
(g2932
g2
Ntp2944
Rp2945
(dp2946
g17
VEmptyESSource
p2947
sg19
(lp2948
VrecordName
p2949
aViovIsRunNotTime
p2950
aVfirstValid
p2951
asg21
I00
sg22
Nsg2949
g0
(g45
g2
Ntp2952
Rp2953
(dp2954
g21
I00
sg49
I01
sg23
I00
sg50
VEcalMappingRcd
p2955
sbsg23
I00
sg2950
g0
(g71
g2
Ntp2956
Rp2957
(dp2958
g21
I00
sg49
I01
sg23
I00
sg50
I01
sbsg2951
g0
(g354
g62
(lp2959
I1
atp2960
Rp2961
(dp2962
g21
I00
sg49
I01
sg23
I00
sbsg24
V/cvmfs/cms.cern.ch/slc7_amd64_gcc12/cms/cmssw-patch/CMSSW_14_0_5_patch1/src/Geometry/EcalMapping/python/EcalMappingRecord_cfi.py
p2963
sg26
I3
sg27
g2943
sbsVGlobalTag
p2964
g0
(g2932
g2
Ntp2965
Rp2966
(dp2967
g17
VPoolDBESSource
p2968
sg19
(lp2969
VDBParameters
p2970
aVconnect
p2971
aVglobaltag
p2972
aVsnapshotTime
p2973
aVtoGet
p2974
aVDumpStat
p2975
aVReconnectEachRun
p2976
aVRefreshAlways
p2977
aVRefreshEachRun
p2978
aVRefreshOpenIOVs
p2979
aVpfnPostfix
p2980
aVpfnPrefix
p2981
asg21
I00
sg22
Nsg2970
g0
(g359
g2
Ntp2982
Rp2983
(dp2984
g21
I00
sg49
I01
sg23
I00
sg19
(lp2985
VauthenticationPath
p2986
aVauthenticationSystem
p2987
aVsecurity
p2988
aVmessageLevel
p2989
aVconnectionTimeout
p2990
asg22
Nsg2986
g0
(g45
g2
Ntp2991
Rp2992
(dp2993
g21
I00
sg49
I00
sg23
I00
sg50
g59
sbsg2987
g0
(g75
g2
Ntp2994
Rp2995
(dp2996
g21
I00
sg49
I00
sg23
I00
sg50
I0
sbsg2988
g0
(g45
g2
Ntp2997
Rp2998
(dp2999
g21
I00
sg49
I00
sg23
I00
sg50
g59
sbsg2989
g0
(g75
g2
Ntp3000
Rp3001
(dp3002
g21
I00
sg49
I00
sg23
I00
sg50
I0
sbsg2990
g0
(g75
g2
Ntp3003
Rp3004
(dp3005
g21
I00
sg49
I00
sg23
I00
sg50
I0
sbsbsg23
I01
sg2971
g0
(g45
g2
Ntp3006
Rp3007
(dp3008
g21
I00
sg49
I01
sg23
I00
sg50
Vfrontier://FrontierProd/CMS_CONDITIONS
p3009
sbsg2972
g0
(g45
g2
Ntp3010
Rp3011
(dp3012
g21
I00
sg49
I01
sg23
I01
sg50
V124X_dataRun3_Prompt_v4
p3013
sbsg2973
g0
(g45
g2
Ntp3014
Rp3015
(dp3016
g21
I00
sg49
I01
sg23
I00
sg50
g59
sbsg2974
g0
(cFWCore.ParameterSet.Types
VPSet
p3017
g62
(lp3018
tp3019
Rp3020
(dp3021
g21
I00
sg49
I01
sg23
I00
sg887
I1
sbsg2975
g0
(g71
g2
Ntp3022
Rp3023
(dp3024
g21
I00
sg49
I00
sg23
I00
sg50
I00
sbsg2976
g0
(g71
g2
Ntp3025
Rp3026
(dp3027
g21
I00
sg49
I00
sg23
I00
sg50
I00
sbsg2977
g0
(g71
g2
Ntp3028
Rp3029
(dp3030
g21
I00
sg49
I00
sg23
I00
sg50
I00
sbsg2978
g0
(g71
g2
Ntp3031
Rp3032
(dp3033
g21
I00
sg49
I00
sg23
I00
sg50
I00
sbsg2979
g0
(g71
g2
Ntp3034
Rp3035
(dp3036
g21
I00
sg49
I00
sg23
I00
sg50
I00
sbsg2980
g0
(g45
g2
Ntp3037
Rp3038
(dp3039
g21
I00
sg49
I00
sg23
I00
sg50
g59
sbsg2981
g0
(g45
g2
Ntp3040
Rp3041
(dp3042
g21
I00
sg49
I00
sg23
I00
sg50
g59
sbsg24
V/cvmfs/cms.cern.ch/slc7_amd64_gcc12/cms/cmssw-patch/CMSSW_14_0_5_patch1/src/CondCore/ESSources/python/CondDBESSource_cfi.py
p3043
sg26
I8
sg27
g2964
sbsVHcalTimeSlewEP
p3044
g0
(g2932
g2
Ntp3045
Rp3046
(dp3047
g17
g3044
sg19
(lp3048
VappendToDataLabel
p3049
aVtimeSlewParametersM2
p3050
aVtimeSlewParametersM3
p3051
asg21
I00
sg22
Nsg3049
g0
(g45
g2
Ntp3052
Rp3053
(dp3054
g21
I00
sg49
I01
sg23
I00
sg50
VHBHE
p3055
sbsg23
I00
sg3050
g0
(g3017
g62
(lp3056
g0
(g359
g2
Ntp3057
Rp3058
(dp3059
g21
I00
sg49
I01
sg23
I00
sg19
(lp3060
Vtzero
p3061
aVslope
p3062
aVtmax
p3063
asg22
Nsg3061
g0
(g408
g2
Ntp3064
Rp3065
(dp3066
g21
I00
sg49
I01
sg23
I00
sg50
F23.960177
sbsg3062
g0
(g408
g2
Ntp3067
Rp3068
(dp3069
g21
I00
sg49
I01
sg23
I00
sg50
F-3.178648
sbsg3063
g0
(g408
g2
Ntp3070
Rp3071
(dp3072
g21
I00
sg49
I01
sg23
I00
sg50
F16.0
sbsbag0
(g359
g2
Ntp3073
Rp3074
(dp3075
g21
I00
sg49
I01
sg23
I00
sg19
(lp3076
g3061
ag3062
ag3063
asg22
Nsg3061
g0
(g408
g2
Ntp3077
Rp3078
(dp3079
g21
I00
sg49
I01
sg23
I00
sg50
F11.977461
sbsg3062
g0
(g408
g2
Ntp3080
Rp3081
(dp3082
g21
I00
sg49
I01
sg23
I00
sg50
F-1.5610227
sbsg3063
g0
(g408
g2
Ntp3083
Rp3084
(dp3085
g21
I00
sg49
I01
sg23
I00
sg50
F10.0
sbsbag0
(g359
g2
Ntp3086
Rp3087
(dp3088
g21
I00
sg49
I01
sg23
I00
sg19
(lp3089
g3061
ag3062
ag3063
asg22
Nsg3061
g0
(g408
g2
Ntp3090
Rp3091
(dp3092
g21
I00
sg49
I01
sg23
I00
sg50
F9.109694
sbsg3062
g0
(g408
g2
Ntp3093
Rp3094
(dp3095
g21
I00
sg49
I01
sg23
I00
sg50
F-1.075824
sbsg3063
g0
(g408
g2
Ntp3096
Rp3097
(dp3098
g21
I00
sg49
I01
sg23
I00
sg50
F6.25
sbsbatp3099
Rp3100
(dp3101
g21
I00
sg49
I01
sg23
I00
sg887
I1
sbsg3051
g0
(g3017
g62
(lp3102
g0
(g359
g2
Ntp3103
Rp3104
(dp3105
g21
I00
sg49
I01
sg23
I00
sg19
(lp3106
Vcap
p3107
aVtspar0
p3108
aVtspar1
p3109
aVtspar2
p3110
aVtspar0_siPM
p3111
aVtspar1_siPM
p3112
aVtspar2_siPM
p3113
asg22
Nsg3107
g0
(g408
g2
Ntp3114
Rp3115
(dp3116
g21
I00
sg49
I01
sg23
I00
sg50
F6.0
sbsg3108
g0
(g408
g2
Ntp3117
Rp3118
(dp3119
g21
I00
sg49
I01
sg23
I00
sg50
F12.2999
sbsg3109
g0
(g408
g2
Ntp3120
Rp3121
(dp3122
g21
I00
sg49
I01
sg23
I00
sg50
F-2.19142
sbsg3110
g0
(g408
g2
Ntp3123
Rp3124
(dp3125
g21
I00
sg49
I01
sg23
I00
sg50
F0.0
sbsg3111
g0
(g408
g2
Ntp3126
Rp3127
(dp3128
g21
I00
sg49
I01
sg23
I00
sg50
F0.0
sbsg3112
g0
(g408
g2
Ntp3129
Rp3130
(dp3131
g21
I00
sg49
I01
sg23
I00
sg50
F0.0
sbsg3113
g0
(g408
g2
Ntp3132
Rp3133
(dp3134
g21
I00
sg49
I01
sg23
I00
sg50
F0.0
sbsbag0
(g359
g2
Ntp3135
Rp3136
(dp3137
g21
I00
sg49
I01
sg23
I00
sg19
(lp3138
g3107
ag3108
ag3109
ag3110
ag3111
ag3112
ag3113
asg22
Nsg3107
g0
(g408
g2
Ntp3139
Rp3140
(dp3141
g21
I00
sg49
I01
sg23
I00
sg50
F6.0
sbsg3108
g0
(g408
g2
Ntp3142
Rp3143
(dp3144
g21
I00
sg49
I01
sg23
I00
sg50
F15.5
sbsg3109
g0
(g408
g2
Ntp3145
Rp3146
(dp3147
g21
I00
sg49
I01
sg23
I00
sg50
F-3.2
sbsg3110
g0
(g408
g2
Ntp3148
Rp3149
(dp3150
g21
I00
sg49
I01
sg23
I00
sg50
F32.0
sbsg3111
g0
(g408
g2
Ntp3151
Rp3152
(dp3153
g21
I00
sg49
I01
sg23
I00
sg50
F0.0
sbsg3112
g0
(g408
g2
Ntp3154
Rp3155
(dp3156
g21
I00
sg49
I01
sg23
I00
sg50
F0.0
sbsg3113
g0
(g408
g2
Ntp3157
Rp3158
(dp3159
g21
I00
sg49
I01
sg23
I00
sg50
F0.0
sbsbag0
(g359
g2
Ntp3160
Rp3161
(dp3162
g21
I00
sg49
I01
sg23
I00
sg19
(lp3163
g3107
ag3108
ag3109
ag3110
ag3111
ag3112
ag3113
asg22
Nsg3107
g0
(g408
g2
Ntp3164
Rp3165
(dp3166
g21
I00
sg49
I01
sg23
I00
sg50
F6.0
sbsg3108
g0
(g408
g2
Ntp3167
Rp3168
(dp3169
g21
I00
sg49
I01
sg23
I00
sg50
F12.2999
sbsg3109
g0
(g408
g2
Ntp3170
Rp3171
(dp3172
g21
I00
sg49
I01
sg23
I00
sg50
F-2.19142
sbsg3110
g0
(g408
g2
Ntp3173
Rp3174
(dp3175
g21
I00
sg49
I01
sg23
I00
sg50
F0.0
sbsg3111
g0
(g408
g2
Ntp3176
Rp3177
(dp3178
g21
I00
sg49
I01
sg23
I00
sg50
F0.0
sbsg3112
g0
(g408
g2
Ntp3179
Rp3180
(dp3181
g21
I00
sg49
I01
sg23
I00
sg50
F0.0
sbsg3113
g0
(g408
g2
Ntp3182
Rp3183
(dp3184
g21
I00
sg49
I01
sg23
I00
sg50
F0.0
sbsbag0
(g359
g2
Ntp3185
Rp3186
(dp3187
g21
I00
sg49
I01
sg23
I00
sg19
(lp3188
g3107
ag3108
ag3109
ag3110
ag3111
ag3112
ag3113
asg22
Nsg3107
g0
(g408
g2
Ntp3189
Rp3190
(dp3191
g21
I00
sg49
I01
sg23
I00
sg50
F6.0
sbsg3108
g0
(g408
g2
Ntp3192
Rp3193
(dp3194
g21
I00
sg49
I01
sg23
I00
sg50
F12.2999
sbsg3109
g0
(g408
g2
Ntp3195
Rp3196
(dp3197
g21
I00
sg49
I01
sg23
I00
sg50
F-2.19142
sbsg3110
g0
(g408
g2
Ntp3198
Rp3199
(dp3200
g21
I00
sg49
I01
sg23
I00
sg50
F0.0
sbsg3111
g0
(g408
g2
Ntp3201
Rp3202
(dp3203
g21
I00
sg49
I01
sg23
I00
sg50
F0.0
sbsg3112
g0
(g408
g2
Ntp3204
Rp3205
(dp3206
g21
I00
sg49
I01
sg23
I00
sg50
F0.0
sbsg3113
g0
(g408
g2
Ntp3207
Rp3208
(dp3209
g21
I00
sg49
I01
sg23
I00
sg50
F0.0
sbsbatp3210
Rp3211
(dp3212
g21
I00
sg49
I01
sg23
I00
sg887
I1
sbsg24
V/cvmfs/cms.cern.ch/slc7_amd64_gcc12/cms/cmssw-patch/CMSSW_14_0_5_patch1/src/CalibCalorimetry/HcalPlugins/python/HcalTimeSlew_cff.py
p3213
sg26
I3
sg27
g3044
sbsVes_hardcode
p3214
g0
(g2932
g2
Ntp3215
Rp3216
(dp3217
g17
VHcalHardcodeCalibrations
p3218
sg19
(lp3219
g2974
aViLumi
p3220
aVHBRecalibration
p3221
aVHBreCalibCutoff
p3222
aVHBmeanenergies
p3223
aVHERecalibration
p3224
aVHEreCalibCutoff
p3225
aVHEmeanenergies
p3226
aVHFRecalibration
p3227
aVHFRecalParameterBlock
p3228
aVGainWidthsForTrigPrims
p3229
aVuseHBUpgrade
p3230
aVuseHEUpgrade
p3231
aVuseHFUpgrade
p3232
aVuseHOUpgrade
p3233
aVtestHFQIE10
p3234
aVtestHEPlan1
p3235
aVkillHE
p3236
aVuseLayer0Weight
p3237
aVuseIeta18depth1
p3238
aVhb
p3239
aVhe
p3240
aVhf
p3241
aVho
p3242
aVhbUpgrade
p3243
aVheUpgrade
p3244
aVhfUpgrade
p3245
aVSiPMCharacteristics
p3246
asg21
I00
sg22
Nsg2974
g0
(g429
g62
(lp3247
VGainWidths
p3248
atp3249
Rp3250
(dp3251
g21
I00
sg49
I00
sg23
I00
sg887
I1
sbsg23
I00
sg3220
g0
(g408
g2
Ntp3252
Rp3253
(dp3254
g21
I00
sg49
I01
sg23
I00
sg50
F-1.0
sbsg3221
g0
(g71
g2
Ntp3255
Rp3256
(dp3257
g21
I00
sg49
I01
sg23
I00
sg50
I00
sbsg3222
g0
(g408
g2
Ntp3258
Rp3259
(dp3260
g21
I00
sg49
I01
sg23
I00
sg50
F20.0
sbsg3223
g0
(g648
g2
Ntp3261
Rp3262
(dp3263
g21
I00
sg49
I01
sg23
I00
sg50
VCalibCalorimetry/HcalPlugins/data/meanenergiesHB.txt
p3264
sbsg3224
g0
(g71
g2
Ntp3265
Rp3266
(dp3267
g21
I00
sg49
I01
sg23
I00
sg50
I00
sbsg3225
g0
(g408
g2
Ntp3268
Rp3269
(dp3270
g21
I00
sg49
I01
sg23
I00
sg50
F20.0
sbsg3226
g0
(g648
g2
Ntp3271
Rp3272
(dp3273
g21
I00
sg49
I01
sg23
I00
sg50
VCalibCalorimetry/HcalPlugins/data/meanenergiesHE.txt
p3274
sbsg3227
g0
(g71
g2
Ntp3275
Rp3276
(dp3277
g21
I00
sg49
I01
sg23
I00
sg50
I00
sbsg3228
g0
(g359
g2
Ntp3278
Rp3279
(dp3280
g21
I00
sg49
I01
sg23
I00
sg19
(lp3281
VHFdepthOneParameterA
p3282
aVHFdepthOneParameterB
p3283
aVHFdepthTwoParameterA
p3284
aVHFdepthTwoParameterB
p3285
asg22
Nsg3282
g0
(g1797
g62
(lp3286
F0.004123
aF0.00602
aF0.008201
aF0.010489
aF0.013379
aF0.016997
aF0.021464
aF0.027371
aF0.034195
aF0.044807
aF0.058939
aF0.125497
atp3287
Rp3288
(dp3289
g21
I00
sg49
I01
sg23
I00
sbsg3283
g0
(g1797
g62
(lp3290
F-4e-06
aF-2e-06
aF0.0
aF4e-06
aF1.5e-05
aF2.6e-05
aF6.3e-05
aF8.4e-05
aF0.00016
aF0.000107
aF0.000425
aF0.000209
atp3291
Rp3292
(dp3293
g21
I00
sg49
I01
sg23
I00
sbsg3284
g0
(g1797
g62
(lp3294
F0.002861
aF0.004168
aF0.0064
aF0.008388
aF0.011601
aF0.014425
aF0.018633
aF0.023232
aF0.028274
aF0.035447
aF0.051579
aF0.086593
atp3295
Rp3296
(dp3297
g21
I00
sg49
I01
sg23
I00
sbsg3285
g0
(g1797
g62
(lp3298
F-2e-06
aF-0.0
aF-7e-06
aF-6e-06
aF-2e-06
aF1e-06
aF1.9e-05
aF3.1e-05
aF6.7e-05
aF1.2e-05
aF0.000157
aF-3e-06
atp3299
Rp3300
(dp3301
g21
I00
sg49
I01
sg23
I00
sbsg27
g3228
sbsg3229
g0
(g71
g2
Ntp3302
Rp3303
(dp3304
g21
I00
sg49
I01
sg23
I00
sg50
I00
sbsg3230
g0
(g71
g2
Ntp3305
Rp3306
(dp3307
g21
I00
sg49
I01
sg23
I00
sg50
I00
sbsg3231
g0
(g71
g2
Ntp3308
Rp3309
(dp3310
g21
I00
sg49
I01
sg23
I00
sg50
I00
sbsg3232
g0
(g71
g2
Ntp3311
Rp3312
(dp3313
g21
I00
sg49
I01
sg23
I00
sg50
I00
sbsg3233
g0
(g71
g2
Ntp3314
Rp3315
(dp3316
g21
I00
sg49
I01
sg23
I00
sg50
I01
sbsg3234
g0
(g71
g2
Ntp3317
Rp3318
(dp3319
g21
I00
sg49
I01
sg23
I00
sg50
I00
sbsg3235
g0
(g71
g2
Ntp3320
Rp3321
(dp3322
g21
I00
sg49
I01
sg23
I00
sg50
I00
sbsg3236
g0
(g71
g2
Ntp3323
Rp3324
(dp3325
g21
I00
sg49
I01
sg23
I00
sg50
I00
sbsg3237
g0
(g71
g2
Ntp3326
Rp3327
(dp3328
g21
I00
sg49
I01
sg23
I00
sg50
I00
sbsg3238
g0
(g71
g2
Ntp3329
Rp3330
(dp3331
g21
I00
sg49
I01
sg23
I00
sg50
I01
sbsg3239
g0
(g359
g2
Ntp3332
Rp3333
(dp3334
g21
I00
sg49
I01
sg23
I00
sg19
(lp3335
Vpedestal
p3336
aVpedestalWidth
p3337
aVgain
p3338
aVgainWidth
p3339
aVzsThreshold
p3340
aVqieType
p3341
aVqieOffset
p3342
aVqieSlope
p3343
aVmcShape
p3344
aVrecoShape
p3345
aVphotoelectronsToAnalog
p3346
aVdarkCurrent
p3347
aVnoiseCorrelation
p3348
aVnoiseThreshold
p3349
aVseedThreshold
p3350
aVdoRadiationDamage
p3351
asg22
Nsg3336
g0
(g408
g2
Ntp3352
Rp3353
(dp3354
g21
I00
sg49
I01
sg23
I00
sg50
F3.285
sbsg3337
g0
(g408
g2
Ntp3355
Rp3356
(dp3357
g21
I00
sg49
I01
sg23
I00
sg50
F0.809
sbsg3338
g0
(g1797
g62
(lp3358
F0.19
atp3359
Rp3360
(dp3361
g21
I00
sg49
I01
sg23
I00
sbsg3339
g0
(g1797
g62
(lp3362
F0.0
atp3363
Rp3364
(dp3365
g21
I00
sg49
I01
sg23
I00
sbsg3340
g0
(g75
g2
Ntp3366
Rp3367
(dp3368
g21
I00
sg49
I01
sg23
I00
sg50
I8
sbsg3341
g0
(g75
g2
Ntp3369
Rp3370
(dp3371
g21
I00
sg49
I01
sg23
I00
sg50
I0
sbsg3342
g0
(g1797
g62
(lp3372
F-0.49
aF1.8
aF7.2
aF37.9
atp3373
Rp3374
(dp3375
g21
I00
sg49
I01
sg23
I00
sbsg3343
g0
(g1797
g62
(lp3376
F0.912
aF0.917
aF0.922
aF0.923
atp3377
Rp3378
(dp3379
g21
I00
sg49
I01
sg23
I00
sbsg3344
g0
(g75
g2
Ntp3380
Rp3381
(dp3382
g21
I00
sg49
I01
sg23
I00
sg50
I125
sbsg3345
g0
(g75
g2
Ntp3383
Rp3384
(dp3385
g21
I00
sg49
I01
sg23
I00
sg50
I105
sbsg3346
g0
(g408
g2
Ntp3386
Rp3387
(dp3388
g21
I00
sg49
I01
sg23
I00
sg50
F0.3305
sbsg3347
g0
(g1797
g62
(lp3389
F0.0
atp3390
Rp3391
(dp3392
g21
I00
sg49
I01
sg23
I00
sbsg3348
g0
(g1797
g62
(lp3393
F0.0
atp3394
Rp3395
(dp3396
g21
I00
sg49
I01
sg23
I00
sbsg3349
g0
(g408
g2
Ntp3397
Rp3398
(dp3399
g21
I00
sg49
I01
sg23
I00
sg50
F0.0
sbsg3350
g0
(g408
g2
Ntp3400
Rp3401
(dp3402
g21
I00
sg49
I01
sg23
I00
sg50
F0.1
sbsg3351
g0
(g71
g2
Ntp3403
Rp3404
(dp3405
g21
I00
sg49
I01
sg23
I00
sg50
I00
sbsbsg3240
g0
(g359
g2
Ntp3406
Rp3407
(dp3408
g21
I00
sg49
I01
sg23
I00
sg19
(lp3409
g3336
ag3337
ag3338
ag3339
ag3340
ag3341
ag3342
ag3343
ag3344
ag3345
ag3346
ag3347
ag3348
ag3349
ag3350
ag3351
asg22
Nsg3336
g0
(g408
g2
Ntp3410
Rp3411
(dp3412
g21
I00
sg49
I01
sg23
I00
sg50
F3.163
sbsg3337
g0
(g408
g2
Ntp3413
Rp3414
(dp3415
g21
I00
sg49
I01
sg23
I00
sg50
F0.9698
sbsg3338
g0
(g1797
g62
(lp3416
F0.23
atp3417
Rp3418
(dp3419
g21
I00
sg49
I01
sg23
I00
sbsg3339
g0
(g1797
g62
(lp3420
I0
atp3421
Rp3422
(dp3423
g21
I00
sg49
I01
sg23
I00
sbsg3340
g0
(g75
g2
Ntp3424
Rp3425
(dp3426
g21
I00
sg49
I01
sg23
I00
sg50
I9
sbsg3341
g0
(g75
g2
Ntp3427
Rp3428
(dp3429
g21
I00
sg49
I01
sg23
I00
sg50
I0
sbsg3342
g0
(g1797
g62
(lp3430
F-0.38
aF2.0
aF7.6
aF39.6
atp3431
Rp3432
(dp3433
g21
I00
sg49
I01
sg23
I00
sbsg3343
g0
(g1797
g62
(lp3434
F0.912
aF0.916
aF0.92
aF0.922
atp3435
Rp3436
(dp3437
g21
I00
sg49
I01
sg23
I00
sbsg3344
g0
(g75
g2
Ntp3438
Rp3439
(dp3440
g21
I00
sg49
I01
sg23
I00
sg50
I125
sbsg3345
g0
(g75
g2
Ntp3441
Rp3442
(dp3443
g21
I00
sg49
I01
sg23
I00
sg50
I105
sbsg3346
g0
(g408
g2
Ntp3444
Rp3445
(dp3446
g21
I00
sg49
I01
sg23
I00
sg50
F0.3305
sbsg3347
g0
(g1797
g62
(lp3447
F0.0
atp3448
Rp3449
(dp3450
g21
I00
sg49
I01
sg23
I00
sbsg3348
g0
(g1797
g62
(lp3451
F0.0
atp3452
Rp3453
(dp3454
g21
I00
sg49
I01
sg23
I00
sbsg3349
g0
(g408
g2
Ntp3455
Rp3456
(dp3457
g21
I00
sg49
I01
sg23
I00
sg50
F0.0
sbsg3350
g0
(g408
g2
Ntp3458
Rp3459
(dp3460
g21
I00
sg49
I01
sg23
I00
sg50
F0.1
sbsg3351
g0
(g71
g2
Ntp3461
Rp3462
(dp3463
g21
I00
sg49
I01
sg23
I00
sg50
I00
sbsbsg3241
g0
(g359
g2
Ntp3464
Rp3465
(dp3466
g21
I00
sg49
I01
sg23
I00
sg19
(lp3467
g3336
ag3337
ag3338
ag3339
ag3340
ag3341
ag3342
ag3343
ag3344
ag3345
ag3346
ag3347
ag3348
ag3349
ag3350
ag3351
asg22
Nsg3336
g0
(g408
g2
Ntp3468
Rp3469
(dp3470
g21
I00
sg49
I01
sg23
I00
sg50
F9.354
sbsg3337
g0
(g408
g2
Ntp3471
Rp3472
(dp3473
g21
I00
sg49
I01
sg23
I00
sg50
F2.516
sbsg3338
g0
(g1797
g62
(lp3474
F0.14
aF0.135
atp3475
Rp3476
(dp3477
g21
I00
sg49
I01
sg23
I00
sbsg3339
g0
(g1797
g62
(lp3478
F0.0
aF0.0
atp3479
Rp3480
(dp3481
g21
I00
sg49
I01
sg23
I00
sbsg3340
g0
(g75
g2
Ntp3482
Rp3483
(dp3484
g21
I00
sg49
I01
sg23
I00
sg50
I-9999
sbsg3341
g0
(g75
g2
Ntp3485
Rp3486
(dp3487
g21
I00
sg49
I01
sg23
I00
sg50
I0
sbsg3342
g0
(g1797
g62
(lp3488
F-0.87
aF1.4
aF7.8
aF-29.6
atp3489
Rp3490
(dp3491
g21
I00
sg49
I01
sg23
I00
sbsg3343
g0
(g1797
g62
(lp3492
F0.359
aF0.358
aF0.36
aF0.367
atp3493
Rp3494
(dp3495
g21
I00
sg49
I01
sg23
I00
sbsg3344
g0
(g75
g2
Ntp3496
Rp3497
(dp3498
g21
I00
sg49
I01
sg23
I00
sg50
I301
sbsg3345
g0
(g75
g2
Ntp3499
Rp3500
(dp3501
g21
I00
sg49
I01
sg23
I00
sg50
I301
sbsg3346
g0
(g408
g2
Ntp3502
Rp3503
(dp3504
g21
I00
sg49
I01
sg23
I00
sg50
F0.0
sbsg3347
g0
(g1797
g62
(lp3505
F0.0
atp3506
Rp3507
(dp3508
g21
I00
sg49
I01
sg23
I00
sbsg3348
g0
(g1797
g62
(lp3509
F0.0
atp3510
Rp3511
(dp3512
g21
I00
sg49
I01
sg23
I00
sbsg3349
g0
(g408
g2
Ntp3513
Rp3514
(dp3515
g21
I00
sg49
I01
sg23
I00
sg50
F0.0
sbsg3350
g0
(g408
g2
Ntp3516
Rp3517
(dp3518
g21
I00
sg49
I01
sg23
I00
sg50
F0.1
sbsg3351
g0
(g71
g2
Ntp3519
Rp3520
(dp3521
g21
I00
sg49
I01
sg23
I00
sg50
I00
sbsbsg3242
g0
(g359
g2
Ntp3522
Rp3523
(dp3524
g21
I00
sg49
I01
sg23
I00
sg19
(lp3525
g3336
ag3337
ag3338
ag3339
ag3340
ag3341
ag3342
ag3343
ag3344
ag3345
ag3346
ag3347
ag3348
ag3349
ag3350
ag3351
asg22
Nsg3336
g0
(g408
g2
Ntp3526
Rp3527
(dp3528
g21
I00
sg49
I01
sg23
I00
sg50
F12.06
sbsg3337
g0
(g408
g2
Ntp3529
Rp3530
(dp3531
g21
I00
sg49
I01
sg23
I00
sg50
F0.6285
sbsg3338
g0
(g1797
g62
(lp3532
F0.006
aF0.0087
atp3533
Rp3534
(dp3535
g21
I00
sg49
I01
sg23
I00
sbsg3339
g0
(g1797
g62
(lp3536
F0.0
aF0.0
atp3537
Rp3538
(dp3539
g21
I00
sg49
I01
sg23
I00
sbsg3340
g0
(g75
g2
Ntp3540
Rp3541
(dp3542
g21
I00
sg49
I01
sg23
I00
sg50
I24
sbsg3341
g0
(g75
g2
Ntp3543
Rp3544
(dp3545
g21
I00
sg49
I01
sg23
I00
sg50
I0
sbsg3342
g0
(g1797
g62
(lp3546
F-0.44
aF1.4
aF7.1
aF38.5
atp3547
Rp3548
(dp3549
g21
I00
sg49
I01
sg23
I00
sbsg3343
g0
(g1797
g62
(lp3550
F0.907
aF0.915
aF0.92
aF0.921
atp3551
Rp3552
(dp3553
g21
I00
sg49
I01
sg23
I00
sbsg3344
g0
(g75
g2
Ntp3554
Rp3555
(dp3556
g21
I00
sg49
I01
sg23
I00
sg50
I201
sbsg3345
g0
(g75
g2
Ntp3557
Rp3558
(dp3559
g21
I00
sg49
I01
sg23
I00
sg50
I201
sbsg3346
g0
(g408
g2
Ntp3560
Rp3561
(dp3562
g21
I00
sg49
I01
sg23
I00
sg50
F4.0
sbsg3347
g0
(g1797
g62
(lp3563
F0.0
atp3564
Rp3565
(dp3566
g21
I00
sg49
I01
sg23
I00
sbsg3348
g0
(g1797
g62
(lp3567
F0.0
atp3568
Rp3569
(dp3570
g21
I00
sg49
I01
sg23
I00
sbsg3349
g0
(g408
g2
Ntp3571
Rp3572
(dp3573
g21
I00
sg49
I01
sg23
I00
sg50
F0.0
sbsg3350
g0
(g408
g2
Ntp3574
Rp3575
(dp3576
g21
I00
sg49
I01
sg23
I00
sg50
F0.1
sbsg3351
g0
(g71
g2
Ntp3577
Rp3578
(dp3579
g21
I00
sg49
I01
sg23
I00
sg50
I00
sbsbsg3243
g0
(g359
g2
Ntp3580
Rp3581
(dp3582
g21
I00
sg49
I01
sg23
I00
sg19
(lp3583
g3336
ag3337
ag3338
ag3339
ag3340
ag3341
ag3342
ag3343
ag3344
ag3345
ag3346
ag3347
ag3348
ag3349
ag3350
ag3351
aVradiationDamage
p3584
asg22
Nsg3336
g0
(g408
g2
Ntp3585
Rp3586
(dp3587
g21
I00
sg49
I01
sg23
I00
sg50
F17.3
sbsg3337
g0
(g408
g2
Ntp3588
Rp3589
(dp3590
g21
I00
sg49
I01
sg23
I00
sg50
F1.5
sbsg3338
g0
(g1797
g62
(lp3591
F0.0006252
atp3592
Rp3593
(dp3594
g21
I00
sg49
I01
sg23
I00
sbsg3339
g0
(g1797
g62
(lp3595
I0
atp3596
Rp3597
(dp3598
g21
I00
sg49
I01
sg23
I00
sbsg3340
g0
(g75
g2
Ntp3599
Rp3600
(dp3601
g21
I00
sg49
I01
sg23
I00
sg50
I16
sbsg3341
g0
(g75
g2
Ntp3602
Rp3603
(dp3604
g21
I00
sg49
I01
sg23
I00
sg50
I2
sbsg3342
g0
(g1797
g62
(lp3605
F0.0
aF0.0
aF0.0
aF0.0
atp3606
Rp3607
(dp3608
g21
I00
sg49
I01
sg23
I00
sbsg3343
g0
(g1797
g62
(lp3609
F0.05376
aF0.05376
aF0.05376
aF0.05376
atp3610
Rp3611
(dp3612
g21
I00
sg49
I01
sg23
I00
sbsg3344
g0
(g75
g2
Ntp3613
Rp3614
(dp3615
g21
I00
sg49
I01
sg23
I00
sg50
I206
sbsg3345
g0
(g75
g2
Ntp3616
Rp3617
(dp3618
g21
I00
sg49
I01
sg23
I00
sg50
I208
sbsg3346
g0
(g408
g2
Ntp3619
Rp3620
(dp3621
g21
I00
sg49
I01
sg23
I00
sg50
F40.0
sbsg3347
g0
(g1797
g62
(lp3622
F0.01
aF0.015
atp3623
Rp3624
(dp3625
g21
I00
sg49
I01
sg23
I00
sbsg3348
g0
(g1797
g62
(lp3626
F0.26
aF0.254
atp3627
Rp3628
(dp3629
g21
I00
sg49
I01
sg23
I00
sbsg3349
g0
(g408
g2
Ntp3630
Rp3631
(dp3632
g21
I00
sg49
I01
sg23
I00
sg50
F0.0
sbsg3350
g0
(g408
g2
Ntp3633
Rp3634
(dp3635
g21
I00
sg49
I01
sg23
I00
sg50
F0.1
sbsg3351
g0
(g71
g2
Ntp3636
Rp3637
(dp3638
g21
I00
sg49
I01
sg23
I00
sg50
I01
sbsg3584
g0
(g359
g2
Ntp3639
Rp3640
(dp3641
g21
I00
sg49
I01
sg23
I00
sg19
(lp3642
VtemperatureBase
p3643
aVtemperatureNew
p3644
aVintlumiOffset
p3645
aVdepVsTemp
p3646
aVintlumiToNeutrons
p3647
aVdepVsNeutrons
p3648
asg22
Nsg3643
g0
(g408
g2
Ntp3649
Rp3650
(dp3651
g21
I00
sg49
I01
sg23
I00
sg50
I20
sbsg3644
g0
(g408
g2
Ntp3652
Rp3653
(dp3654
g21
I00
sg49
I01
sg23
I00
sg50
I-5
sbsg3645
g0
(g408
g2
Ntp3655
Rp3656
(dp3657
g21
I00
sg49
I01
sg23
I00
sg50
I150
sbsg3646
g0
(g408
g2
Ntp3658
Rp3659
(dp3660
g21
I00
sg49
I01
sg23
I00
sg50
F0.0631
sbsg3647
g0
(g408
g2
Ntp3661
Rp3662
(dp3663
g21
I00
sg49
I01
sg23
I00
sg50
F367000000.0
sbsg3648
g0
(g1797
g62
(lp3664
F5.543e-10
aF8.012e-10
atp3665
Rp3666
(dp3667
g21
I00
sg49
I01
sg23
I00
sbsbsbsg3244
g0
(g359
g2
Ntp3668
Rp3669
(dp3670
g21
I00
sg49
I01
sg23
I00
sg19
(lp3671
g3336
ag3337
ag3338
ag3339
ag3340
ag3341
ag3342
ag3343
ag3344
ag3345
ag3346
ag3347
ag3348
ag3349
ag3350
ag3351
ag3584
asg22
Nsg3336
g0
(g408
g2
Ntp3672
Rp3673
(dp3674
g21
I00
sg49
I01
sg23
I00
sg50
F17.3
sbsg3337
g0
(g408
g2
Ntp3675
Rp3676
(dp3677
g21
I00
sg49
I01
sg23
I00
sg50
F1.5
sbsg3338
g0
(g1797
g62
(lp3678
F0.0006252
atp3679
Rp3680
(dp3681
g21
I00
sg49
I01
sg23
I00
sbsg3339
g0
(g1797
g62
(lp3682
I0
atp3683
Rp3684
(dp3685
g21
I00
sg49
I01
sg23
I00
sbsg3340
g0
(g75
g2
Ntp3686
Rp3687
(dp3688
g21
I00
sg49
I01
sg23
I00
sg50
I16
sbsg3341
g0
(g75
g2
Ntp3689
Rp3690
(dp3691
g21
I00
sg49
I01
sg23
I00
sg50
I2
sbsg3342
g0
(g1797
g62
(lp3692
F0.0
aF0.0
aF0.0
aF0.0
atp3693
Rp3694
(dp3695
g21
I00
sg49
I01
sg23
I00
sbsg3343
g0
(g1797
g62
(lp3696
F0.05376
aF0.05376
aF0.05376
aF0.05376
atp3697
Rp3698
(dp3699
g21
I00
sg49
I01
sg23
I00
sbsg3344
g0
(g75
g2
Ntp3700
Rp3701
(dp3702
g21
I00
sg49
I01
sg23
I00
sg50
I206
sbsg3345
g0
(g75
g2
Ntp3703
Rp3704
(dp3705
g21
I00
sg49
I01
sg23
I00
sg50
I208
sbsg3346
g0
(g408
g2
Ntp3706
Rp3707
(dp3708
g21
I00
sg49
I01
sg23
I00
sg50
F40.0
sbsg3347
g0
(g1797
g62
(lp3709
F0.01
aF0.015
atp3710
Rp3711
(dp3712
g21
I00
sg49
I01
sg23
I00
sbsg3348
g0
(g1797
g62
(lp3713
F0.26
aF0.254
atp3714
Rp3715
(dp3716
g21
I00
sg49
I01
sg23
I00
sbsg3349
g0
(g408
g2
Ntp3717
Rp3718
(dp3719
g21
I00
sg49
I01
sg23
I00
sg50
F0.0
sbsg3350
g0
(g408
g2
Ntp3720
Rp3721
(dp3722
g21
I00
sg49
I01
sg23
I00
sg50
F0.1
sbsg3351
g0
(g71
g2
Ntp3723
Rp3724
(dp3725
g21
I00
sg49
I01
sg23
I00
sg50
I01
sbsg3584
g0
(g359
g2
Ntp3726
Rp3727
(dp3728
g21
I00
sg49
I01
sg23
I00
sg19
(lp3729
g3643
ag3644
ag3645
ag3646
ag3647
ag3648
asg22
Nsg3643
g0
(g408
g2
Ntp3730
Rp3731
(dp3732
g21
I00
sg49
I01
sg23
I00
sg50
I20
sbsg3644
g0
(g408
g2
Ntp3733
Rp3734
(dp3735
g21
I00
sg49
I01
sg23
I00
sg50
I5
sbsg3645
g0
(g408
g2
Ntp3736
Rp3737
(dp3738
g21
I00
sg49
I01
sg23
I00
sg50
I75
sbsg3646
g0
(g408
g2
Ntp3739
Rp3740
(dp3741
g21
I00
sg49
I01
sg23
I00
sg50
F0.0631
sbsg3647
g0
(g408
g2
Ntp3742
Rp3743
(dp3744
g21
I00
sg49
I01
sg23
I00
sg50
F29200000.0
sbsg3648
g0
(g1797
g62
(lp3745
F5.543e-10
aF8.012e-10
atp3746
Rp3747
(dp3748
g21
I00
sg49
I01
sg23
I00
sbsbsbsg3245
g0
(g359
g2
Ntp3749
Rp3750
(dp3751
g21
I00
sg49
I01
sg23
I00
sg19
(lp3752
g3336
ag3337
ag3338
ag3339
ag3340
ag3341
ag3342
ag3343
ag3344
ag3345
ag3346
ag3347
ag3348
ag3349
ag3350
ag3351
asg22
Nsg3336
g0
(g408
g2
Ntp3753
Rp3754
(dp3755
g21
I00
sg49
I01
sg23
I00
sg50
F13.33
sbsg3337
g0
(g408
g2
Ntp3756
Rp3757
(dp3758
g21
I00
sg49
I01
sg23
I00
sg50
F3.33
sbsg3338
g0
(g1797
g62
(lp3759
F0.14
aF0.135
atp3760
Rp3761
(dp3762
g21
I00
sg49
I01
sg23
I00
sbsg3339
g0
(g1797
g62
(lp3763
F0.0
aF0.0
atp3764
Rp3765
(dp3766
g21
I00
sg49
I01
sg23
I00
sbsg3340
g0
(g75
g2
Ntp3767
Rp3768
(dp3769
g21
I00
sg49
I01
sg23
I00
sg50
I-9999
sbsg3341
g0
(g75
g2
Ntp3770
Rp3771
(dp3772
g21
I00
sg49
I01
sg23
I00
sg50
I1
sbsg3342
g0
(g1797
g62
(lp3773
F0.0697
aF-0.7405
aF12.38
aF-671.9
atp3774
Rp3775
(dp3776
g21
I00
sg49
I01
sg23
I00
sbsg3343
g0
(g1797
g62
(lp3777
F0.297
aF0.298
aF0.298
aF0.313
atp3778
Rp3779
(dp3780
g21
I00
sg49
I01
sg23
I00
sbsg3344
g0
(g75
g2
Ntp3781
Rp3782
(dp3783
g21
I00
sg49
I01
sg23
I00
sg50
I301
sbsg3345
g0
(g75
g2
Ntp3784
Rp3785
(dp3786
g21
I00
sg49
I01
sg23
I00
sg50
I301
sbsg3346
g0
(g408
g2
Ntp3787
Rp3788
(dp3789
g21
I00
sg49
I01
sg23
I00
sg50
F0.0
sbsg3347
g0
(g1797
g62
(lp3790
F0.0
atp3791
Rp3792
(dp3793
g21
I00
sg49
I01
sg23
I00
sbsg3348
g0
(g1797
g62
(lp3794
F0.0
atp3795
Rp3796
(dp3797
g21
I00
sg49
I01
sg23
I00
sbsg3349
g0
(g408
g2
Ntp3798
Rp3799
(dp3800
g21
I00
sg49
I01
sg23
I00
sg50
F0.0
sbsg3350
g0
(g408
g2
Ntp3801
Rp3802
(dp3803
g21
I00
sg49
I01
sg23
I00
sg50
F0.1
sbsg3351
g0
(g71
g2
Ntp3804
Rp3805
(dp3806
g21
I00
sg49
I01
sg23
I00
sg50
I00
sbsbsg3246
g0
(g3017
g62
(lp3807
g0
(g359
g2
Ntp3808
Rp3809
(dp3810
g21
I00
sg49
I01
sg23
I00
sg19
(lp3811
Vpixels
p3812
aVcrosstalk
p3813
aVnonlin1
p3814
aVnonlin2
p3815
aVnonlin3
p3816
asg22
Nsg3812
g0
(g75
g2
Ntp3817
Rp3818
(dp3819
g21
I00
sg49
I01
sg23
I00
sg50
I36000
sbsg3813
g0
(g408
g2
Ntp3820
Rp3821
(dp3822
g21
I00
sg49
I01
sg23
I00
sg50
F0.0
sbsg3814
g0
(g408
g2
Ntp3823
Rp3824
(dp3825
g21
I00
sg49
I01
sg23
I00
sg50
F1.0
sbsg3815
g0
(g408
g2
Ntp3826
Rp3827
(dp3828
g21
I00
sg49
I01
sg23
I00
sg50
F0.0
sbsg3816
g0
(g408
g2
Ntp3829
Rp3830
(dp3831
g21
I00
sg49
I01
sg23
I00
sg50
F0.0
sbsbag0
(g359
g2
Ntp3832
Rp3833
(dp3834
g21
I00
sg49
I01
sg23
I00
sg19
(lp3835
g3812
ag3813
ag3814
ag3815
ag3816
asg22
Nsg3812
g0
(g75
g2
Ntp3836
Rp3837
(dp3838
g21
I00
sg49
I01
sg23
I00
sg50
I2500
sbsg3813
g0
(g408
g2
Ntp3839
Rp3840
(dp3841
g21
I00
sg49
I01
sg23
I00
sg50
F0.0
sbsg3814
g0
(g408
g2
Ntp3842
Rp3843
(dp3844
g21
I00
sg49
I01
sg23
I00
sg50
F1.0
sbsg3815
g0
(g408
g2
Ntp3845
Rp3846
(dp3847
g21
I00
sg49
I01
sg23
I00
sg50
F0.0
sbsg3816
g0
(g408
g2
Ntp3848
Rp3849
(dp3850
g21
I00
sg49
I01
sg23
I00
sg50
F0.0
sbsbag0
(g359
g2
Ntp3851
Rp3852
(dp3853
g21
I00
sg49
I01
sg23
I00
sg19
(lp3854
g3812
ag3813
ag3814
ag3815
ag3816
asg22
Nsg3812
g0
(g75
g2
Ntp3855
Rp3856
(dp3857
g21
I00
sg49
I01
sg23
I00
sg50
I27370
sbsg3813
g0
(g408
g2
Ntp3858
Rp3859
(dp3860
g21
I00
sg49
I01
sg23
I00
sg50
F0.17
sbsg3814
g0
(g408
g2
Ntp3861
Rp3862
(dp3863
g21
I00
sg49
I01
sg23
I00
sg50
F1.00985
sbsg3815
g0
(g408
g2
Ntp3864
Rp3865
(dp3866
g21
I00
sg49
I01
sg23
I00
sg50
F7.84089e-06
sbsg3816
g0
(g408
g2
Ntp3867
Rp3868
(dp3869
g21
I00
sg49
I01
sg23
I00
sg50
F2.86282e-10
sbsbag0
(g359
g2
Ntp3870
Rp3871
(dp3872
g21
I00
sg49
I01
sg23
I00
sg19
(lp3873
g3812
ag3813
ag3814
ag3815
ag3816
asg22
Nsg3812
g0
(g75
g2
Ntp3874
Rp3875
(dp3876
g21
I00
sg49
I01
sg23
I00
sg50
I38018
sbsg3813
g0
(g408
g2
Ntp3877
Rp3878
(dp3879
g21
I00
sg49
I01
sg23
I00
sg50
F0.196
sbsg3814
g0
(g408
g2
Ntp3880
Rp3881
(dp3882
g21
I00
sg49
I01
sg23
I00
sg50
F1.00546
sbsg3815
g0
(g408
g2
Ntp3883
Rp3884
(dp3885
g21
I00
sg49
I01
sg23
I00
sg50
F6.40239e-06
sbsg3816
g0
(g408
g2
Ntp3886
Rp3887
(dp3888
g21
I00
sg49
I01
sg23
I00
sg50
F1.27011e-10
sbsbag0
(g359
g2
Ntp3889
Rp3890
(dp3891
g21
I00
sg49
I01
sg23
I00
sg19
(lp3892
g3812
ag3813
ag3814
ag3815
ag3816
asg22
Nsg3812
g0
(g75
g2
Ntp3893
Rp3894
(dp3895
g21
I00
sg49
I01
sg23
I00
sg50
I27370
sbsg3813
g0
(g408
g2
Ntp3896
Rp3897
(dp3898
g21
I00
sg49
I01
sg23
I00
sg50
F0.17
sbsg3814
g0
(g408
g2
Ntp3899
Rp3900
(dp3901
g21
I00
sg49
I01
sg23
I00
sg50
F1.00985
sbsg3815
g0
(g408
g2
Ntp3902
Rp3903
(dp3904
g21
I00
sg49
I01
sg23
I00
sg50
F7.84089e-06
sbsg3816
g0
(g408
g2
Ntp3905
Rp3906
(dp3907
g21
I00
sg49
I01
sg23
I00
sg50
F2.86282e-10
sbsbag0
(g359
g2
Ntp3908
Rp3909
(dp3910
g21
I00
sg49
I01
sg23
I00
sg19
(lp3911
g3812
ag3813
ag3814
ag3815
ag3816
asg22
Nsg3812
g0
(g75
g2
Ntp3912
Rp3913
(dp3914
g21
I00
sg49
I01
sg23
I00
sg50
I38018
sbsg3813
g0
(g408
g2
Ntp3915
Rp3916
(dp3917
g21
I00
sg49
I01
sg23
I00
sg50
F0.196
sbsg3814
g0
(g408
g2
Ntp3918
Rp3919
(dp3920
g21
I00
sg49
I01
sg23
I00
sg50
F1.00546
sbsg3815
g0
(g408
g2
Ntp3921
Rp3922
(dp3923
g21
I00
sg49
I01
sg23
I00
sg50
F6.40239e-06
sbsg3816
g0
(g408
g2
Ntp3924
Rp3925
(dp3926
g21
I00
sg49
I01
sg23
I00
sg50
F1.27011e-10
sbsbag0
(g359
g2
Ntp3927
Rp3928
(dp3929
g21
I00
sg49
I01
sg23
I00
sg19
(lp3930
g3812
ag3813
ag3814
ag3815
ag3816
asg22
Nsg3812
g0
(g75
g2
Ntp3931
Rp3932
(dp3933
g21
I00
sg49
I01
sg23
I00
sg50
I0
sbsg3813
g0
(g408
g2
Ntp3934
Rp3935
(dp3936
g21
I00
sg49
I01
sg23
I00
sg50
F0.0
sbsg3814
g0
(g408
g2
Ntp3937
Rp3938
(dp3939
g21
I00
sg49
I01
sg23
I00
sg50
F1.0
sbsg3815
g0
(g408
g2
Ntp3940
Rp3941
(dp3942
g21
I00
sg49
I01
sg23
I00
sg50
F0.0
sbsg3816
g0
(g408
g2
Ntp3943
Rp3944
(dp3945
g21
I00
sg49
I01
sg23
I00
sg50
F0.0
sbsbatp3946
Rp3947
(dp3948
g21
I00
sg49
I01
sg23
I00
sg887
I1
sbsg24
V/cvmfs/cms.cern.ch/slc7_amd64_gcc12/cms/cmssw-patch/CMSSW_14_0_5_patch1/src/CalibCalorimetry/HcalPlugins/python/Hcal_Conditions_forGlobalTag_cff.py
p3949
sg26
I16
sg27
g3214
sbssV_Process__esproducers
p3950
(dp3951
VCSCGeometryESModule
p3952
g0
(cFWCore.ParameterSet.Modules
ESProducer
p3953
g2
Ntp3954
Rp3955
(dp3956
g17
g3952
sg19
(lp3957
VfromDDD
p3958
aVfromDD4hep
p3959
aValignmentsLabel
p3960
ag3049
aVuseRealWireGeometry
p3961
aVuseOnlyWiresInME1a
p3962
aVuseGangedStripsInME1a
p3963
aVuseCentreTIOffsets
p3964
aVapplyAlignment
p3965
aVdebugV
p3966
asg21
I00
sg22
Nsg3958
g0
(g71
g2
Ntp3967
Rp3968
(dp3969
g21
I00
sg49
I01
sg23
I00
sg50
I00
sbsg23
I00
sg3959
g0
(g71
g2
Ntp3970
Rp3971
(dp3972
g21
I00
sg49
I01
sg23
I00
sg50
I00
sbsg3960
g0
(g45
g2
Ntp3973
Rp3974
(dp3975
g21
I00
sg49
I01
sg23
I00
sg50
g59
sbsg3049
g0
(g45
g2
Ntp3976
Rp3977
(dp3978
g21
I00
sg49
I01
sg23
I00
sg50
g59
sbsg3961
g0
(g71
g2
Ntp3979
Rp3980
(dp3981
g21
I00
sg49
I01
sg23
I00
sg50
I01
sbsg3962
g0
(g71
g2
Ntp3982
Rp3983
(dp3984
g21
I00
sg49
I01
sg23
I00
sg50
I00
sbsg3963
g0
(g71
g2
Ntp3985
Rp3986
(dp3987
g21
I00
sg49
I01
sg23
I00
sg50
I01
sbsg3964
g0
(g71
g2
Ntp3988
Rp3989
(dp3990
g21
I00
sg49
I01
sg23
I00
sg50
I00
sbsg3965
g0
(g71
g2
Ntp3991
Rp3992
(dp3993
g21
I00
sg49
I01
sg23
I00
sg50
I01
sbsg3966
g0
(g71
g2
Ntp3994
Rp3995
(dp3996
g21
I00
sg49
I00
sg23
I00
sg50
I00
sbsg24
g1743
sg26
I55
sg27
g3952
sbsVCaloGeometryBuilder
p3997
g0
(g3953
g2
Ntp3998
Rp3999
(dp4000
g17
g3997
sg19
(lp4001
VSelectedCalos
p4002
asg21
I00
sg22
Nsg4002
g0
(g429
g62
(lp4003
VHCAL
p4004
aVZDC
p4005
aVCASTOR
p4006
aVEcalBarrel
p4007
aVEcalEndcap
p4008
aVEcalPreshower
p4009
aVTOWER
p4010
atp4011
Rp4012
(dp4013
g21
I00
sg49
I01
sg23
I00
sg887
I1
sbsg23
I00
sg24
g1743
sg26
I55
sg27
g3997
sbsVCaloTopologyBuilder
p4014
g0
(g3953
g2
Ntp4015
Rp4016
(dp4017
g17
g4014
sg19
(lp4018
sg21
I00
sg22
Nsg23
I00
sg24
g1743
sg26
I55
sg27
g4014
sbsVCaloTowerGeometryFromDBEP
p4019
g0
(g3953
g2
Ntp4020
Rp4021
(dp4022
g17
g4019
sg19
(lp4023
g3965
asg21
I00
sg22
Nsg3965
g0
(g71
g2
Ntp4024
Rp4025
(dp4026
g21
I00
sg49
I01
sg23
I00
sg50
I00
sbsg23
I00
sg24
g1743
sg26
I55
sg27
g4019
sbsVCaloTowerTopologyEP
p4027
g0
(g3953
g2
Ntp4028
Rp4029
(dp4030
g17
g4027
sg19
(lp4031
sg21
I00
sg22
Nsg23
I00
sg24
g1743
sg26
I55
sg27
g4027
sbsVCastorGeometryFromDBEP
p4032
g0
(g3953
g2
Ntp4033
Rp4034
(dp4035
g17
g4032
sg19
(lp4036
g3965
asg21
I00
sg22
Nsg3965
g0
(g71
g2
Ntp4037
Rp4038
(dp4039
g21
I00
sg49
I01
sg23
I00
sg50
I00
sbsg23
I00
sg24
g1743
sg26
I55
sg27
g4032
sbsVDTGeometryESModule
p4040
g0
(g3953
g2
Ntp4041
Rp4042
(dp4043
g17
g4040
sg19
(lp4044
g3958
ag3959
aVDDDetector
p4045
ag3960
ag3049
aVattribute
p4046
aVvalue
p4047
ag3965
asg21
I00
sg22
Nsg3958
g0
(g71
g2
Ntp4048
Rp4049
(dp4050
g21
I00
sg49
I01
sg23
I01
sg50
I00
sbsg23
I01
sg3959
g0
(g71
g2
Ntp4051
Rp4052
(dp4053
g21
I00
sg49
I01
sg23
I00
sg50
I00
sbsg4045
g0
(cFWCore.ParameterSet.Types
ESInputTag
p4054
g2
Ntp4055
Rp4056
(dp4057
g21
I00
sg49
I01
sg23
I00
sV_ESInputTag__moduleLabel
p4058
g59
sV_ESInputTag__data
p4059
g59
sbsg3960
g0
(g45
g2
Ntp4060
Rp4061
(dp4062
g21
I00
sg49
I01
sg23
I00
sg50
g59
sbsg3049
g0
(g45
g2
Ntp4063
Rp4064
(dp4065
g21
I00
sg49
I01
sg23
I00
sg50
g59
sbsg4046
g0
(g45
g2
Ntp4066
Rp4067
(dp4068
g21
I00
sg49
I01
sg23
I00
sg50
VMuStructure
p4069
sbsg4047
g0
(g45
g2
Ntp4070
Rp4071
(dp4072
g21
I00
sg49
I01
sg23
I00
sg50
VMuonBarrelDT
p4073
sbsg3965
g0
(g71
g2
Ntp4074
Rp4075
(dp4076
g21
I00
sg49
I01
sg23
I00
sg50
I01
sbsg24
g1743
sg26
I55
sg27
g4040
sbsVEcalBarrelGeometryFromDBEP
p4077
g0
(g3953
g2
Ntp4078
Rp4079
(dp4080
g17
g4077
sg19
(lp4081
g3965
asg21
I00
sg22
Nsg3965
g0
(g71
g2
Ntp4082
Rp4083
(dp4084
g21
I00
sg49
I01
sg23
I01
sg50
I01
sbsg23
I01
sg24
g1743
sg26
I55
sg27
g4077
sbsVEcalElectronicsMappingBuilder
p4085
g0
(g3953
g2
Ntp4086
Rp4087
(dp4088
g17
g4085
sg19
(lp4089
sg21
I00
sg22
Nsg23
I00
sg24
g1743
sg26
I55
sg27
g4085
sbsVEcalEndcapGeometryFromDBEP
p4090
g0
(g3953
g2
Ntp4091
Rp4092
(dp4093
g17
g4090
sg19
(lp4094
g3965
asg21
I00
sg22
Nsg3965
g0
(g71
g2
Ntp4095
Rp4096
(dp4097
g21
I00
sg49
I01
sg23
I01
sg50
I01
sbsg23
I01
sg24
g1743
sg26
I55
sg27
g4090
sbsVEcalPreshowerGeometryFromDBEP
p4098
g0
(g3953
g2
Ntp4099
Rp4100
(dp4101
g17
g4098
sg19
(lp4102
g3965
asg21
I00
sg22
Nsg3965
g0
(g71
g2
Ntp4103
Rp4104
(dp4105
g21
I00
sg49
I01
sg23
I01
sg50
I01
sbsg23
I01
sg24
g1743
sg26
I55
sg27
g4098
sbsVEcalTrigTowerConstituentsMapBuilder
p4106
g0
(g3953
g2
Ntp4107
Rp4108
(dp4109
g17
g4106
sg19
(lp4110
VMapFile
p4111
asg21
I00
sg22
Nsg4111
g0
(g45
g2
Ntp4112
Rp4113
(dp4114
g21
I00
sg49
I00
sg23
I00
sg50
VGeometry/EcalMapping/data/EndCap_TTMap.txt
p4115
sbsg23
I00
sg24
g1743
sg26
I55
sg27
g4106
sbsVGlobalTrackingGeometryESProducer
p4116
g0
(g3953
g2
Ntp4117
Rp4118
(dp4119
g17
g4116
sg19
(lp4120
sg21
I00
sg22
Nsg23
I00
sg24
g1743
sg26
I55
sg27
g4116
sbsVHcalAlignmentEP
p4121
g0
(g3953
g2
Ntp4122
Rp4123
(dp4124
g17
g4121
sg19
(lp4125
sg21
I00
sg22
Nsg23
I00
sg24
g1743
sg26
I55
sg27
g4121
sbsVHcalGeometryFromDBEP
p4126
g0
(g3953
g2
Ntp4127
Rp4128
(dp4129
g17
g4126
sg19
(lp4130
g3965
asg21
I00
sg22
Nsg3965
g0
(g71
g2
Ntp4131
Rp4132
(dp4133
g21
I00
sg49
I01
sg23
I01
sg50
I01
sbsg23
I01
sg24
g1743
sg26
I55
sg27
g4126
sbsVMuonDetLayerGeometryESProducer
p4134
g0
(g3953
g2
Ntp4135
Rp4136
(dp4137
g17
g4134
sg19
(lp4138
sg21
I00
sg22
Nsg23
I00
sg24
g1743
sg26
I55
sg27
g4134
sbsVRPCGeometryESModule
p4139
g0
(g3953
g2
Ntp4140
Rp4141
(dp4142
g17
g4139
sg19
(lp4143
g3958
ag3959
asg21
I00
sg22
Nsg3958
g0
(g71
g2
Ntp4144
Rp4145
(dp4146
g21
I00
sg49
I00
sg23
I00
sg50
I00
sbsg23
I00
sg3959
g0
(g71
g2
Ntp4147
Rp4148
(dp4149
g21
I00
sg49
I00
sg23
I00
sg50
I00
sbsg24
g1743
sg26
I55
sg27
g4139
sbsVTrackerRecoGeometryESProducer
p4150
g0
(g3953
g2
Ntp4151
Rp4152
(dp4153
g17
g4150
sg19
(lp4154
VusePhase2Stacks
p4155
asg21
I00
sg22
Nsg4155
g0
(g71
g2
Ntp4156
Rp4157
(dp4158
g21
I00
sg49
I01
sg23
I00
sg50
I00
sbsg23
I00
sg24
g1743
sg26
I55
sg27
g4150
sbsVZdcGeometryFromDBEP
p4159
g0
(g3953
g2
Ntp4160
Rp4161
(dp4162
g17
g4159
sg19
(lp4163
g3965
asg21
I00
sg22
Nsg3965
g0
(g71
g2
Ntp4164
Rp4165
(dp4166
g21
I00
sg49
I01
sg23
I00
sg50
I00
sbsg23
I00
sg24
g1743
sg26
I55
sg27
g4159
sbsVfakeForIdealAlignment
p4167
g0
(g3953
g2
Ntp4168
Rp4169
(dp4170
g17
VFakeAlignmentProducer
p4171
sg19
(lp4172
g3049
asg21
I00
sg22
Nsg3049
g0
(g45
g2
Ntp4173
Rp4174
(dp4175
g21
I00
sg49
I01
sg23
I01
sg50
VfakeForIdeal
p4176
sbsg23
I01
sg24
V/cvmfs/cms.cern.ch/slc7_amd64_gcc12/cms/cmssw-patch/CMSSW_14_0_5_patch1/src/Alignment/CommonAlignmentProducer/python/fakeForIdealAlignmentProducer_cfi.py
p4177
sg26
I5
sg27
g4167
sbsVhcalDDDRecConstants
p4178
g0
(g3953
g2
Ntp4179
Rp4180
(dp4181
g17
VHcalDDDRecConstantsESModule
p4182
sg19
(lp4183
g3049
asg21
I00
sg22
Nsg3049
g0
(g45
g2
Ntp4184
Rp4185
(dp4186
g21
I00
sg49
I01
sg23
I00
sg50
g59
sbsg23
I00
sg24
g1743
sg26
I55
sg27
g4178
sbsVhcalDDDSimConstants
p4187
g0
(g3953
g2
Ntp4188
Rp4189
(dp4190
g17
VHcalDDDSimConstantsESModule
p4191
sg19
(lp4192
g3049
asg21
I00
sg22
Nsg3049
g0
(g45
g2
Ntp4193
Rp4194
(dp4195
g21
I00
sg49
I01
sg23
I00
sg50
g59
sbsg23
I00
sg24
g1743
sg26
I55
sg27
g4187
sbsVhcalTopologyIdeal
p4196
g0
(g3953
g2
Ntp4197
Rp4198
(dp4199
g17
VHcalTopologyIdealEP
p4200
sg19
(lp4201
VExclude
p4202
aVMergePosition
p4203
ag3049
asg21
I00
sg22
Nsg4202
g0
(g45
g2
Ntp4204
Rp4205
(dp4206
g21
I00
sg49
I00
sg23
I00
sg50
g59
sbsg23
I00
sg4203
g0
(g71
g2
Ntp4207
Rp4208
(dp4209
g21
I00
sg49
I00
sg23
I00
sg50
I00
sbsg3049
g0
(g45
g2
Ntp4210
Rp4211
(dp4212
g21
I00
sg49
I01
sg23
I00
sg50
g59
sbsg24
g1743
sg26
I55
sg27
g4196
sbsVidealForDigiCSCGeometry
p4213
g0
(g3953
g2
Ntp4214
Rp4215
(dp4216
g17
g3952
sg19
(lp4217
g3958
ag3959
ag3960
ag3049
ag3961
ag3962
ag3963
ag3964
ag3965
ag3966
asg21
I00
sg22
Nsg3958
g0
(g71
g2
Ntp4218
Rp4219
(dp4220
g21
I00
sg49
I01
sg23
I00
sg50
I00
sbsg23
I01
sg3959
g0
(g71
g2
Ntp4221
Rp4222
(dp4223
g21
I00
sg49
I01
sg23
I00
sg50
I00
sbsg3960
g0
(g45
g2
Ntp4224
Rp4225
(dp4226
g21
I00
sg49
I01
sg23
I01
sg50
g4176
sbsg3049
g0
(g45
g2
Ntp4227
Rp4228
(dp4229
g21
I00
sg49
I01
sg23
I01
sg50
VidealForDigi
p4230
sbsg3961
g0
(g71
g2
Ntp4231
Rp4232
(dp4233
g21
I00
sg49
I01
sg23
I00
sg50
I01
sbsg3962
g0
(g71
g2
Ntp4234
Rp4235
(dp4236
g21
I00
sg49
I01
sg23
I00
sg50
I00
sbsg3963
g0
(g71
g2
Ntp4237
Rp4238
(dp4239
g21
I00
sg49
I01
sg23
I00
sg50
I01
sbsg3964
g0
(g71
g2
Ntp4240
Rp4241
(dp4242
g21
I00
sg49
I01
sg23
I00
sg50
I00
sbsg3965
g0
(g71
g2
Ntp4243
Rp4244
(dp4245
g21
I00
sg49
I01
sg23
I01
sg50
I00
sbsg3966
g0
(g71
g2
Ntp4246
Rp4247
(dp4248
g21
I00
sg49
I00
sg23
I00
sg50
I00
sbsg24
V/cvmfs/cms.cern.ch/slc7_amd64_gcc12/cms/cmssw-patch/CMSSW_14_0_5_patch1/src/Geometry/CSCGeometryBuilder/python/idealForDigiCscGeometryDB_cff.py
p4249
sg26
I8
sg27
g4213
sbsVidealForDigiDTGeometry
p4250
g0
(g3953
g2
Ntp4251
Rp4252
(dp4253
g17
g4040
sg19
(lp4254
g3958
ag3959
ag4045
ag3960
ag3049
ag4046
ag4047
ag3965
asg21
I00
sg22
Nsg3958
g0
(g71
g2
Ntp4255
Rp4256
(dp4257
g21
I00
sg49
I01
sg23
I01
sg50
I00
sbsg23
I01
sg3959
g0
(g71
g2
Ntp4258
Rp4259
(dp4260
g21
I00
sg49
I01
sg23
I00
sg50
I00
sbsg4045
g0
(g4054
g2
Ntp4261
Rp4262
(dp4263
g21
I00
sg49
I01
sg23
I00
sg4058
g59
sg4059
g59
sbsg3960
g0
(g45
g2
Ntp4264
Rp4265
(dp4266
g21
I00
sg49
I01
sg23
I01
sg50
g4176
sbsg3049
g0
(g45
g2
Ntp4267
Rp4268
(dp4269
g21
I00
sg49
I01
sg23
I01
sg50
g4230
sbsg4046
g0
(g45
g2
Ntp4270
Rp4271
(dp4272
g21
I00
sg49
I01
sg23
I00
sg50
g4069
sbsg4047
g0
(g45
g2
Ntp4273
Rp4274
(dp4275
g21
I00
sg49
I01
sg23
I00
sg50
g4073
sbsg3965
g0
(g71
g2
Ntp4276
Rp4277
(dp4278
g21
I00
sg49
I01
sg23
I01
sg50
I00
sbsg24
V/cvmfs/cms.cern.ch/slc7_amd64_gcc12/cms/cmssw-patch/CMSSW_14_0_5_patch1/src/Geometry/DTGeometryBuilder/python/idealForDigiDtGeometryDB_cff.py
p4279
sg26
I8
sg27
g4250
sbsVidealForDigiTrackerGeometry
p4280
g0
(g3953
g2
Ntp4281
Rp4282
(dp4283
g17
VTrackerDigiGeometryESModule
p4284
sg19
(lp4285
g3049
ag3958
ag3965
ag3960
asg21
I00
sg22
Nsg3049
g0
(g45
g2
Ntp4286
Rp4287
(dp4288
g21
I00
sg49
I01
sg23
I01
sg50
g4230
sbsg23
I01
sg3958
g0
(g71
g2
Ntp4289
Rp4290
(dp4291
g21
I00
sg49
I01
sg23
I00
sg50
I00
sbsg3965
g0
(g71
g2
Ntp4292
Rp4293
(dp4294
g21
I00
sg49
I01
sg23
I01
sg50
I00
sbsg3960
g0
(g45
g2
Ntp4295
Rp4296
(dp4297
g21
I00
sg49
I01
sg23
I01
sg50
g4176
sbsg24
V/cvmfs/cms.cern.ch/slc7_amd64_gcc12/cms/cmssw-patch/CMSSW_14_0_5_patch1/src/Geometry/TrackerGeometryBuilder/python/idealForDigiTrackerGeometryDB_cff.py
p4298
sg26
I8
sg27
g4280
sbsVmuonGeometryConstants
p4299
g0
(g3953
g2
Ntp4300
Rp4301
(dp4302
g17
VMuonGeometryConstantsESModule
p4303
sg19
(lp4304
g3959
ag3049
asg21
I00
sg22
Nsg3959
g0
(g71
g2
Ntp4305
Rp4306
(dp4307
g21
I00
sg49
I01
sg23
I00
sg50
I00
sbsg23
I00
sg3049
g0
(g45
g2
Ntp4308
Rp4309
(dp4310
g21
I00
sg49
I01
sg23
I00
sg50
g59
sbsg24
g1743
sg26
I55
sg27
g4299
sbsVtrackerGeometryDB
p4311
g0
(g3953
g2
Ntp4312
Rp4313
(dp4314
g17
g4284
sg19
(lp4315
g3049
ag3958
ag3965
ag3960
asg21
I00
sg22
Nsg3049
g0
(g45
g2
Ntp4316
Rp4317
(dp4318
g21
I00
sg49
I01
sg23
I00
sg50
g59
sbsg23
I00
sg3958
g0
(g71
g2
Ntp4319
Rp4320
(dp4321
g21
I00
sg49
I01
sg23
I00
sg50
I00
sbsg3965
g0
(g71
g2
Ntp4322
Rp4323
(dp4324
g21
I00
sg49
I01
sg23
I00
sg50
I01
sbsg3960
g0
(g45
g2
Ntp4325
Rp4326
(dp4327
g21
I00
sg49
I01
sg23
I00
sg50
g59
sbsg24
g1743
sg26
I55
sg27
g4311
sbsVtrackerNumberingGeometryDB
p4328
g0
(g3953
g2
Ntp4329
Rp4330
(dp4331
g17
VTrackerGeometricDetESModule
p4332
sg19
(lp4333
g3958
ag3959
ag3049
asg21
I00
sg22
Nsg3958
g0
(g71
g2
Ntp4334
Rp4335
(dp4336
g21
I00
sg49
I01
sg23
I00
sg50
I00
sbsg23
I00
sg3959
g0
(g71
g2
Ntp4337
Rp4338
(dp4339
g21
I00
sg49
I01
sg23
I00
sg50
I00
sbsg3049
g0
(g45
g2
Ntp4340
Rp4341
(dp4342
g21
I00
sg49
I01
sg23
I00
sg50
g59
sbsg24
g1743
sg26
I55
sg27
g4328
sbsVtrackerTopology
p4343
g0
(g3953
g2
Ntp4344
Rp4345
(dp4346
g17
VTrackerTopologyEP
p4347
sg19
(lp4348
g3049
asg21
I00
sg22
Nsg3049
g0
(g45
g2
Ntp4349
Rp4350
(dp4351
g21
I00
sg49
I01
sg23
I00
sg50
g59
sbsg23
I00
sg24
g1743
sg26
I55
sg27
g4343
sbsVMuonNumberingInitialization
p4352
g0
(g3953
g2
Ntp4353
Rp4354
(dp4355
g17
g4352
sg19
(lp4356
sg21
I00
sg22
Nsg23
I00
sg24
g1743
sg26
I55
sg27
g4352
sbsVXMLFromDBSource
p4357
g0
(g3953
g2
Ntp4358
Rp4359
(dp4360
g17
VXMLIdealGeometryESProducer
p4361
sg19
(lp4362
VrootDDName
p4363
aVlabel
p4364
asg21
I00
sg22
Nsg4363
g0
(g45
g2
Ntp4365
Rp4366
(dp4367
g21
I00
sg49
I01
sg23
I00
sg50
Vcms:OCMS
p4368
sbsg23
I00
sg4364
g0
(g45
g2
Ntp4369
Rp4370
(dp4371
g21
I00
sg49
I01
sg23
I00
sg50
VExtended
p4372
sbsg24
g1743
sg26
I55
sg27
g4357
sbsVcaloSimulationParameters
p4373
g0
(g3953
g2
Ntp4374
Rp4375
(dp4376
g17
VCaloSimParametersESModule
p4377
sg19
(lp4378
g3959
ag3049
asg21
I00
sg22
Nsg3959
g0
(g71
g2
Ntp4379
Rp4380
(dp4381
g21
I00
sg49
I01
sg23
I00
sg50
I00
sbsg23
I00
sg3049
g0
(g45
g2
Ntp4382
Rp4383
(dp4384
g21
I00
sg49
I01
sg23
I00
sg50
g59
sbsg24
g1743
sg26
I55
sg27
g4373
sbsVecalSimulationParametersEB
p4385
g0
(g3953
g2
Ntp4386
Rp4387
(dp4388
g17
VEcalSimParametersESModule
p4389
sg19
(lp4390
g3959
aVname
p4391
ag3049
asg21
I00
sg22
Nsg3959
g0
(g71
g2
Ntp4392
Rp4393
(dp4394
g21
I00
sg49
I01
sg23
I00
sg50
I00
sbsg23
I00
sg4391
g0
(g45
g2
Ntp4395
Rp4396
(dp4397
g21
I00
sg49
I01
sg23
I00
sg50
VEcalHitsEB
p4398
sbsg3049
g0
(g45
g2
Ntp4399
Rp4400
(dp4401
g21
I00
sg49
I01
sg23
I00
sg50
g59
sbsg24
g1743
sg26
I55
sg27
g4385
sbsVecalSimulationParametersEE
p4402
g0
(g3953
g2
Ntp4403
Rp4404
(dp4405
g17
g4389
sg19
(lp4406
g3959
ag4391
ag3049
asg21
I00
sg22
Nsg3959
g0
(g71
g2
Ntp4407
Rp4408
(dp4409
g21
I00
sg49
I01
sg23
I00
sg50
I00
sbsg23
I00
sg4391
g0
(g45
g2
Ntp4410
Rp4411
(dp4412
g21
I00
sg49
I01
sg23
I01
sg50
VEcalHitsEE
p4413
sbsg3049
g0
(g45
g2
Ntp4414
Rp4415
(dp4416
g21
I00
sg49
I01
sg23
I00
sg50
g59
sbsg24
V/cvmfs/cms.cern.ch/slc7_amd64_gcc12/cms/cmssw-patch/CMSSW_14_0_5_patch1/src/Geometry/EcalCommonData/python/ecalSimulationParameters_cff.py
p4417
sg26
I11
sg27
g4402
sbsVecalSimulationParametersES
p4418
g0
(g3953
g2
Ntp4419
Rp4420
(dp4421
g17
g4389
sg19
(lp4422
g3959
ag4391
ag3049
asg21
I00
sg22
Nsg3959
g0
(g71
g2
Ntp4423
Rp4424
(dp4425
g21
I00
sg49
I01
sg23
I00
sg50
I00
sbsg23
I00
sg4391
g0
(g45
g2
Ntp4426
Rp4427
(dp4428
g21
I00
sg49
I01
sg23
I01
sg50
VEcalHitsES
p4429
sbsg3049
g0
(g45
g2
Ntp4430
Rp4431
(dp4432
g21
I00
sg49
I01
sg23
I00
sg50
g59
sbsg24
g4417
sg26
I14
sg27
g4418
sbsVhcalSimulationConstants
p4433
g0
(g3953
g2
Ntp4434
Rp4435
(dp4436
g17
VHcalSimulationConstantsESModule
p4437
sg19
(lp4438
g3049
asg21
I00
sg22
Nsg3049
g0
(g45
g2
Ntp4439
Rp4440
(dp4441
g21
I00
sg49
I01
sg23
I00
sg50
g59
sbsg23
I00
sg24
g1743
sg26
I55
sg27
g4433
sbsVhcalSimulationParameters
p4442
g0
(g3953
g2
Ntp4443
Rp4444
(dp4445
g17
VHcalSimParametersESModule
p4446
sg19
(lp4447
g3959
ag3049
asg21
I00
sg22
Nsg3959
g0
(g71
g2
Ntp4448
Rp4449
(dp4450
g21
I00
sg49
I01
sg23
I00
sg50
I00
sbsg23
I00
sg3049
g0
(g45
g2
Ntp4451
Rp4452
(dp4453
g21
I00
sg49
I01
sg23
I00
sg50
g59
sbsg24
g1743
sg26
I55
sg27
g4442
sbsVmuonOffsetESProducer
p4454
g0
(g3953
g2
Ntp4455
Rp4456
(dp4457
g17
VMuonOffsetESProducer
p4458
sg19
(lp4459
g3959
aVnames
p4460
ag3049
asg21
I00
sg22
Nsg3959
g0
(g71
g2
Ntp4461
Rp4462
(dp4463
g21
I00
sg49
I01
sg23
I00
sg50
I00
sbsg23
I00
sg4460
g0
(g429
g62
(lp4464
VMuonCommonNumbering
p4465
aVMuonBarrel
p4466
aVMuonEndcap
p4467
aVMuonBarrelWheels
p4468
aVMuonBarrelStation1
p4469
aVMuonBarrelStation2
p4470
aVMuonBarrelStation3
p4471
aVMuonBarrelStation4
p4472
aVMuonBarrelSuperLayer
p4473
aVMuonBarrelLayer
p4474
aVMuonBarrelWire
p4475
aVMuonRpcPlane1I
p4476
aVMuonRpcPlane1O
p4477
aVMuonRpcPlane2I
p4478
aVMuonRpcPlane2O
p4479
aVMuonRpcPlane3S
p4480
aVMuonRpcPlane4
p4481
aVMuonRpcChamberLeft
p4482
aVMuonRpcChamberMiddle
p4483
aVMuonRpcChamberRight
p4484
aVMuonRpcEndcap1
p4485
aVMuonRpcEndcap2
p4486
aVMuonRpcEndcap3
p4487
aVMuonRpcEndcap4
p4488
aVMuonRpcEndcapSector
p4489
aVMuonRpcEndcapChamberB1
p4490
aVMuonRpcEndcapChamberB2
p4491
aVMuonRpcEndcapChamberB3
p4492
aVMuonRpcEndcapChamberC1
p4493
aVMuonRpcEndcapChamberC2
p4494
aVMuonRpcEndcapChamberC3
p4495
aVMuonRpcEndcapChamberE1
p4496
aVMuonRpcEndcapChamberE2
p4497
aVMuonRpcEndcapChamberE3
p4498
aVMuonRpcEndcapChamberF1
p4499
aVMuonRpcEndcapChamberF2
p4500
aVMuonRpcEndcapChamberF3
p4501
aVMuonEndcapStation1
p4502
aVMuonEndcapStation2
p4503
aVMuonEndcapStation3
p4504
aVMuonEndcapStation4
p4505
aVMuonEndcapSubrings
p4506
aVMuonEndcapSectors
p4507
aVMuonEndcapLayers
p4508
aVMuonEndcapRing1
p4509
aVMuonEndcapRing2
p4510
aVMuonEndcapRing3
p4511
aVMuonEndcapRingA
p4512
aVMuonGEMEndcap
p4513
aVMuonGEMSector
p4514
aVMuonGEMChamber
p4515
atp4516
Rp4517
(dp4518
g21
I00
sg49
I01
sg23
I00
sg887
I1
sbsg3049
g0
(g45
g2
Ntp4519
Rp4520
(dp4521
g21
I00
sg49
I01
sg23
I00
sg50
g59
sbsg24
g1743
sg26
I55
sg27
g4454
sbsVCastorDbProducer
p4522
g0
(g3953
g2
Ntp4523
Rp4524
(dp4525
g17
g4522
sg19
(lp4526
g3049
asg21
I00
sg22
Nsg3049
g0
(g45
g2
Ntp4527
Rp4528
(dp4529
g21
I00
sg49
I01
sg23
I00
sg50
g59
sbsg23
I00
sg24
g1743
sg26
I55
sg27
g4522
sbsVEcalLaserCorrectionService
p4530
g0
(g3953
g2
Ntp4531
Rp4532
(dp4533
g17
g4530
sg19
(lp4534
VmaxExtrapolationTimeInSec
p4535
asg21
I00
sg22
Nsg4535
g0
(g67
g2
Ntp4536
Rp4537
(dp4538
g21
I00
sg49
I01
sg23
I00
sg50
I0
sbsg23
I00
sg24
g1743
sg26
I55
sg27
g4530
sbsVEcalLaserCorrectionServiceMC
p4539
g0
(g3953
g2
Ntp4540
Rp4541
(dp4542
g17
g4539
sg19
(lp4543
g3049
asg21
I00
sg22
Nsg3049
g0
(g45
g2
Ntp4544
Rp4545
(dp4546
g21
I00
sg49
I01
sg23
I00
sg50
g59
sbsg23
I00
sg24
g1743
sg26
I55
sg27
g4539
sbsVSiStripRecHitMatcherESProducer
p4547
g0
(g3953
g2
Ntp4548
Rp4549
(dp4550
g17
g4547
sg19
(lp4551
VComponentName
p4552
aVNSigmaInside
p4553
aVPreFilter
p4554
asg21
I00
sg22
Nsg4552
g0
(g45
g2
Ntp4555
Rp4556
(dp4557
g21
I00
sg49
I01
sg23
I00
sg50
VStandardMatcher
p4558
sbsg23
I00
sg4553
g0
(g408
g2
Ntp4559
Rp4560
(dp4561
g21
I00
sg49
I01
sg23
I00
sg50
F3.0
sbsg4554
g0
(g71
g2
Ntp4562
Rp4563
(dp4564
g21
I00
sg49
I01
sg23
I00
sg50
I00
sbsg24
g1743
sg26
I55
sg27
g4547
sbsVStripCPEfromTrackAngleESProducer
p4565
g0
(g3953
g2
Ntp4566
Rp4567
(dp4568
g17
VStripCPEESProducer
p4569
sg19
(lp4570
g4552
aVComponentType
p4571
aVparameters
p4572
asg21
I00
sg22
Nsg4552
g0
(g45
g2
Ntp4573
Rp4574
(dp4575
g21
I00
sg49
I01
sg23
I01
sg50
VStripCPEfromTrackAngle
p4576
sbsg23
I00
sg4571
g0
(g45
g2
Ntp4577
Rp4578
(dp4579
g21
I00
sg49
I01
sg23
I01
sg50
g4576
sbsg4572
g0
(g359
g2
Ntp4580
Rp4581
(dp4582
g21
I00
sg49
I01
sg23
I00
sg19
(lp4583
VmLC_P0
p4584
aVmLC_P1
p4585
aVmLC_P2
p4586
aVmTIB_P0
p4587
aVmTIB_P1
p4588
aVmTOB_P0
p4589
aVmTOB_P1
p4590
aVmTID_P0
p4591
aVmTID_P1
p4592
aVmTEC_P0
p4593
aVmTEC_P1
p4594
aVuseLegacyError
p4595
aVmaxChgOneMIP
p4596
asg22
Nsg4584
g0
(g408
g2
Ntp4597
Rp4598
(dp4599
g21
I00
sg49
I01
sg23
I00
sg50
F-0.326
sbsg4585
g0
(g408
g2
Ntp4600
Rp4601
(dp4602
g21
I00
sg49
I01
sg23
I00
sg50
F0.618
sbsg4586
g0
(g408
g2
Ntp4603
Rp4604
(dp4605
g21
I00
sg49
I01
sg23
I00
sg50
F0.3
sbsg4587
g0
(g408
g2
Ntp4606
Rp4607
(dp4608
g21
I00
sg49
I01
sg23
I00
sg50
F-0.742
sbsg4588
g0
(g408
g2
Ntp4609
Rp4610
(dp4611
g21
I00
sg49
I01
sg23
I00
sg50
F0.202
sbsg4589
g0
(g408
g2
Ntp4612
Rp4613
(dp4614
g21
I00
sg49
I01
sg23
I00
sg50
F-1.026
sbsg4590
g0
(g408
g2
Ntp4615
Rp4616
(dp4617
g21
I00
sg49
I01
sg23
I00
sg50
F0.253
sbsg4591
g0
(g408
g2
Ntp4618
Rp4619
(dp4620
g21
I00
sg49
I01
sg23
I00
sg50
F-1.427
sbsg4592
g0
(g408
g2
Ntp4621
Rp4622
(dp4623
g21
I00
sg49
I01
sg23
I00
sg50
F0.433
sbsg4593
g0
(g408
g2
Ntp4624
Rp4625
(dp4626
g21
I00
sg49
I01
sg23
I00
sg50
F-1.885
sbsg4594
g0
(g408
g2
Ntp4627
Rp4628
(dp4629
g21
I00
sg49
I01
sg23
I00
sg50
F0.471
sbsg4595
g0
(g71
g2
Ntp4630
Rp4631
(dp4632
g21
I00
sg49
I01
sg23
I00
sg50
I00
sbsg4596
g0
(g408
g2
Ntp4633
Rp4634
(dp4635
g21
I00
sg49
I01
sg23
I00
sg50
F6000.0
sbsbsg24
V/cvmfs/cms.cern.ch/slc7_amd64_gcc12/cms/cmssw-patch/CMSSW_14_0_5_patch1/src/RecoLocalTracker/SiStripRecHitConverter/python/StripCPEfromTrackAngle_cfi.py
p4636
sg26
I4
sg27
g4565
sbsVctppsBeamParametersFromLHCInfoESSource
p4637
g0
(g3953
g2
Ntp4638
Rp4639
(dp4640
g17
VCTPPSBeamParametersFromLHCInfoESSource
p4641
sg19
(lp4642
VlhcInfoLabel
p4643
aVlhcInfoPerLSLabel
p4644
aVlhcInfoPerFillLabel
p4645
aVuseNewLHCInfo
p4646
aVbeamDivX45
p4647
aVbeamDivY45
p4648
aVbeamDivX56
p4649
aVbeamDivY56
p4650
aVvtxOffsetX45
p4651
aVvtxOffsetY45
p4652
aVvtxOffsetZ45
p4653
aVvtxOffsetX56
p4654
aVvtxOffsetY56
p4655
aVvtxOffsetZ56
p4656
aVvtxStddevX
p4657
aVvtxStddevY
p4658
aVvtxStddevZ
p4659
ag3049
asg21
I00
sg22
Nsg4643
g0
(g45
g2
Ntp4660
Rp4661
(dp4662
g21
I00
sg49
I01
sg23
I00
sg50
g59
sbsg23
I00
sg4644
g0
(g45
g2
Ntp4663
Rp4664
(dp4665
g21
I00
sg49
I01
sg23
I00
sg50
g59
sbsg4645
g0
(g45
g2
Ntp4666
Rp4667
(dp4668
g21
I00
sg49
I01
sg23
I00
sg50
g59
sbsg4646
g0
(g71
g2
Ntp4669
Rp4670
(dp4671
g21
I00
sg49
I01
sg23
I00
sg50
I00
sbsg4647
g0
(g408
g2
Ntp4672
Rp4673
(dp4674
g21
I00
sg49
I01
sg23
I00
sg50
F0.1
sbsg4648
g0
(g408
g2
Ntp4675
Rp4676
(dp4677
g21
I00
sg49
I01
sg23
I00
sg50
F0.1
sbsg4649
g0
(g408
g2
Ntp4678
Rp4679
(dp4680
g21
I00
sg49
I01
sg23
I00
sg50
F0.1
sbsg4650
g0
(g408
g2
Ntp4681
Rp4682
(dp4683
g21
I00
sg49
I01
sg23
I00
sg50
F0.1
sbsg4651
g0
(g408
g2
Ntp4684
Rp4685
(dp4686
g21
I00
sg49
I01
sg23
I00
sg50
F0.01
sbsg4652
g0
(g408
g2
Ntp4687
Rp4688
(dp4689
g21
I00
sg49
I01
sg23
I00
sg50
F0.01
sbsg4653
g0
(g408
g2
Ntp4690
Rp4691
(dp4692
g21
I00
sg49
I01
sg23
I00
sg50
F0.01
sbsg4654
g0
(g408
g2
Ntp4693
Rp4694
(dp4695
g21
I00
sg49
I01
sg23
I00
sg50
F0.01
sbsg4655
g0
(g408
g2
Ntp4696
Rp4697
(dp4698
g21
I00
sg49
I01
sg23
I00
sg50
F0.01
sbsg4656
g0
(g408
g2
Ntp4699
Rp4700
(dp4701
g21
I00
sg49
I01
sg23
I00
sg50
F0.01
sbsg4657
g0
(g408
g2
Ntp4702
Rp4703
(dp4704
g21
I00
sg49
I01
sg23
I00
sg50
F0.02
sbsg4658
g0
(g408
g2
Ntp4705
Rp4706
(dp4707
g21
I00
sg49
I01
sg23
I00
sg50
F0.02
sbsg4659
g0
(g408
g2
Ntp4708
Rp4709
(dp4710
g21
I00
sg49
I01
sg23
I00
sg50
F0.02
sbsg3049
g0
(g45
g2
Ntp4711
Rp4712
(dp4713
g21
I00
sg49
I01
sg23
I00
sg50
g59
sbsg24
V/cvmfs/cms.cern.ch/slc7_amd64_gcc12/cms/cmssw-patch/CMSSW_14_0_5_patch1/src/CalibPPS/ESProducers/python/ctppsBeamParametersFromLHCInfoESSource_cfi.py
p4714
sg26
I2
sg27
g4637
sbsVctppsInterpolatedOpticalFunctionsESSource
p4715
g0
(g3953
g2
Ntp4716
Rp4717
(dp4718
g17
VCTPPSInterpolatedOpticalFunctionsESSource
p4719
sg19
(lp4720
g4643
ag4645
ag4644
aVopticsLabel
p4721
ag4646
ag3049
asg21
I00
sg22
Nsg4643
g0
(g45
g2
Ntp4722
Rp4723
(dp4724
g21
I00
sg49
I01
sg23
I00
sg50
g59
sbsg23
I01
sg4645
g0
(g45
g2
Ntp4725
Rp4726
(dp4727
g21
I00
sg49
I01
sg23
I00
sg50
g59
sbsg4644
g0
(g45
g2
Ntp4728
Rp4729
(dp4730
g21
I00
sg49
I01
sg23
I00
sg50
g59
sbsg4721
g0
(g45
g2
Ntp4731
Rp4732
(dp4733
g21
I00
sg49
I01
sg23
I00
sg50
g59
sbsg4646
g0
(g71
g2
Ntp4734
Rp4735
(dp4736
g21
I00
sg49
I01
sg23
I00
sg50
I00
sbsg3049
g0
(g45
g2
Ntp4737
Rp4738
(dp4739
g21
I00
sg49
I01
sg23
I00
sg50
g59
sbsg24
V/cvmfs/cms.cern.ch/slc7_amd64_gcc12/cms/cmssw-patch/CMSSW_14_0_5_patch1/src/CalibPPS/ESProducers/python/ctppsInterpolatedOpticalFunctionsESSource_cfi.py
p4740
sg26
I2
sg27
g4715
sbsVhcal_db_producer
p4741
g0
(g3953
g2
Ntp4742
Rp4743
(dp4744
g17
VHcalDbProducer
p4745
sg19
(lp4746
Vdump
p4747
aVfile
p4748
asg21
I00
sg22
Nsg4747
g0
(g429
g62
(lp4749
g59
atp4750
Rp4751
(dp4752
g21
I00
sg49
I00
sg23
I00
sg887
I1
sbsg23
I00
sg4748
g0
(g45
g2
Ntp4753
Rp4754
(dp4755
g21
I00
sg49
I00
sg23
I00
sg50
g59
sbsg24
g1743
sg26
I55
sg27
g4741
sbsVmultipleScatteringParametrisationMakerESProducer
p4756
g0
(g3953
g2
Ntp4757
Rp4758
(dp4759
g17
VMultipleScatteringParametrisationMakerESProducer
p4760
sg19
(lp4761
g3049
asg21
I00
sg22
Nsg3049
g0
(g45
g2
Ntp4762
Rp4763
(dp4764
g21
I00
sg49
I01
sg23
I00
sg50
g59
sbsg23
I00
sg24
g1743
sg26
I55
sg27
g4756
sbsVsiPixelQualityESProducer
p4765
g0
(g3953
g2
Ntp4766
Rp4767
(dp4768
g17
VSiPixelQualityESProducer
p4769
sg19
(lp4770
VsiPixelQualityFromDbLabel
p4771
aVListOfRecordToMerge
p4772
ag3049
asg21
I00
sg22
Nsg4771
g0
(g45
g2
Ntp4773
Rp4774
(dp4775
g21
I00
sg49
I01
sg23
I00
sg50
g59
sbsg23
I00
sg4772
g0
(g3017
g62
(lp4776
g0
(g359
g2
Ntp4777
Rp4778
(dp4779
g21
I00
sg49
I01
sg23
I00
sg19
(lp4780
Vrecord
p4781
aVtag
p4782
asg22
Nsg4781
g0
(g45
g2
Ntp4783
Rp4784
(dp4785
g21
I00
sg49
I01
sg23
I00
sg50
VSiPixelQualityFromDbRcd
p4786
sbsg4782
g0
(g45
g2
Ntp4787
Rp4788
(dp4789
g21
I00
sg49
I01
sg23
I00
sg50
g59
sbsbag0
(g359
g2
Ntp4790
Rp4791
(dp4792
g21
I00
sg49
I01
sg23
I00
sg19
(lp4793
g4781
ag4782
asg22
Nsg4781
g0
(g45
g2
Ntp4794
Rp4795
(dp4796
g21
I00
sg49
I01
sg23
I00
sg50
VSiPixelDetVOffRcd
p4797
sbsg4782
g0
(g45
g2
Ntp4798
Rp4799
(dp4800
g21
I00
sg49
I01
sg23
I00
sg50
g59
sbsbatp4801
Rp4802
(dp4803
g21
I00
sg49
I01
sg23
I00
sg887
I1
sbsg3049
g0
(g45
g2
Ntp4804
Rp4805
(dp4806
g21
I00
sg49
I01
sg23
I00
sg50
g59
sbsg24
g1743
sg26
I55
sg27
g4765
sbsVsiStripBackPlaneCorrectionDepESProducer
p4807
g0
(g3953
g2
Ntp4808
Rp4809
(dp4810
g17
VSiStripBackPlaneCorrectionDepESProducer
p4811
sg19
(lp4812
VLatencyRecord
p4813
aVBackPlaneCorrectionPeakMode
p4814
aVBackPlaneCorrectionDeconvMode
p4815
asg21
I00
sg22
Nsg4813
g0
(g359
g2
Ntp4816
Rp4817
(dp4818
g21
I00
sg49
I01
sg23
I00
sg19
(lp4819
g4781
ag4364
asg22
Nsg4781
g0
(g45
g2
Ntp4820
Rp4821
(dp4822
g21
I00
sg49
I01
sg23
I00
sg50
VSiStripLatencyRcd
p4823
sbsg4364
g0
(g45
g2
Ntp4824
Rp4825
(dp4826
g21
I00
sg49
I00
sg23
I00
sg50
g59
sbsbsg23
I00
sg4814
g0
(g359
g2
Ntp4827
Rp4828
(dp4829
g21
I00
sg49
I01
sg23
I00
sg19
(lp4830
g4781
ag4364
asg22
Nsg4781
g0
(g45
g2
Ntp4831
Rp4832
(dp4833
g21
I00
sg49
I01
sg23
I00
sg50
VSiStripBackPlaneCorrectionRcd
p4834
sbsg4364
g0
(g45
g2
Ntp4835
Rp4836
(dp4837
g21
I00
sg49
I00
sg23
I00
sg50
Vpeak
p4838
sbsbsg4815
g0
(g359
g2
Ntp4839
Rp4840
(dp4841
g21
I00
sg49
I01
sg23
I00
sg19
(lp4842
g4781
ag4364
asg22
Nsg4781
g0
(g45
g2
Ntp4843
Rp4844
(dp4845
g21
I00
sg49
I01
sg23
I00
sg50
g4834
sbsg4364
g0
(g45
g2
Ntp4846
Rp4847
(dp4848
g21
I00
sg49
I00
sg23
I00
sg50
Vdeconvolution
p4849
sbsbsg24
g1743
sg26
I55
sg27
g4807
sbsVsiStripGainESProducer
p4850
g0
(g3953
g2
Ntp4851
Rp4852
(dp4853
g17
VSiStripGainESProducer
p4854
sg19
(lp4855
g3049
aVprintDebug
p4856
aVAutomaticNormalization
p4857
aVAPVGain
p4858
asg21
I00
sg22
Nsg3049
g0
(g45
g2
Ntp4859
Rp4860
(dp4861
g21
I00
sg49
I01
sg23
I00
sg50
g59
sbsg23
I00
sg4856
g0
(g71
g2
Ntp4862
Rp4863
(dp4864
g21
I00
sg49
I00
sg23
I00
sg50
I00
sbsg4857
g0
(g71
g2
Ntp4865
Rp4866
(dp4867
g21
I00
sg49
I01
sg23
I00
sg50
I00
sbsg4858
g0
(g3017
g62
(lp4868
g0
(g359
g2
Ntp4869
Rp4870
(dp4871
g21
I00
sg49
I01
sg23
I00
sg19
(lp4872
VRecord
p4873
ag1443
aVNormalizationFactor
p4874
asg22
Nsg4873
g0
(g45
g2
Ntp4875
Rp4876
(dp4877
g21
I00
sg49
I01
sg23
I00
sg50
VSiStripApvGainRcd
p4878
sbsg1443
g0
(g45
g2
Ntp4879
Rp4880
(dp4881
g21
I00
sg49
I00
sg23
I00
sg50
g59
sbsg4874
g0
(g408
g2
Ntp4882
Rp4883
(dp4884
g21
I00
sg49
I00
sg23
I00
sg50
F1.0
sbsbag0
(g359
g2
Ntp4885
Rp4886
(dp4887
g21
I00
sg49
I01
sg23
I00
sg19
(lp4888
g4873
ag1443
ag4874
asg22
Nsg4873
g0
(g45
g2
Ntp4889
Rp4890
(dp4891
g21
I00
sg49
I01
sg23
I00
sg50
VSiStripApvGain2Rcd
p4892
sbsg1443
g0
(g45
g2
Ntp4893
Rp4894
(dp4895
g21
I00
sg49
I00
sg23
I00
sg50
g59
sbsg4874
g0
(g408
g2
Ntp4896
Rp4897
(dp4898
g21
I00
sg49
I00
sg23
I00
sg50
F1.0
sbsbatp4899
Rp4900
(dp4901
g21
I00
sg49
I01
sg23
I00
sg887
I1
sbsg24
g1743
sg26
I55
sg27
g4850
sbsVsiStripLorentzAngleDepESProducer
p4902
g0
(g3953
g2
Ntp4903
Rp4904
(dp4905
g17
VSiStripLorentzAngleDepESProducer
p4906
sg19
(lp4907
g4813
aVLorentzAnglePeakMode
p4908
aVLorentzAngleDeconvMode
p4909
asg21
I00
sg22
Nsg4813
g0
(g359
g2
Ntp4910
Rp4911
(dp4912
g21
I00
sg49
I01
sg23
I00
sg19
(lp4913
g4781
ag4364
asg22
Nsg4781
g0
(g45
g2
Ntp4914
Rp4915
(dp4916
g21
I00
sg49
I01
sg23
I00
sg50
g4823
sbsg4364
g0
(g45
g2
Ntp4917
Rp4918
(dp4919
g21
I00
sg49
I00
sg23
I00
sg50
g59
sbsbsg23
I00
sg4908
g0
(g359
g2
Ntp4920
Rp4921
(dp4922
g21
I00
sg49
I01
sg23
I00
sg19
(lp4923
g4781
ag4364
asg22
Nsg4781
g0
(g45
g2
Ntp4924
Rp4925
(dp4926
g21
I00
sg49
I01
sg23
I00
sg50
VSiStripLorentzAngleRcd
p4927
sbsg4364
g0
(g45
g2
Ntp4928
Rp4929
(dp4930
g21
I00
sg49
I00
sg23
I00
sg50
g4838
sbsbsg4909
g0
(g359
g2
Ntp4931
Rp4932
(dp4933
g21
I00
sg49
I01
sg23
I00
sg19
(lp4934
g4781
ag4364
asg22
Nsg4781
g0
(g45
g2
Ntp4935
Rp4936
(dp4937
g21
I00
sg49
I01
sg23
I00
sg50
g4927
sbsg4364
g0
(g45
g2
Ntp4938
Rp4939
(dp4940
g21
I00
sg49
I00
sg23
I00
sg50
g4849
sbsbsg24
g1743
sg26
I55
sg27
g4902
sbsVsiStripQualityESProducer
p4941
g0
(g3953
g2
Ntp4942
Rp4943
(dp4944
g17
VSiStripQualityESProducer
p4945
sg19
(lp4946
g3049
ag4772
aVReduceGranularity
p4947
aVThresholdForReducedGranularity
p4948
aVPrintDebugOutput
p4949
aVUseEmptyRunInfo
p4950
asg21
I00
sg22
Nsg3049
g0
(g45
g2
Ntp4951
Rp4952
(dp4953
g21
I00
sg49
I01
sg23
I00
sg50
g59
sbsg23
I01
sg4772
g0
(g3017
g62
(lp4954
g0
(g359
g2
Ntp4955
Rp4956
(dp4957
g21
I00
sg49
I01
sg23
I00
sg19
(lp4958
g4781
ag4782
asg22
Nsg4781
g0
(g45
g2
Ntp4959
Rp4960
(dp4961
g21
I00
sg49
I01
sg23
I00
sg50
VSiStripDetVOffRcd
p4962
sbsg4782
g0
(g45
g2
Ntp4963
Rp4964
(dp4965
g21
I00
sg49
I01
sg23
I00
sg50
g59
sbsbag0
(g359
g2
Ntp4966
Rp4967
(dp4968
g21
I00
sg49
I01
sg23
I00
sg19
(lp4969
g4781
ag4782
asg22
Nsg4781
g0
(g45
g2
Ntp4970
Rp4971
(dp4972
g21
I00
sg49
I01
sg23
I00
sg50
VSiStripDetCablingRcd
p4973
sbsg4782
g0
(g45
g2
Ntp4974
Rp4975
(dp4976
g21
I00
sg49
I01
sg23
I00
sg50
g59
sbsbag0
(g359
g2
Ntp4977
Rp4978
(dp4979
g21
I00
sg49
I01
sg23
I00
sg19
(lp4980
g4781
ag4782
asg22
Nsg4781
g0
(g45
g2
Ntp4981
Rp4982
(dp4983
g21
I00
sg49
I01
sg23
I00
sg50
VRunInfoRcd
p4984
sbsg4782
g0
(g45
g2
Ntp4985
Rp4986
(dp4987
g21
I00
sg49
I01
sg23
I00
sg50
g59
sbsbag0
(g359
g2
Ntp4988
Rp4989
(dp4990
g21
I00
sg49
I01
sg23
I00
sg19
(lp4991
g4781
ag4782
asg22
Nsg4781
g0
(g45
g2
Ntp4992
Rp4993
(dp4994
g21
I00
sg49
I01
sg23
I00
sg50
VSiStripBadChannelRcd
p4995
sbsg4782
g0
(g45
g2
Ntp4996
Rp4997
(dp4998
g21
I00
sg49
I01
sg23
I00
sg50
g59
sbsbag0
(g359
g2
Ntp4999
Rp5000
(dp5001
g21
I00
sg49
I01
sg23
I00
sg19
(lp5002
g4781
ag4782
asg22
Nsg4781
g0
(g45
g2
Ntp5003
Rp5004
(dp5005
g21
I00
sg49
I01
sg23
I00
sg50
VSiStripBadFiberRcd
p5006
sbsg4782
g0
(g45
g2
Ntp5007
Rp5008
(dp5009
g21
I00
sg49
I01
sg23
I00
sg50
g59
sbsbag0
(g359
g2
Ntp5010
Rp5011
(dp5012
g21
I00
sg49
I01
sg23
I00
sg19
(lp5013
g4781
ag4782
asg22
Nsg4781
g0
(g45
g2
Ntp5014
Rp5015
(dp5016
g21
I00
sg49
I01
sg23
I00
sg50
VSiStripBadModuleRcd
p5017
sbsg4782
g0
(g45
g2
Ntp5018
Rp5019
(dp5020
g21
I00
sg49
I01
sg23
I00
sg50
g59
sbsbag0
(g359
g2
Ntp5021
Rp5022
(dp5023
g21
I00
sg49
I01
sg23
I00
sg19
(lp5024
g4781
ag4782
asg22
Nsg4781
g0
(g45
g2
Ntp5025
Rp5026
(dp5027
g21
I00
sg49
I01
sg23
I00
sg50
VSiStripBadStripRcd
p5028
sbsg4782
g0
(g45
g2
Ntp5029
Rp5030
(dp5031
g21
I00
sg49
I01
sg23
I00
sg50
g59
sbsbatp5032
Rp5033
(dp5034
g21
I00
sg49
I01
sg23
I00
sg887
I1
sbsg4947
g0
(g71
g2
Ntp5035
Rp5036
(dp5037
g21
I00
sg49
I01
sg23
I00
sg50
I00
sbsg4948
g0
(g408
g2
Ntp5038
Rp5039
(dp5040
g21
I00
sg49
I01
sg23
I00
sg50
F0.3
sbsg4949
g0
(g71
g2
Ntp5041
Rp5042
(dp5043
g21
I00
sg49
I01
sg23
I00
sg50
I00
sbsg4950
g0
(g71
g2
Ntp5044
Rp5045
(dp5046
g21
I00
sg49
I01
sg23
I00
sg50
I00
sbsg24
g1743
sg26
I55
sg27
g4941
sbsVsistripconn
p5047
g0
(g3953
g2
Ntp5048
Rp5049
(dp5050
g17
VSiStripConnectivity
p5051
sg19
(lp5052
sg21
I00
sg22
Nsg23
I00
sg24
g1743
sg26
I55
sg27
g5047
sbsVstripCPEESProducer
p5053
g0
(g3953
g2
Ntp5054
Rp5055
(dp5056
g17
g4569
sg19
(lp5057
g4552
ag4571
ag4572
asg21
I00
sg22
Nsg4552
g0
(g45
g2
Ntp5058
Rp5059
(dp5060
g21
I00
sg49
I01
sg23
I00
sg50
VstripCPE
p5061
sbsg23
I00
sg4571
g0
(g45
g2
Ntp5062
Rp5063
(dp5064
g21
I00
sg49
I01
sg23
I00
sg50
VSimpleStripCPE
p5065
sbsg4572
g0
(g359
g2
Ntp5066
Rp5067
(dp5068
g21
I00
sg49
I01
sg23
I00
sg19
(lp5069
sg22
Nsbsg24
g1743
sg26
I55
sg27
g5053
sbsVecalElectronicsMappingGPUESProducer
p5070
g0
(g3953
g2
Ntp5071
Rp5072
(dp5073
g17
VEcalElectronicsMappingGPUESProducer
p5074
sg19
(lp5075
g4552
ag4364
ag3049
asg21
I00
sg22
Nsg4552
g0
(g45
g2
Ntp5076
Rp5077
(dp5078
g21
I00
sg49
I01
sg23
I00
sg50
g59
sbsg23
I00
sg4364
g0
(g45
g2
Ntp5079
Rp5080
(dp5081
g21
I00
sg49
I01
sg23
I00
sg50
g59
sbsg3049
g0
(g45
g2
Ntp5082
Rp5083
(dp5084
g21
I00
sg49
I01
sg23
I00
sg50
g59
sbsg24
g1743
sg26
I55
sg27
g5070
sbsVecalElectronicsMappingHostESProducer
p5085
g0
(g3953
g2
Ntp5086
Rp5087
(dp5088
g17
VEcalElectronicsMappingHostESProducer@alpaka
p5089
sg19
(lp5090
g3049
ag597
asg21
I00
sg22
Nsg3049
g0
(g45
g2
Ntp5091
Rp5092
(dp5093
g21
I00
sg49
I01
sg23
I00
sg50
g59
sbsg23
I00
sg597
g0
(g359
g2
Ntp5094
Rp5095
(dp5096
g21
I00
sg49
I00
sg23
I00
sg19
(lp5097
g624
asg22
Nsg624
g0
(g45
g2
Ntp5098
Rp5099
(dp5100
g21
I00
sg49
I00
sg23
I00
sg50
g59
sbsbsg24
g1743
sg26
I55
sg27
g5085
sbssV_Process__esprefers
p5101
(dp5102
Ves_prefer_hcalHardcode
p5103
g0
(cFWCore.ParameterSet.Modules
ESPrefer
p5104
g2
Ntp5105
Rp5106
(dp5107
g17
g3218
sg19
(lp5108
sg21
I00
sg22
Nsg23
I00
sg24
g1743
sg26
I91
sV_targetLabel
p5109
g3214
sg27
g5103
sbssV_Process__aliases
p5110
(dp5111
sV_Process__psets
p5112
(dp5113
VmaxLuminosityBlocks
p5114
g0
(g359
g2
Ntp5115
Rp5116
(dp5117
g21
I00
sg49
I00
sg23
I00
sg19
(lp5118
Vinput
p5119
asg22
Nsg5119
g0
(g75
g2
Ntp5120
Rp5121
(dp5122
g21
I00
sg49
I00
sg23
I00
sg50
I-1
sbsg27
g5114
sbsVoptions
p5123
g0
(g359
g2
Ntp5124
Rp5125
(dp5126
g21
I00
sg49
I00
sg23
I01
sg19
(lp5127
VnumberOfThreads
p5128
aVnumberOfStreams
p5129
aVnumberOfConcurrentRuns
p5130
aVnumberOfConcurrentLuminosityBlocks
p5131
aVeventSetup
p5132
aVaccelerators
p5133
aVwantSummary
p5134
aVfileMode
p5135
aVforceEventSetupCacheClearOnNewRun
p5136
aVthrowIfIllegalParameter
p5137
aVprintDependencies
p5138
aVdeleteNonConsumedUnscheduledModules
p5139
aVsizeOfStackForThreadsInKB
p5140
aVRethrow
p5141
aVTryToContinue
p5142
aVIgnoreCompletely
p5143
aVmodulesToCallForTryToContinue
p5144
aVcanDeleteEarly
p5145
aVholdsReferencesToDeleteEarly
p5146
aVmodulesToIgnoreForDeleteEarly
p5147
aVdumpOptions
p5148
aVallowUnscheduled
p5149
aVemptyRunLumiMode
p5150
aVmakeTriggerResults
p5151
asg22
Nsg5128
g0
(g67
g2
Ntp5152
Rp5153
(dp5154
g21
I00
sg49
I00
sg23
I00
sg50
I1
sbsg5129
g0
(g67
g2
Ntp5155
Rp5156
(dp5157
g21
I00
sg49
I00
sg23
I00
sg50
I0
sbsg5130
g0
(g67
g2
Ntp5158
Rp5159
(dp5160
g21
I00
sg49
I00
sg23
I00
sg50
I1
sbsg5131
g0
(g67
g2
Ntp5161
Rp5162
(dp5163
g21
I00
sg49
I00
sg23
I00
sg50
I0
sbsg5132
g0
(g359
g2
Ntp5164
Rp5165
(dp5166
g21
I00
sg49
I00
sg23
I00
sg19
(lp5167
VnumberOfConcurrentIOVs
p5168
aVforceNumberOfConcurrentIOVs
p5169
asg22
Nsg5168
g0
(g67
g2
Ntp5170
Rp5171
(dp5172
g21
I00
sg49
I00
sg23
I00
sg50
I0
sbsg5169
g0
(g359
g2
Ntp5173
Rp5174
(dp5175
g21
I00
sg49
I00
sg23
I00
sg19
(lp5176
sg22
g0
(cFWCore.ParameterSet.Types
_RequiredParameter
p5177
g2
Ntp5178
Rp5179
(dp5180
g21
I00
sg49
I00
sg23
I00
sg428
g67
sg430
Nsbsbsbsg5133
g0
(g429
g62
(lp5181
V*
p5182
atp5183
Rp5184
(dp5185
g21
I00
sg49
I00
sg23
I00
sg887
I1
sbsg5134
g0
(g71
g2
Ntp5186
Rp5187
(dp5188
g21
I00
sg49
I00
sg23
I00
sg50
I00
sbsg5135
g0
(g45
g2
Ntp5189
Rp5190
(dp5191
g21
I00
sg49
I00
sg23
I00
sg50
VFULLMERGE
p5192
sbsg5136
g0
(g71
g2
Ntp5193
Rp5194
(dp5195
g21
I00
sg49
I00
sg23
I00
sg50
I00
sbsg5137
g0
(g71
g2
Ntp5196
Rp5197
(dp5198
g21
I00
sg49
I00
sg23
I00
sg50
I01
sbsg5138
g0
(g71
g2
Ntp5199
Rp5200
(dp5201
g21
I00
sg49
I00
sg23
I00
sg50
I00
sbsg5139
g0
(g71
g2
Ntp5202
Rp5203
(dp5204
g21
I00
sg49
I00
sg23
I00
sg50
I01
sbsg5140
g0
(g424
g2
Ntp5205
Rp5206
(dp5207
g21
I00
sg49
I00
sg23
I00
sg428
g67
sg430
Nsbsg5141
g0
(g429
g62
(lp5208
tp5209
Rp5210
(dp5211
g21
I00
sg49
I00
sg23
I00
sg887
I1
sbsg5142
g0
(g429
g62
(lp5212
tp5213
Rp5214
(dp5215
g21
I00
sg49
I00
sg23
I00
sg887
I1
sbsg5143
g0
(g429
g62
(lp5216
tp5217
Rp5218
(dp5219
g21
I00
sg49
I00
sg23
I00
sg887
I1
sbsg5144
g0
(g429
g62
(lp5220
tp5221
Rp5222
(dp5223
g21
I00
sg49
I00
sg23
I00
sg887
I1
sbsg5145
g0
(g429
g62
(lp5224
tp5225
Rp5226
(dp5227
g21
I00
sg49
I00
sg23
I00
sg887
I1
sbsg5146
g0
(g3017
g62
(lp5228
tp5229
Rp5230
(dp5231
g21
I00
sg49
I00
sg23
I00
sg887
I1
sbsg5147
g0
(g429
g62
(lp5232
tp5233
Rp5234
(dp5235
g21
I00
sg49
I00
sg23
I00
sg887
I1
sbsg5148
g0
(g71
g2
Ntp5236
Rp5237
(dp5238
g21
I00
sg49
I00
sg23
I00
sg50
I00
sbsg5149
g0
(cFWCore.ParameterSet.Types
_ObsoleteParameter
p5239
g2
Ntp5240
Rp5241
(dp5242
g21
I00
sg49
I00
sg23
I00
sg428
g71
sg430
Nsbsg5150
g0
(g5239
g2
Ntp5243
Rp5244
(dp5245
g21
I00
sg49
I00
sg23
I00
sg428
g45
sg430
Nsbsg5151
g0
(g5239
g2
Ntp5246
Rp5247
(dp5248
g21
I00
sg49
I00
sg23
I00
sg428
g71
sg430
Nsbsg27
g5123
sbsVnanoDQMIO_perLSoutput
p5249
g0
(g359
g2
Ntp5250
Rp5251
(dp5252
g21
I00
sg49
I01
sg23
I00
sg19
(lp5253
g2407
asg22
Nsg2407
g0
(g429
g62
(lp5254
g2419
ag2420
ag2421
ag2422
ag2423
ag2424
ag2425
ag2426
ag2427
ag2428
ag2429
ag2430
ag2431
ag2432
ag2433
ag2434
ag2435
ag2436
ag2437
ag2438
ag2439
ag2440
ag2441
ag2442
ag2443
ag2444
ag2445
ag2446
ag2447
ag2448
ag2449
ag2450
ag2451
ag2452
ag2453
ag2454
ag2455
ag2456
ag2457
ag2458
ag2459
ag2460
ag2461
ag2462
ag2463
ag2464
ag2465
ag2466
ag2467
ag2468
ag2469
ag2470
ag2471
ag2472
ag2473
ag2474
ag2475
ag2476
ag2477
ag2478
ag2479
ag2480
ag2481
ag2482
ag2483
ag2484
ag2485
ag2486
ag2487
ag2488
ag2489
ag2490
ag2491
ag2492
ag2493
ag2494
ag2495
ag2496
ag2497
ag2498
ag2499
ag2500
ag2501
ag2502
ag2503
ag2504
ag2505
ag2506
ag2507
ag2508
ag2509
ag2510
ag2511
ag2512
ag2513
ag2514
ag2515
ag2516
ag2517
ag2518
ag2519
ag2520
ag2521
ag2522
ag2523
ag2524
ag2525
ag2526
ag2527
ag2528
ag2529
ag2530
ag2531
ag2532
ag2533
ag2534
ag2535
ag2536
ag2537
ag2538
ag2539
ag2540
ag2541
ag2542
ag2543
ag2544
ag2545
ag2546
ag2547
ag2548
ag2549
ag2550
ag2551
ag2552
ag2553
ag2554
ag2555
ag2556
ag2557
ag2558
ag2559
ag2560
ag2561
ag2562
ag2563
ag2564
ag2565
ag2566
ag2567
ag2568
ag2569
ag2570
ag2571
ag2572
ag2573
ag2574
ag2575
ag2576
ag2577
ag2578
ag2579
ag2580
ag2581
ag2582
ag2583
ag2584
ag2585
ag2586
ag2587
ag2588
ag2589
ag2590
ag2591
ag2592
ag2593
ag2594
ag2595
ag2596
ag2597
ag2598
ag2599
ag2600
ag2601
ag2602
ag2603
ag2604
ag2605
ag2606
ag2607
ag2608
ag2609
ag2610
ag2611
ag2612
ag2613
ag2614
ag2615
ag2616
ag2617
ag2618
ag2619
ag2620
ag2621
ag2622
ag2623
ag2624
ag2625
atp5255
Rp5256
(dp5257
g21
I00
sg49
I00
sg23
I00
sg887
I1
sbsg27
g5249
sbsVCondDB
p5258
g0
(g359
g2
Ntp5259
Rp5260
(dp5261
g21
I00
sg49
I01
sg23
I00
sg19
(lp5262
g2970
ag2971
asg22
Nsg2970
g0
(g359
g2
Ntp5263
Rp5264
(dp5265
g21
I00
sg49
I01
sg23
I00
sg19
(lp5266
g2986
ag2987
ag2988
ag2989
ag2990
asg22
Nsg2986
g0
(g45
g2
Ntp5267
Rp5268
(dp5269
g21
I00
sg49
I00
sg23
I00
sg50
g59
sbsg2987
g0
(g75
g2
Ntp5270
Rp5271
(dp5272
g21
I00
sg49
I00
sg23
I00
sg50
I0
sbsg2988
g0
(g45
g2
Ntp5273
Rp5274
(dp5275
g21
I00
sg49
I00
sg23
I00
sg50
g59
sbsg2989
g0
(g75
g2
Ntp5276
Rp5277
(dp5278
g21
I00
sg49
I00
sg23
I00
sg50
I0
sbsg2990
g0
(g75
g2
Ntp5279
Rp5280
(dp5281
g21
I00
sg49
I00
sg23
I00
sg50
I0
sbsbsg2971
g0
(g45
g2
Ntp5282
Rp5283
(dp5284
g21
I00
sg49
I01
sg23
I00
sg50
g59
sbsg27
g5258
sbsg3228
g3279
sVmaxEvents
p5285
g0
(g359
g2
Ntp5286
Rp5287
(dp5288
g21
I00
sg49
I00
sg23
I01
sg19
(lp5289
g5119
ag2369
asg22
Nsg5119
g0
(g424
g2
Ntp5290
Rp5291
(dp5292
g21
I00
sg49
I00
sg23
I00
sg428
g75
sg430
g0
(g75
g2
Ntp5293
Rp5294
(dp5295
g21
I00
sg49
I00
sg23
I00
sg50
I100
sbsbsg2369
g0
(g424
g2
Ntp5296
Rp5297
(dp5298
g21
I00
sg49
I00
sg23
I00
sg428
g0
(cFWCore.ParameterSet.Types
_AllowedParameterTypes
p5299
g2
Ntp5300
Rp5301
(dp5302
V_AllowedParameterTypes__types
p5303
(g75
g359
tp5304
sV_default
p5305
NsV__name__
p5306
Vallowed(cms.int32,cms.PSet)
p5307
sbsg430
Nsbsg27
g5285
sbssV_Process__vpsets
p5308
(dp5309
sV_cloneToObjectDict
p5310
(dp5311
L140132006804880L
g0
(g359
g2
Ntp5312
Rp5313
(dp5314
g21
I00
sg49
I00
sg23
I00
sg19
(lp5315
g5128
ag5129
ag5130
ag5131
ag5132
ag5133
ag5134
ag5135
ag5136
ag5137
ag5138
ag5139
ag5140
ag5141
ag5142
ag5143
ag5144
ag5145
ag5146
ag5147
ag5148
ag5149
ag5150
ag5151
asg22
Nsg5128
g0
(g67
g2
Ntp5316
Rp5317
(dp5318
g21
I00
sg49
I00
sg23
I00
sg50
I1
sbsg5129
g0
(g67
g2
Ntp5319
Rp5320
(dp5321
g21
I00
sg49
I00
sg23
I00
sg50
I0
sbsg5130
g0
(g67
g2
Ntp5322
Rp5323
(dp5324
g21
I00
sg49
I00
sg23
I00
sg50
I1
sbsg5131
g0
(g67
g2
Ntp5325
Rp5326
(dp5327
g21
I00
sg49
I00
sg23
I00
sg50
I0
sbsg5132
g0
(g359
g2
Ntp5328
Rp5329
(dp5330
g21
I00
sg49
I00
sg23
I00
sg19
(lp5331
g5168
ag5169
asg22
Nsg5168
g0
(g67
g2
Ntp5332
Rp5333
(dp5334
g21
I00
sg49
I00
sg23
I00
sg50
I0
sbsg5169
g0
(g359
g2
Ntp5335
Rp5336
(dp5337
g21
I00
sg49
I00
sg23
I00
sg19
(lp5338
sg22
g0
(g5177
g2
Ntp5339
Rp5340
(dp5341
g21
I00
sg49
I00
sg23
I00
sg428
g67
sg430
Nsbsbsbsg5133
g0
(g429
g62
(lp5342
g5182
atp5343
Rp5344
(dp5345
g21
I00
sg49
I00
sg23
I00
sg887
I1
sbsg5134
g0
(g71
g2
Ntp5346
Rp5347
(dp5348
g21
I00
sg49
I00
sg23
I00
sg50
I00
sbsg5135
g0
(g45
g2
Ntp5349
Rp5350
(dp5351
g21
I00
sg49
I00
sg23
I00
sg50
g5192
sbsg5136
g0
(g71
g2
Ntp5352
Rp5353
(dp5354
g21
I00
sg49
I00
sg23
I00
sg50
I00
sbsg5137
g0
(g71
g2
Ntp5355
Rp5356
(dp5357
g21
I00
sg49
I00
sg23
I00
sg50
I01
sbsg5138
g0
(g71
g2
Ntp5358
Rp5359
(dp5360
g21
I00
sg49
I00
sg23
I00
sg50
I00
sbsg5139
g0
(g71
g2
Ntp5361
Rp5362
(dp5363
g21
I00
sg49
I00
sg23
I00
sg50
I01
sbsg5140
g0
(g424
g2
Ntp5364
Rp5365
(dp5366
g21
I00
sg49
I00
sg23
I00
sg428
g67
sg430
Nsbsg5141
g0
(g429
g62
(lp5367
tp5368
Rp5369
(dp5370
g21
I00
sg49
I00
sg23
I00
sg887
I1
sbsg5142
g0
(g429
g62
(lp5371
tp5372
Rp5373
(dp5374
g21
I00
sg49
I00
sg23
I00
sg887
I1
sbsg5143
g0
(g429
g62
(lp5375
tp5376
Rp5377
(dp5378
g21
I00
sg49
I00
sg23
I00
sg887
I1
sbsg5144
g0
(g429
g62
(lp5379
tp5380
Rp5381
(dp5382
g21
I00
sg49
I00
sg23
I00
sg887
I1
sbsg5145
g0
(g429
g62
(lp5383
tp5384
Rp5385
(dp5386
g21
I00
sg49
I00
sg23
I00
sg887
I1
sbsg5146
g0
(g3017
g62
(lp5387
tp5388
Rp5389
(dp5390
g21
I00
sg49
I00
sg23
I00
sg887
I1
sbsg5147
g0
(g429
g62
(lp5391
tp5392
Rp5393
(dp5394
g21
I00
sg49
I00
sg23
I00
sg887
I1
sbsg5148
g0
(g71
g2
Ntp5395
Rp5396
(dp5397
g21
I00
sg49
I00
sg23
I00
sg50
I00
sbsg5149
g0
(g5239
g2
Ntp5398
Rp5399
(dp5400
g21
I00
sg49
I00
sg23
I00
sg428
g71
sg430
Nsbsg5150
g0
(g5239
g2
Ntp5401
Rp5402
(dp5403
g21
I00
sg49
I00
sg23
I00
sg428
g45
sg430
Nsbsg5151
g0
(g5239
g2
Ntp5404
Rp5405
(dp5406
g21
I00
sg49
I00
sg23
I00
sg428
g71
sg430
Nsbsg27
NsbsL140132039657456L
g0
(g359
g2
Ntp5407
Rp5408
(dp5409
g21
I00
sg49
I00
sg23
I00
sg19
(lp5410
g5119
ag2369
asg22
Nsg5119
g0
(g424
g2
Ntp5411
Rp5412
(dp5413
g21
I00
sg49
I00
sg23
I00
sg428
g75
sg430
Nsbsg2369
g0
(g424
g2
Ntp5414
Rp5415
(dp5416
g21
I00
sg49
I00
sg23
I00
sg428
g0
(g5299
g2
Ntp5417
Rp5418
(dp5419
g5303
(g75
g359
tp5420
sg5305
Nsg5306
Vallowed(cms.int32,cms.PSet)
p5421
sbsg430
Nsbsg27
NsbsL140132039658512L
g5116
sL140132007823728L
g5125
sL140132008012672L
g2934
sL140132038162512L
g5251
sL140132041748928L
g15
sL140132010528880L
g3955
sL140132010351104L
g3999
sL140132010349712L
g4016
sL140132006790144L
g4021
sL140132006790000L
g4029
sL140132037854928L
g4034
sL140132006267632L
g4042
sL140132006792304L
g4079
sL140132010351536L
g4087
sL140132006792880L
g4092
sL140132006792592L
g4100
sL140132006789520L
g4108
sL140132006268112L
g4118
sL140132006790192L
g4123
sL140132006790960L
g4128
sL140132010348608L
g4136
sL140132010532096L
g4141
sL140132006801120L
g4152
sL140132037855264L
g4161
sL140132037854640L
g2945
sL140132170994064L
g4169
sL140132037855168L
g4180
sL140132037854352L
g4189
sL140132006792256L
g4198
sL140132037855216L
g4215
sL140132170995744L
g4252
sL140132037854016L
g4282
sL140132010350240L
g4301
sL140132006268256L
g4313
sL140132006266192L
g4330
sL140132006797616L
g4345
sL140132007428352L
g4354
sL140132007428640L
g4359
sL140132005959232L
g4375
sL140132007431472L
g4387
sL140132007429024L
g4404
sL140132007430224L
g4420
sL140132005961104L
g4435
sL140132005958080L
g4444
sL140132005959424L
g4456
sL140132008442752L
g4524
sL140132009162880L
g5260
sL140132011240416L
g4532
sL140132011239600L
g4541
sL140132041001376L
g2966
sL140132010058368L
g3279
sL140132010058176L
g3046
sL140132003986592L
g4549
sL140132003985728L
g4567
sL140132004046784L
g4639
sL140132004046688L
g4717
sL140132008443280L
g3216
sL140132008442800L
g5106
sL140132007452880L
g4743
sL140132004045296L
g4758
sL140132004025440L
g4767
sL140132004027504L
g0
(g3953
g2
Ntp5422
Rp5423
(dp5424
g17
g4769
sg19
(lp5425
g4771
ag4772
ag3049
asg21
I00
sg22
Nsg4771
g0
(g45
g2
Ntp5426
Rp5427
(dp5428
g21
I00
sg49
I01
sg23
I01
sg50
VforRawToDigi
p5429
sbsg23
I00
sg4772
g0
(g3017
g62
(lp5430
g0
(g359
g2
Ntp5431
Rp5432
(dp5433
g21
I00
sg49
I01
sg23
I00
sg19
(lp5434
g4781
ag4782
asg22
Nsg4781
g0
(g45
g2
Ntp5435
Rp5436
(dp5437
g21
I00
sg49
I01
sg23
I00
sg50
g4786
sbsg4782
g0
(g45
g2
Ntp5438
Rp5439
(dp5440
g21
I00
sg49
I01
sg23
I00
sg50
g59
sbsbag0
(g359
g2
Ntp5441
Rp5442
(dp5443
g21
I00
sg49
I01
sg23
I00
sg19
(lp5444
g4781
ag4782
asg22
Nsg4781
g0
(g45
g2
Ntp5445
Rp5446
(dp5447
g21
I00
sg49
I01
sg23
I00
sg50
g4797
sbsg4782
g0
(g45
g2
Ntp5448
Rp5449
(dp5450
g21
I00
sg49
I01
sg23
I00
sg50
g59
sbsbatp5451
Rp5452
(dp5453
g21
I00
sg49
I01
sg23
I00
sg887
I1
sbsg3049
g0
(g45
g2
Ntp5454
Rp5455
(dp5456
g21
I00
sg49
I01
sg23
I01
sg50
g5429
sbsg24
V/cvmfs/cms.cern.ch/slc7_amd64_gcc12/cms/cmssw-patch/CMSSW_14_0_5_patch1/src/CalibTracker/SiPixelESProducers/python/siPixelQualityForRawToDigiESProducer_cfi.py
p5457
sg26
I5
sg27
NsbsL140132003938064L
g4809
sL140132003936384L
g4852
sL140132003937152L
g4904
sL140132004025920L
g4943
sL140132006019904L
g5049
sL140132003984672L
g5055
sL140132003279872L
g30
sL140132003302272L
g97
sL140132003227920L
g125
sL140132003229024L
g142
sL140132003228544L
g181
sL140132003303136L
g211
sL140132003497824L
g238
sL140132003136224L
g305
sL140132003330800L
g337
sL140132002889104L
g434
sL140132003136080L
g461
sL140132003746000L
g1739
sL140132003746528L
g475
sL140132003828880L
g559
sL140132003872624L
g593
sL140132003869888L
g5072
sL140132003872480L
g5087
sL140132003987216L
g630
sL140132003301600L
g661
sL140132003139296L
g688
sL140132003328208L
g731
sL140132003180992L
g748
sL140132003136512L
g777
sL140132003328544L
g801
sL140132003328928L
g818
sL140132007430176L
g835
sL140132002904672L
g916
sL140132002904816L
g931
sL140132004089472L
g955
sL140132041000320L
g1048
sL140132003584272L
g1127
sL140132003517296L
g1163
sL140132003301120L
g1179
sL140132003628944L
g1193
sL140132003643152L
g1206
sL140132003280016L
g1218
sL140132003279584L
g1266
sL140132003585136L
g1291
sL140132003642144L
g1306
sL140132004096032L
g1320
sL140132004095936L
g1352
sL140132004095984L
g1751
sL140132004095360L
g1366
sL140132003745952L
g1378
sL140132003747824L
g1433
sL140132003600560L
g1472
sL140132003641520L
g1484
sL140132003330848L
g1496
sL140132002880048L
g1566
sL140132003396096L
g1636
sL140132003329072L
g1706
sL140132003227200L
g1910
sL140132003135984L
g1944
sL140132002902704L
g1996
sL140132002903088L
g2018
sL140132002888912L
g2038
sL140132002902320L
g2068
sL140132002880096L
g2089
sL140132003214288L
g1919
sL140132003138768L
g1927
sL140132003229600L
g2115
sL140132003278960L
g2131
sL140132003507840L
g1952
sL140132002902512L
g2004
sL140132002902896L
g2026
sL140132002888048L
g2046
sL140132002887136L
g2076
sL140132003383136L
g2097
sL140132003746240L
g1969
sL140132004046736L
g1981
sL140132007429840L
g5287
sL140132002952192L
g1843
sL140132002952960L
g1871
ssV_Process__InExtendCall
p5458
I00
sV_Process__partialschedules
p5459
(dp5460
sV_Process__isStrict
p5461
I00
sV_Process__modifiers
p5462
(tsV_Process__accelerators
p5463
(dp5464
VProcessAcceleratorAlpaka
p5465
g0
(cHeterogeneousCore.AlpakaCore.ProcessAcceleratorAlpaka
ProcessAcceleratorAlpaka
p5466
g2
Ntp5467
Rp5468
(dp5469
V_backend
p5470
NsbsVProcessAcceleratorCUDA
p5471
g0
(cHeterogeneousCore.CUDACore.ProcessAcceleratorCUDA
ProcessAcceleratorCUDA
p5472
g2
Ntp5473
Rp5474
(dp5475
V_label
p5476
Vgpu-nvidia
p5477
sbsVProcessAcceleratorROCm
p5478
g0
(cHeterogeneousCore.ROCmCore.ProcessAcceleratorROCm
ProcessAcceleratorROCm
p5479
g2
Ntp5480
Rp5481
(dp5482
g5476
Vgpu-amd
p5483
sbssg5114
g5116
sg2154
g2157
sg5123
g5125
sg2401
g2403
sg2931
g2934
sg2641
g2643
sg5249
g5251
sg12
g15
sg3952
g3955
sg3997
g3999
sg4014
g4016
sg4019
g4021
sg4027
g4029
sg4032
g4034
sg4040
g4042
sg4077
g4079
sg4085
g4087
sg4090
g4092
sg4098
g4100
sg4106
g4108
sg4116
g4118
sg4121
g4123
sg4126
g4128
sg4134
g4136
sg4139
g4141
sg4150
g4152
sg4159
g4161
sg2943
g2945
sg4167
g4169
sg4178
g4180
sg4187
g4189
sg4196
g4198
sg4213
g4215
sg4250
g4252
sg4280
g4282
sg4299
g4301
sg4311
g4313
sg4328
g4330
sg4343
g4345
sg4352
g4354
sg4357
g4359
sg4373
g4375
sg4385
g4387
sg4402
g4404
sg4418
g4420
sg4433
g4435
sg4442
g4444
sg4454
g4456
sg4522
g4524
sg5258
g5260
sg4530
g4532
sg4539
g4541
sg2964
g2966
sg3228
g3279
sg3044
g3046
sg4547
g4549
sg4565
g4567
sg4637
g4639
sg4715
g4717
sg3214
g3216
sg5103
g5106
sg4741
g4743
sg4756
g4758
sg4765
g4767
sg4807
g4809
sg4850
g4852
sg4902
g4904
sg4941
g4943
sg5047
g5049
sg5053
g5055
sg5465
g5468
sg5471
g5474
sg5478
g5481
sg28
g30
sg95
g97
sg123
g125
sg140
g142
sg179
g181
sg209
g211
sg236
g238
sg303
g305
sg335
g337
sg432
g434
sg459
g461
sg1736
g1739
sg473
g475
sg557
g559
sg591
g593
sg5070
g5072
sg5085
g5087
sg628
g630
sg659
g661
sg686
g688
sg729
g731
sg746
g748
sg775
g777
sg799
g801
sg816
g818
sg833
g835
sg914
g916
sg929
g931
sg953
g955
sg1046
g1048
sg1125
g1127
sg1161
g1163
sg1177
g1179
sg1191
g1193
sg1204
g1206
sg1216
g1218
sg1264
g1266
sg1289
g1291
sg1304
g1306
sg1318
g1320
sg1332
g1352
sg1749
g1751
sg1364
g1366
sg1376
g1378
sg1431
g1433
sg1470
g1472
sg1482
g1484
sg1494
g1496
sg1564
g1566
sg1634
g1636
sg1704
g1706
sg32
g1910
sg345
g1944
sg1994
g1996
sg2016
g2018
sg2036
g2038
sg2066
g2068
sg2087
g2089
sg1941
g1919
sg1939
g1927
sg2113
g2115
sg2129
g2131
sg1992
g1952
sg2014
g2004
sg2034
g2026
sg2064
g2046
sg2085
g2076
sg2109
g2097
sg1977
g1969
sg1989
g1981
sg5285
g5287
sVsource
p5484
g1824
sg1826
g1824
sg1840
g1843
sg2919
g2921
sg1868
g1871
sb.