(dp0
VServer
p1
Vcmsweb.cern.ch
p2
sVPort
p3
V
p4
sVRequestName
p5
V220913_102625:fcarneva_crab_ZB_rpcRechits_BeamStructure_PhiEtaRecompute
p6
sVvoRole
p7
VNULL
p8
sVvoGroup
p9
g4
sVinstance
p10
Vprod
p11
sVOriginalConfig
p12
ccopy_reg
_reconstructor
p13
(cWMCore.Configuration
Configuration
p14
c__builtin__
object
p15
Ntp16
Rp17
(dp18
V_internal_sections
p19
(lp20
VGeneral
p21
aVJobType
p22
aVData
p23
aVSite
p24
aVUser
p25
aVDebug
p26
asg21
g13
(cWMCore.Configuration
ConfigSection
p27
g15
Ntp28
Rp29
(dp30
V_internal_documentation
p31
g4
sV_internal_name
p32
g21
sV_internal_settings
p33
c__builtin__
set
p34
((lp35
VtransferLogs
p36
aVtransferOutputs
p37
aVrequestName
p38
atp39
Rp40
sV_internal_docstrings
p41
(dp42
sV_internal_children
p43
g34
((lp44
tp45
Rp46
sV_internal_parent_ref
p47
NsV_internal_skipChecks
p48
I00
sg38
VZB_rpcRechits_BeamStructure_PhiEtaRecompute
p49
sg36
I01
sg37
I01
sbsg22
g13
(g27
g15
Ntp50
Rp51
(dp52
g31
g4
sg32
g22
sg33
g34
((lp53
VpsetName
p54
aVinputFiles
p55
aVoutputFiles
p56
aVpluginName
p57
aVallowUndistributedCMSSW
p58
atp59
Rp60
sg41
(dp61
sg43
g34
((lp62
tp63
Rp64
sg47
Nsg48
I00
sg57
VAnalysis
p65
sg54
VConfFile_ZB_BeamStructure_PhiEtaRecompute.py
p66
sg55
(lp67
Voff_noisy_bar_endcap_new.txt
p68
aVnonColliding_fill8148.txt
p69
asg56
(lp70
VrpcRechits_ZB_2022D_PhiEtaRecompute.root
p71
asg58
I01
sbsg23
g13
(g27
g15
Ntp72
Rp73
(dp74
g31
g4
sg32
g23
sg33
g34
((lp75
VlumiMask
p76
aVunitsPerJob
p77
aVoutputDatasetTag
p78
aVoutLFNDirBase
p79
aVpublication
p80
aVinputDBS
p81
aVsplitting
p82
aVinputDataset
p83
atp84
Rp85
sg41
(dp86
sg43
g34
((lp87
tp88
Rp89
sg47
Nsg48
I00
sg81
Vglobal
p90
sg83
V/ZeroBias/Run2022D-PromptReco-v2/AOD
p91
sg82
VLumiBased
p92
sg77
I20
sg79
V/store/user/fcarneva/
p93
sg80
I00
sg78
g49
sg76
Vjson_2022_Scheme8148.txt
p94
sbsg24
g13
(g27
g15
Ntp95
Rp96
(dp97
g31
g4
sg32
g24
sg33
g34
((lp98
VstorageSite
p99
atp100
Rp101
sg41
(dp102
sg43
g34
((lp103
tp104
Rp105
sg47
Nsg48
I00
sg99
VT2_IT_Pisa
p106
sbsg25
g13
(g27
g15
Ntp107
Rp108
(dp109
g31
g4
sg32
g25
sg33
g34
((lp110
tp111
Rp112
sg41
(dp113
sg43
g34
((lp114
tp115
Rp116
sg47
Nsg48
I00
sbsg26
g13
(g27
g15
Ntp117
Rp118
(dp119
g31
g4
sg32
g26
sg33
g34
((lp120
tp121
Rp122
sg41
(dp123
sg43
g34
((lp124
tp125
Rp126
sg47
Nsg48
I00
sbsbs.