(dp0
VServer
p1
Vcmsweb.cern.ch
p2
sVPort
p3
V
p4
sVRequestName
p5
V240522_083442:lfavilla_crab_ZB_RPCNtuplizer_F9573_R380115
p6
sVvoRole
p7
VNULL
p8
sVvoGroup
p9
g4
sVinstance
p10
Vprod
p11
sVOriginalConfig
p12
ccopy_reg
_reconstructor
p13
(cWMCore.Configuration
Configuration
p14
c__builtin__
object
p15
Ntp16
Rp17
(dp18
V_internal_sections
p19
(lp20
VGeneral
p21
aVJobType
p22
aVData
p23
aVSite
p24
asg21
g13
(cWMCore.Configuration
ConfigSection
p25
g15
Ntp26
Rp27
(dp28
V_internal_documentation
p29
g4
sV_internal_name
p30
g21
sV_internal_settings
p31
c__builtin__
set
p32
((lp33
VrequestName
p34
aVtransferLogs
p35
aVtransferOutputs
p36
atp37
Rp38
sV_internal_docstrings
p39
(dp40
sV_internal_children
p41
g32
((lp42
tp43
Rp44
sV_internal_parent_ref
p45
NsV_internal_skipChecks
p46
I00
sg34
VZB_RPCNtuplizer_F9573_R380115
p47
sg35
I01
sg36
I01
sbsg22
g13
(g25
g15
Ntp48
Rp49
(dp50
g29
g4
sg30
g22
sg31
g32
((lp51
VpsetName
p52
aVallowUndistributedCMSSW
p53
aVinputFiles
p54
aVoutputFiles
p55
aVpluginName
p56
atp57
Rp58
sg39
(dp59
sg41
g32
((lp60
tp61
Rp62
sg45
Nsg46
I00
sg56
VAnalysis
p63
sg52
VConfFile_RPCNtuplizer.py
p64
sg54
(lp65
VAll_Noisy_strips_ID.txt
p66
asg55
(lp67
VRPCNtuple.root
p68
asg53
I01
sbsg23
g13
(g25
g15
Ntp69
Rp70
(dp71
g29
g4
sg30
g23
sg31
g32
((lp72
Vsplitting
p73
aVunitsPerJob
p74
aVoutputDatasetTag
p75
aVinputDBS
p76
aVlumiMask
p77
aVoutLFNDirBase
p78
aVinputDataset
p79
aVpublication
p80
atp81
Rp82
sg39
(dp83
sg41
g32
((lp84
tp85
Rp86
sg45
Nsg46
I00
sg76
Vglobal
p87
sg79
V/ZeroBias/Run2024C-PromptReco-v1/AOD
p88
sg73
VLumiBased
p89
sg74
I20
sg78
V/store/user/lfavilla/
p90
sg80
I00
sg75
g47
sg77
V../golden/Fill_9573/golden_Fill9573_Run380115.json
p91
sbsg24
g13
(g25
g15
Ntp92
Rp93
(dp94
g29
g4
sg30
g24
sg31
g32
((lp95
VstorageSite
p96
atp97
Rp98
sg39
(dp99
sg41
g32
((lp100
tp101
Rp102
sg45
Nsg46
I00
sg96
VT2_IT_Pisa
p103
sbsbs.