ccopy_reg
_reconstructor
p0
(cFWCore.ParameterSet.Config
Process
p1
c__builtin__
object
p2
Ntp3
Rp4
(dp5
V_Process__name
p6
VDemo
p7
sV_Process__filters
p8
(dp9
sV_Process__producers
p10
(dp11
VrandomEngineStateProducer
p12
g0
(cFWCore.ParameterSet.Modules
EDProducer
p13
g2
Ntp14
Rp15
(dp16
V_TypedParameterizable__type
p17
VRandomEngineStateProducer
p18
sV_Parameterizable__parameterNames
p19
(lp20
sV_isFrozen
p21
I00
sV_Parameterizable__validator
p22
NsV_isModified
p23
I00
sV_filename
p24
V/cvmfs/cms.cern.ch/slc7_amd64_gcc12/cms/cmssw-patch/CMSSW_14_0_5_patch1/src/IOMC/RandomEngine/python/IOMC_cff.py
p25
sV_lineNumber
p26
I172
sV_Labelable__label
p27
g12
sbsVbmtfDigis
p28
g0
(g13
g2
Ntp29
Rp30
(dp31
g17
VL1TRawToDigi
p32
sg19
(lp33
VSetup
p34
aVInputLabel
p35
aVFedIds
p36
aVFWId
p37
aVFWOverride
p38
aVlenSlinkHeader
p39
aVlenSlinkTrailer
p40
aVlenAMCHeader
p41
aVlenAMCTrailer
p42
aVlenAMC13Header
p43
aVlenAMC13Trailer
p44
asg21
I00
sg22
Nsg34
g0
(cFWCore.ParameterSet.Types
string
p45
g2
Ntp46
Rp47
(dp48
g21
I00
sV_ParameterTypeBase__isTracked
p49
I01
sg23
I00
sV_value
p50
Vstage2::BMTFSetup
p51
sbsg23
I00
sg35
g0
(cFWCore.ParameterSet.Types
InputTag
p52
g2
Ntp53
Rp54
(dp55
g21
I00
sg49
I01
sg23
I00
sV_InputTag__moduleLabel
p56
VrawDataCollector
p57
sV_InputTag__productInstance
p58
V
p59
sV_InputTag__processName
p60
g59
sbsg36
g0
(cFWCore.ParameterSet.Types
vint32
p61
c__builtin__
list
p62
(lp63
I1376
aI1377
atp64
Rp65
(dp66
g21
I00
sg49
I01
sg23
I00
sbsg37
g0
(cFWCore.ParameterSet.Types
uint32
p67
g2
Ntp68
Rp69
(dp70
g21
I00
sg49
I01
sg23
I00
sg50
I1
sbsg38
g0
(cFWCore.ParameterSet.Types
bool
p71
g2
Ntp72
Rp73
(dp74
g21
I00
sg49
I01
sg23
I00
sg50
I00
sbsg39
g0
(cFWCore.ParameterSet.Types
int32
p75
g2
Ntp76
Rp77
(dp78
g21
I00
sg49
I00
sg23
I00
sg50
I8
sbsg40
g0
(g75
g2
Ntp79
Rp80
(dp81
g21
I00
sg49
I00
sg23
I00
sg50
I8
sbsg41
g0
(g75
g2
Ntp82
Rp83
(dp84
g21
I00
sg49
I00
sg23
I00
sg50
I8
sbsg42
g0
(g75
g2
Ntp85
Rp86
(dp87
g21
I00
sg49
I00
sg23
I00
sg50
I0
sbsg43
g0
(g75
g2
Ntp88
Rp89
(dp90
g21
I00
sg49
I00
sg23
I00
sg50
I8
sbsg44
g0
(g75
g2
Ntp91
Rp92
(dp93
g21
I00
sg49
I00
sg23
I00
sg50
I8
sbsg24
V/cvmfs/cms.cern.ch/slc7_amd64_gcc12/cms/cmssw-patch/CMSSW_14_0_5_patch1/src/EventFilter/L1TRawToDigi/python/bmtfDigis_cfi.py
p94
sg26
I3
sg27
g28
sbsVcaloLayer1Digis
p95
g0
(g13
g2
Ntp96
Rp97
(dp98
g17
g32
sg19
(lp99
g34
ag35
ag36
ag37
aVdebug
p100
aVCTP7
p101
asg21
I00
sg22
Nsg34
g0
(g45
g2
Ntp102
Rp103
(dp104
g21
I00
sg49
I01
sg23
I00
sg50
Vstage2::CaloLayer1Setup
p105
sbsg23
I00
sg35
g0
(g52
g2
Ntp106
Rp107
(dp108
g21
I00
sg49
I01
sg23
I00
sg56
g57
sg58
g59
sg60
g59
sbsg36
g0
(g61
g62
(lp109
I1354
aI1356
aI1358
atp110
Rp111
(dp112
g21
I00
sg49
I01
sg23
I00
sbsg37
g0
(g67
g2
Ntp113
Rp114
(dp115
g21
I00
sg49
I01
sg23
I00
sg50
I305419896
sbsg100
g0
(g71
g2
Ntp116
Rp117
(dp118
g21
I00
sg49
I00
sg23
I00
sg50
I00
sbsg101
g0
(g71
g2
Ntp119
Rp120
(dp121
g21
I00
sg49
I00
sg23
I00
sg50
I01
sbsg24
V/cvmfs/cms.cern.ch/slc7_amd64_gcc12/cms/cmssw-patch/CMSSW_14_0_5_patch1/src/EventFilter/L1TRawToDigi/python/caloLayer1Digis_cfi.py
p122
sg26
I3
sg27
g95
sbsVcaloStage1Digis
p123
g0
(g13
g2
Ntp124
Rp125
(dp126
g17
g32
sg19
(lp127
g35
ag34
ag36
asg21
I00
sg22
Nsg35
g0
(g52
g2
Ntp128
Rp129
(dp130
g21
I00
sg49
I01
sg23
I00
sg56
g57
sg58
g59
sg60
g59
sbsg23
I00
sg34
g0
(g45
g2
Ntp131
Rp132
(dp133
g21
I00
sg49
I01
sg23
I00
sg50
Vstage1::CaloSetup
p134
sbsg36
g0
(g61
g62
(lp135
I1352
atp136
Rp137
(dp138
g21
I00
sg49
I01
sg23
I00
sbsg24
V/cvmfs/cms.cern.ch/slc7_amd64_gcc12/cms/cmssw-patch/CMSSW_14_0_5_patch1/src/EventFilter/L1TRawToDigi/python/caloStage1Digis_cfi.py
p139
sg26
I3
sg27
g123
sbsVcaloStage1FinalDigis
p140
g0
(g13
g2
Ntp141
Rp142
(dp143
g17
VL1TPhysicalEtAdder
p144
sg19
(lp145
VInputCollection
p146
aVInputRlxTauCollection
p147
aVInputIsoTauCollection
p148
aVInputPreGtJetCollection
p149
aVInputHFSumsCollection
p150
aVInputHFCountsCollection
p151
asg21
I00
sg22
Nsg146
g0
(g52
g2
Ntp152
Rp153
(dp154
g21
I00
sg49
I01
sg23
I00
sg56
g123
sg58
g59
sg60
g59
sbsg23
I00
sg147
g0
(g52
g2
Ntp155
Rp156
(dp157
g21
I00
sg49
I01
sg23
I00
sg56
VcaloStage1Digis
p158
sg58
VrlxTaus
p159
sg60
g59
sbsg148
g0
(g52
g2
Ntp160
Rp161
(dp162
g21
I00
sg49
I01
sg23
I00
sg56
VcaloStage1Digis
p163
sg58
VisoTaus
p164
sg60
g59
sbsg149
g0
(g52
g2
Ntp165
Rp166
(dp167
g21
I00
sg49
I01
sg23
I00
sg56
g123
sg58
g59
sg60
g59
sbsg150
g0
(g52
g2
Ntp168
Rp169
(dp170
g21
I00
sg49
I01
sg23
I00
sg56
VcaloStage1Digis
p171
sg58
VHFRingSums
p172
sg60
g59
sbsg151
g0
(g52
g2
Ntp173
Rp174
(dp175
g21
I00
sg49
I01
sg23
I00
sg56
VcaloStage1Digis
p176
sg58
VHFBitCounts
p177
sg60
g59
sbsg24
V/cvmfs/cms.cern.ch/slc7_amd64_gcc12/cms/cmssw-patch/CMSSW_14_0_5_patch1/src/L1Trigger/L1TCalorimeter/python/caloStage1FinalDigis_cfi.py
p178
sg26
I3
sg27
g140
sbsVcaloStage1LegacyFormatDigis
p179
g0
(g13
g2
Ntp180
Rp181
(dp182
g17
VL1TCaloUpgradeToGCTConverter
p183
sg19
(lp184
g146
ag147
ag148
ag150
ag151
asg21
I00
sg22
Nsg146
g0
(g52
g2
Ntp185
Rp186
(dp187
g21
I00
sg49
I01
sg23
I00
sg56
g123
sg58
g59
sg60
g59
sbsg23
I00
sg147
g0
(g52
g2
Ntp188
Rp189
(dp190
g21
I00
sg49
I01
sg23
I00
sg56
VcaloStage1Digis
p191
sg58
VrlxTaus
p192
sg60
g59
sbsg148
g0
(g52
g2
Ntp193
Rp194
(dp195
g21
I00
sg49
I01
sg23
I00
sg56
VcaloStage1Digis
p196
sg58
VisoTaus
p197
sg60
g59
sbsg150
g0
(g52
g2
Ntp198
Rp199
(dp200
g21
I00
sg49
I01
sg23
I00
sg56
VcaloStage1Digis
p201
sg58
VHFRingSums
p202
sg60
g59
sbsg151
g0
(g52
g2
Ntp203
Rp204
(dp205
g21
I00
sg49
I01
sg23
I00
sg56
VcaloStage1Digis
p206
sg58
VHFBitCounts
p207
sg60
g59
sbsg24
V/cvmfs/cms.cern.ch/slc7_amd64_gcc12/cms/cmssw-patch/CMSSW_14_0_5_patch1/src/L1Trigger/L1TCalorimeter/python/caloStage1LegacyFormatDigis_cfi.py
p208
sg26
I3
sg27
g179
sbsVcaloStage2Digis
p209
g0
(g13
g2
Ntp210
Rp211
(dp212
g17
g32
sg19
(lp213
g35
ag34
ag36
ag37
ag38
aVTMTCheck
p214
asg21
I00
sg22
Nsg35
g0
(g52
g2
Ntp215
Rp216
(dp217
g21
I00
sg49
I01
sg23
I00
sg56
g57
sg58
g59
sg60
g59
sbsg23
I00
sg34
g0
(g45
g2
Ntp218
Rp219
(dp220
g21
I00
sg49
I01
sg23
I00
sg50
Vstage2::CaloSetup
p221
sbsg36
g0
(g61
g62
(lp222
I1360
aI1366
atp223
Rp224
(dp225
g21
I00
sg49
I01
sg23
I00
sbsg37
g0
(g67
g2
Ntp226
Rp227
(dp228
g21
I00
sg49
I01
sg23
I00
sg50
I0
sbsg38
g0
(g71
g2
Ntp229
Rp230
(dp231
g21
I00
sg49
I01
sg23
I00
sg50
I00
sbsg214
g0
(g71
g2
Ntp232
Rp233
(dp234
g21
I00
sg49
I01
sg23
I00
sg50
I01
sbsg24
V/cvmfs/cms.cern.ch/slc7_amd64_gcc12/cms/cmssw-patch/CMSSW_14_0_5_patch1/src/EventFilter/L1TRawToDigi/python/caloStage2Digis_cfi.py
p235
sg26
I3
sg27
g209
sbsVcastorDigis
p236
g0
(g13
g2
Ntp237
Rp238
(dp239
g17
VCastorRawToDigi
p240
sg19
(lp241
VFilterDataQuality
p242
aVCastorFirstFED
p243
aVZDCFirstFED
p244
aVFEDs
p245
aVExceptionEmptyData
p246
aVComplainEmptyData
p247
aVfirstSample
p248
aVlastSample
p249
aVUnpackTTP
p250
aVsilent
p251
ag35
aVCastorCtdc
p252
aVUseNominalOrbitMessageTime
p253
aVExpectedOrbitMessageTime
p254
aVUnpackZDC
p255
asg21
I00
sg22
Nsg242
g0
(g71
g2
Ntp256
Rp257
(dp258
g21
I00
sg49
I01
sg23
I00
sg50
I01
sbsg23
I01
sg243
g0
(g75
g2
Ntp259
Rp260
(dp261
g21
I00
sg49
I01
sg23
I00
sg50
I690
sbsg244
g0
(g75
g2
Ntp262
Rp263
(dp264
g21
I00
sg49
I01
sg23
I00
sg50
I693
sbsg245
g0
(g61
g62
(lp265
I690
aI691
aI692
aI693
aI722
atp266
Rp267
(dp268
g21
I00
sg49
I00
sg23
I00
sbsg246
g0
(g71
g2
Ntp269
Rp270
(dp271
g21
I00
sg49
I00
sg23
I00
sg50
I00
sbsg247
g0
(g71
g2
Ntp272
Rp273
(dp274
g21
I00
sg49
I00
sg23
I00
sg50
I00
sbsg248
g0
(g75
g2
Ntp275
Rp276
(dp277
g21
I00
sg49
I01
sg23
I00
sg50
I0
sbsg249
g0
(g75
g2
Ntp278
Rp279
(dp280
g21
I00
sg49
I01
sg23
I00
sg50
I9
sbsg250
g0
(g71
g2
Ntp281
Rp282
(dp283
g21
I00
sg49
I01
sg23
I00
sg50
I01
sbsg251
g0
(g71
g2
Ntp284
Rp285
(dp286
g21
I00
sg49
I00
sg23
I00
sg50
I00
sbsg35
g0
(g52
g2
Ntp287
Rp288
(dp289
g21
I00
sg49
I01
sg23
I01
sg56
g57
sg58
g59
sg60
g59
sbsg252
g0
(g71
g2
Ntp290
Rp291
(dp292
g21
I00
sg49
I01
sg23
I00
sg50
I00
sbsg253
g0
(g71
g2
Ntp293
Rp294
(dp295
g21
I00
sg49
I01
sg23
I00
sg50
I01
sbsg254
g0
(g75
g2
Ntp296
Rp297
(dp298
g21
I00
sg49
I01
sg23
I00
sg50
I-1
sbsg255
g0
(g71
g2
Ntp299
Rp300
(dp301
g21
I00
sg49
I01
sg23
I00
sg50
I01
sbsg24
V/cvmfs/cms.cern.ch/slc7_amd64_gcc12/cms/cmssw-patch/CMSSW_14_0_5_patch1/src/Configuration/StandardSequences/python/RawToDigi_cff.py
p302
sg26
I34
sg27
g236
sbsVcsctfDigis
p303
g0
(g13
g2
Ntp304
Rp305
(dp306
g17
VCSCTFUnpacker
p307
sg19
(lp308
VMaxBX
p309
aVMinBX
p310
aVslot2sector
p311
aVmappingFile
p312
aVswapME1strips
p313
aVproducer
p314
asg21
I00
sg22
Nsg309
g0
(g75
g2
Ntp315
Rp316
(dp317
g21
I00
sg49
I01
sg23
I00
sg50
I11
sbsg23
I00
sg310
g0
(g75
g2
Ntp318
Rp319
(dp320
g21
I00
sg49
I01
sg23
I00
sg50
I5
sbsg311
g0
(g61
g62
(lp321
I0
aI0
aI0
aI0
aI0
aI0
aI0
aI0
aI0
aI0
aI0
aI0
aI0
aI0
aI0
aI0
aI0
aI0
aI0
aI0
aI0
aI0
atp322
Rp323
(dp324
g21
I00
sg49
I01
sg23
I00
sbsg312
g0
(g45
g2
Ntp325
Rp326
(dp327
g21
I00
sg49
I01
sg23
I00
sg50
g59
sbsg313
g0
(g71
g2
Ntp328
Rp329
(dp330
g21
I00
sg49
I01
sg23
I00
sg50
I00
sbsg314
g0
(g52
g2
Ntp331
Rp332
(dp333
g21
I00
sg49
I01
sg23
I01
sg56
g57
sg58
g59
sg60
g59
sbsg24
V/cvmfs/cms.cern.ch/slc7_amd64_gcc12/cms/cmssw-patch/CMSSW_14_0_5_patch1/src/L1Trigger/Configuration/python/L1TRawToDigi_cff.py
p334
sg26
I17
sg27
g303
sbsVctppsDiamondRawToDigi
p335
g0
(g13
g2
Ntp336
Rp337
(dp338
g17
VTotemVFATRawToDigi
p339
sg19
(lp340
VrawDataTag
p341
aVsubSystem
p342
aVfedIds
p343
aVRawUnpacking
p344
aVRawToDigi
p345
aVmightGet
p346
asg21
I00
sg22
Nsg341
g0
(g52
g2
Ntp347
Rp348
(dp349
g21
I00
sg49
I01
sg23
I01
sg56
g57
sg58
g59
sg60
g59
sbsg23
I01
sg342
g0
(g45
g2
Ntp350
Rp351
(dp352
g21
I00
sg49
I01
sg23
I01
sg50
VTimingDiamond
p353
sbsg343
g0
(cFWCore.ParameterSet.Types
vuint32
p354
g62
(lp355
I579
aI581
aI582
aI583
aI588
aI589
atp356
Rp357
(dp358
g21
I00
sg49
I01
sg23
I01
sbsg344
g0
(cFWCore.ParameterSet.Types
PSet
p359
g2
Ntp360
Rp361
(dp362
g21
I00
sg49
I01
sg23
I00
sg19
(lp363
Vverbosity
p364
asg22
Nsg364
g0
(g67
g2
Ntp365
Rp366
(dp367
g21
I00
sg49
I00
sg23
I00
sg50
I0
sbsbsg345
g0
(g359
g2
Ntp368
Rp369
(dp370
g21
I00
sg49
I01
sg23
I01
sg19
(lp371
g364
aVtestFootprint
p372
aVtestCRC
p373
aVtestID
p374
aVtestECMostFrequent
p375
aVtestBCMostFrequent
p376
aVEC_min
p377
aVBC_min
p378
aVEC_fraction
p379
aVBC_fraction
p380
aVuseOlderT2TestFile
p381
aVprintErrorSummary
p382
aVprintUnknownFrameSummary
p383
asg22
Nsg364
g0
(g67
g2
Ntp384
Rp385
(dp386
g21
I00
sg49
I00
sg23
I00
sg50
I0
sbsg372
g0
(g67
g2
Ntp387
Rp388
(dp389
g21
I00
sg49
I01
sg23
I00
sg50
I2
sbsg373
g0
(g67
g2
Ntp390
Rp391
(dp392
g21
I00
sg49
I01
sg23
I01
sg50
I0
sbsg374
g0
(g67
g2
Ntp393
Rp394
(dp395
g21
I00
sg49
I01
sg23
I00
sg50
I2
sbsg375
g0
(g67
g2
Ntp396
Rp397
(dp398
g21
I00
sg49
I01
sg23
I01
sg50
I0
sbsg376
g0
(g67
g2
Ntp399
Rp400
(dp401
g21
I00
sg49
I01
sg23
I00
sg50
I2
sbsg377
g0
(g67
g2
Ntp402
Rp403
(dp404
g21
I00
sg49
I00
sg23
I00
sg50
I10
sbsg378
g0
(g67
g2
Ntp405
Rp406
(dp407
g21
I00
sg49
I00
sg23
I00
sg50
I10
sbsg379
g0
(cFWCore.ParameterSet.Types
double
p408
g2
Ntp409
Rp410
(dp411
g21
I00
sg49
I00
sg23
I00
sg50
F0.6
sbsg380
g0
(g408
g2
Ntp412
Rp413
(dp414
g21
I00
sg49
I00
sg23
I00
sg50
F0.6
sbsg381
g0
(g71
g2
Ntp415
Rp416
(dp417
g21
I00
sg49
I01
sg23
I00
sg50
I00
sbsg382
g0
(g71
g2
Ntp418
Rp419
(dp420
g21
I00
sg49
I00
sg23
I00
sg50
I00
sbsg383
g0
(g71
g2
Ntp421
Rp422
(dp423
g21
I00
sg49
I00
sg23
I00
sg50
I00
sbsbsg346
g0
(cFWCore.ParameterSet.Types
_OptionalParameter
p424
g2
Ntp425
Rp426
(dp427
g21
I00
sg49
I00
sg23
I00
sV_ProxyParameter__type
p428
cFWCore.ParameterSet.Types
vstring
p429
sV_ProxyParameter__value
p430
Nsbsg24
V/cvmfs/cms.cern.ch/slc7_amd64_gcc12/cms/cmssw-patch/CMSSW_14_0_5_patch1/src/EventFilter/CTPPSRawToDigi/python/ctppsDiamondRawToDigi_cfi.py
p431
sg26
I11
sg27
g335
sbsVctppsPixelDigis
p432
g0
(g13
g2
Ntp433
Rp434
(dp435
g17
VCTPPSPixelRawToDigi
p436
sg19
(lp437
VisRun3
p438
aVincludeErrors
p439
aVinputLabel
p440
aVmappingLabel
p441
ag346
asg21
I00
sg22
Nsg438
g0
(g71
g2
Ntp442
Rp443
(dp444
g21
I00
sg49
I01
sg23
I00
sg50
I01
sbsg23
I01
sg439
g0
(g71
g2
Ntp445
Rp446
(dp447
g21
I00
sg49
I01
sg23
I00
sg50
I01
sbsg440
g0
(g52
g2
Ntp448
Rp449
(dp450
g21
I00
sg49
I01
sg23
I01
sg56
g57
sg58
g59
sg60
g59
sbsg441
g0
(g45
g2
Ntp451
Rp452
(dp453
g21
I00
sg49
I01
sg23
I00
sg50
VRPix
p454
sbsg346
g0
(g424
g2
Ntp455
Rp456
(dp457
g21
I00
sg49
I00
sg23
I00
sg428
g429
sg430
Nsbsg24
V/cvmfs/cms.cern.ch/slc7_amd64_gcc12/cms/cmssw-patch/CMSSW_14_0_5_patch1/cfipython/slc7_amd64_gcc12/EventFilter/CTPPSRawToDigi/ctppsPixelDigis_cfi.py
p458
sg26
I3
sg27
g432
sbsVdttfDigis
p459
g0
(g13
g2
Ntp460
Rp461
(dp462
g17
VDTTFFEDReader
p463
sg19
(lp464
VDTTF_FED_Source
p465
aVverbose
p466
asg21
I00
sg22
Nsg465
g0
(g52
g2
Ntp467
Rp468
(dp469
g21
I00
sg49
I01
sg23
I01
sg56
g57
sg58
g59
sg60
g59
sbsg23
I00
sg466
g0
(g71
g2
Ntp470
Rp471
(dp472
g21
I00
sg49
I00
sg23
I00
sg50
I00
sbsg24
g334
sg26
I19
sg27
g459
sbsVecalDigisCPU
p473
g0
(g13
g2
Ntp474
Rp475
(dp476
g17
VEcalRawToDigi
p477
sg19
(lp478
VtccUnpacking
p479
aVFedLabel
p480
aVsrpUnpacking
p481
aVsyncCheck
p482
aVfeIdCheck
p483
aVsilentMode
p484
ag35
aVorderedFedList
p485
aVeventPut
p486
aVnumbTriggerTSamples
p487
aVnumbXtalTSamples
p488
aVorderedDCCIdList
p489
ag245
aVDoRegional
p490
aVfeUnpacking
p491
aVforceToKeepFRData
p492
aVheaderUnpacking
p493
aVmemUnpacking
p494
ag346
asg21
I00
sg22
Nsg479
g0
(g71
g2
Ntp495
Rp496
(dp497
g21
I00
sg49
I01
sg23
I00
sg50
I01
sbsg23
I01
sg480
g0
(g52
g2
Ntp498
Rp499
(dp500
g21
I00
sg49
I01
sg23
I00
sg56
Vlistfeds
p501
sg58
g59
sg60
g59
sbsg481
g0
(g71
g2
Ntp502
Rp503
(dp504
g21
I00
sg49
I01
sg23
I00
sg50
I01
sbsg482
g0
(g71
g2
Ntp505
Rp506
(dp507
g21
I00
sg49
I01
sg23
I00
sg50
I01
sbsg483
g0
(g71
g2
Ntp508
Rp509
(dp510
g21
I00
sg49
I01
sg23
I00
sg50
I01
sbsg484
g0
(g71
g2
Ntp511
Rp512
(dp513
g21
I00
sg49
I00
sg23
I00
sg50
I01
sbsg35
g0
(g52
g2
Ntp514
Rp515
(dp516
g21
I00
sg49
I01
sg23
I01
sg56
g57
sg58
g59
sg60
g59
sbsg485
g0
(g61
g62
(lp517
I601
aI602
aI603
aI604
aI605
aI606
aI607
aI608
aI609
aI610
aI611
aI612
aI613
aI614
aI615
aI616
aI617
aI618
aI619
aI620
aI621
aI622
aI623
aI624
aI625
aI626
aI627
aI628
aI629
aI630
aI631
aI632
aI633
aI634
aI635
aI636
aI637
aI638
aI639
aI640
aI641
aI642
aI643
aI644
aI645
aI646
aI647
aI648
aI649
aI650
aI651
aI652
aI653
aI654
atp518
Rp519
(dp520
g21
I00
sg49
I01
sg23
I00
sbsg486
g0
(g71
g2
Ntp521
Rp522
(dp523
g21
I00
sg49
I01
sg23
I00
sg50
I01
sbsg487
g0
(g75
g2
Ntp524
Rp525
(dp526
g21
I00
sg49
I01
sg23
I00
sg50
I1
sbsg488
g0
(g75
g2
Ntp527
Rp528
(dp529
g21
I00
sg49
I01
sg23
I00
sg50
I10
sbsg489
g0
(g61
g62
(lp530
I1
aI2
aI3
aI4
aI5
aI6
aI7
aI8
aI9
aI10
aI11
aI12
aI13
aI14
aI15
aI16
aI17
aI18
aI19
aI20
aI21
aI22
aI23
aI24
aI25
aI26
aI27
aI28
aI29
aI30
aI31
aI32
aI33
aI34
aI35
aI36
aI37
aI38
aI39
aI40
aI41
aI42
aI43
aI44
aI45
aI46
aI47
aI48
aI49
aI50
aI51
aI52
aI53
aI54
atp531
Rp532
(dp533
g21
I00
sg49
I01
sg23
I00
sbsg245
g0
(g61
g62
(lp534
I601
aI602
aI603
aI604
aI605
aI606
aI607
aI608
aI609
aI610
aI611
aI612
aI613
aI614
aI615
aI616
aI617
aI618
aI619
aI620
aI621
aI622
aI623
aI624
aI625
aI626
aI627
aI628
aI629
aI630
aI631
aI632
aI633
aI634
aI635
aI636
aI637
aI638
aI639
aI640
aI641
aI642
aI643
aI644
aI645
aI646
aI647
aI648
aI649
aI650
aI651
aI652
aI653
aI654
atp535
Rp536
(dp537
g21
I00
sg49
I01
sg23
I00
sbsg490
g0
(g71
g2
Ntp538
Rp539
(dp540
g21
I00
sg49
I01
sg23
I00
sg50
I00
sbsg491
g0
(g71
g2
Ntp541
Rp542
(dp543
g21
I00
sg49
I01
sg23
I00
sg50
I01
sbsg492
g0
(g71
g2
Ntp544
Rp545
(dp546
g21
I00
sg49
I01
sg23
I00
sg50
I00
sbsg493
g0
(g71
g2
Ntp547
Rp548
(dp549
g21
I00
sg49
I01
sg23
I00
sg50
I01
sbsg494
g0
(g71
g2
Ntp550
Rp551
(dp552
g21
I00
sg49
I01
sg23
I00
sg50
I01
sbsg346
g0
(g424
g2
Ntp553
Rp554
(dp555
g21
I00
sg49
I00
sg23
I00
sg428
g429
sg430
Nsbsg24
V/cvmfs/cms.cern.ch/slc7_amd64_gcc12/cms/cmssw-patch/CMSSW_14_0_5_patch1/src/EventFilter/EcalRawToDigi/python/ecalDigis_cff.py
p556
sg26
I6
sg27
g473
sbsVecalDigisGPU
p557
g0
(g13
g2
Ntp558
Rp559
(dp560
g17
VEcalRawToDigiGPU
p561
sg19
(lp562
g35
ag245
aVmaxChannelsEB
p563
aVmaxChannelsEE
p564
aVdigisLabelEB
p565
aVdigisLabelEE
p566
ag346
asg21
I00
sg22
Nsg35
g0
(g52
g2
Ntp567
Rp568
(dp569
g21
I00
sg49
I01
sg23
I00
sg56
g57
sg58
g59
sg60
g59
sbsg23
I00
sg245
g0
(g61
g62
(lp570
I601
aI602
aI603
aI604
aI605
aI606
aI607
aI608
aI609
aI610
aI611
aI612
aI613
aI614
aI615
aI616
aI617
aI618
aI619
aI620
aI621
aI622
aI623
aI624
aI625
aI626
aI627
aI628
aI629
aI630
aI631
aI632
aI633
aI634
aI635
aI636
aI637
aI638
aI639
aI640
aI641
aI642
aI643
aI644
aI645
aI646
aI647
aI648
aI649
aI650
aI651
aI652
aI653
aI654
atp571
Rp572
(dp573
g21
I00
sg49
I01
sg23
I00
sbsg563
g0
(g67
g2
Ntp574
Rp575
(dp576
g21
I00
sg49
I01
sg23
I00
sg50
I61200
sbsg564
g0
(g67
g2
Ntp577
Rp578
(dp579
g21
I00
sg49
I01
sg23
I00
sg50
I14648
sbsg565
g0
(g45
g2
Ntp580
Rp581
(dp582
g21
I00
sg49
I01
sg23
I00
sg50
VebDigis
p583
sbsg566
g0
(g45
g2
Ntp584
Rp585
(dp586
g21
I00
sg49
I01
sg23
I00
sg50
VeeDigis
p587
sbsg346
g0
(g424
g2
Ntp588
Rp589
(dp590
g21
I00
sg49
I00
sg23
I00
sg428
g429
sg430
Nsbsg24
g556
sg26
I27
sg27
g557
sbsVecalDigisPortable
p591
g0
(g13
g2
Ntp592
Rp593
(dp594
g17
VEcalRawToDigiPortable@alpaka
p595
sg19
(lp596
g35
ag245
ag563
ag564
ag565
ag566
ag346
aValpaka
p597
asg21
I00
sg22
Nsg35
g0
(g52
g2
Ntp598
Rp599
(dp600
g21
I00
sg49
I01
sg23
I00
sg56
g57
sg58
g59
sg60
g59
sbsg23
I00
sg245
g0
(g61
g62
(lp601
I601
aI602
aI603
aI604
aI605
aI606
aI607
aI608
aI609
aI610
aI611
aI612
aI613
aI614
aI615
aI616
aI617
aI618
aI619
aI620
aI621
aI622
aI623
aI624
aI625
aI626
aI627
aI628
aI629
aI630
aI631
aI632
aI633
aI634
aI635
aI636
aI637
aI638
aI639
aI640
aI641
aI642
aI643
aI644
aI645
aI646
aI647
aI648
aI649
aI650
aI651
aI652
aI653
aI654
atp602
Rp603
(dp604
g21
I00
sg49
I01
sg23
I00
sbsg563
g0
(g67
g2
Ntp605
Rp606
(dp607
g21
I00
sg49
I01
sg23
I00
sg50
I61200
sbsg564
g0
(g67
g2
Ntp608
Rp609
(dp610
g21
I00
sg49
I01
sg23
I00
sg50
I14648
sbsg565
g0
(g45
g2
Ntp611
Rp612
(dp613
g21
I00
sg49
I01
sg23
I00
sg50
g583
sbsg566
g0
(g45
g2
Ntp614
Rp615
(dp616
g21
I00
sg49
I01
sg23
I00
sg50
g587
sbsg346
g0
(g424
g2
Ntp617
Rp618
(dp619
g21
I00
sg49
I00
sg23
I00
sg428
g429
sg430
Nsbsg597
g0
(g359
g2
Ntp620
Rp621
(dp622
g21
I00
sg49
I00
sg23
I00
sg19
(lp623
Vbackend
p624
asg22
Nsg624
g0
(g45
g2
Ntp625
Rp626
(dp627
g21
I00
sg49
I00
sg23
I00
sg50
g59
sbsbsg24
g556
sg26
I57
sg27
g591
sbsVecalPreshowerDigis
p628
g0
(g13
g2
Ntp629
Rp630
(dp631
g17
VESRawToDigi
p632
sg19
(lp633
VsourceTag
p634
aVdebugMode
p635
aVInstanceES
p636
aVLookupTable
p637
aVESdigiCollection
p638
ag346
asg21
I00
sg22
Nsg634
g0
(g52
g2
Ntp639
Rp640
(dp641
g21
I00
sg49
I01
sg23
I01
sg56
g57
sg58
g59
sg60
g59
sbsg23
I01
sg635
g0
(g71
g2
Ntp642
Rp643
(dp644
g21
I00
sg49
I00
sg23
I00
sg50
I00
sbsg636
g0
(g45
g2
Ntp645
Rp646
(dp647
g21
I00
sg49
I01
sg23
I00
sg50
g59
sbsg637
g0
(cFWCore.ParameterSet.Types
FileInPath
p648
g2
Ntp649
Rp650
(dp651
g21
I00
sg49
I01
sg23
I00
sg50
VEventFilter/ESDigiToRaw/data/ES_lookup_table.dat
p652
sbsg638
g0
(g45
g2
Ntp653
Rp654
(dp655
g21
I00
sg49
I01
sg23
I00
sg50
g59
sbsg346
g0
(g424
g2
Ntp656
Rp657
(dp658
g21
I00
sg49
I00
sg23
I00
sg428
g429
sg430
Nsbsg24
g302
sg26
I16
sg27
g628
sbsVemtfStage2Digis
p659
g0
(g13
g2
Ntp660
Rp661
(dp662
g17
g32
sg19
(lp663
g34
ag35
ag36
ag37
ag100
aVMTF7
p664
asg21
I00
sg22
Nsg34
g0
(g45
g2
Ntp665
Rp666
(dp667
g21
I00
sg49
I01
sg23
I00
sg50
Vstage2::EMTFSetup
p668
sbsg23
I00
sg35
g0
(g52
g2
Ntp669
Rp670
(dp671
g21
I00
sg49
I01
sg23
I00
sg56
g57
sg58
g59
sg60
g59
sbsg36
g0
(g61
g62
(lp672
I1384
aI1385
atp673
Rp674
(dp675
g21
I00
sg49
I01
sg23
I00
sbsg37
g0
(g67
g2
Ntp676
Rp677
(dp678
g21
I00
sg49
I01
sg23
I00
sg50
I0
sbsg100
g0
(g71
g2
Ntp679
Rp680
(dp681
g21
I00
sg49
I00
sg23
I00
sg50
I00
sbsg664
g0
(g71
g2
Ntp682
Rp683
(dp684
g21
I00
sg49
I00
sg23
I00
sg50
I01
sbsg24
V/cvmfs/cms.cern.ch/slc7_amd64_gcc12/cms/cmssw-patch/CMSSW_14_0_5_patch1/src/EventFilter/L1TRawToDigi/python/emtfStage2Digis_cfi.py
p685
sg26
I3
sg27
g659
sbsVgctDigis
p686
g0
(g13
g2
Ntp687
Rp688
(dp689
g17
VGctRawToDigi
p690
sg19
(lp691
VunpackSharedRegions
p692
aVnumberOfGctSamplesToUnpack
p693
aVnumberOfRctSamplesToUnpack
p694
aVhltMode
p695
ag440
aVunpackerVersion
p696
aVgctFedId
p697
aVcheckHeaders
p698
ag466
ag346
asg21
I00
sg22
Nsg692
g0
(g71
g2
Ntp699
Rp700
(dp701
g21
I00
sg49
I01
sg23
I00
sg50
I00
sbsg23
I00
sg693
g0
(g67
g2
Ntp702
Rp703
(dp704
g21
I00
sg49
I01
sg23
I00
sg50
I1
sbsg694
g0
(g67
g2
Ntp705
Rp706
(dp707
g21
I00
sg49
I01
sg23
I00
sg50
I1
sbsg695
g0
(g71
g2
Ntp708
Rp709
(dp710
g21
I00
sg49
I01
sg23
I00
sg50
I00
sbsg440
g0
(g52
g2
Ntp711
Rp712
(dp713
g21
I00
sg49
I01
sg23
I01
sg56
g57
sg58
g59
sg60
g59
sbsg696
g0
(g67
g2
Ntp714
Rp715
(dp716
g21
I00
sg49
I01
sg23
I00
sg50
I0
sbsg697
g0
(g75
g2
Ntp717
Rp718
(dp719
g21
I00
sg49
I00
sg23
I00
sg50
I745
sbsg698
g0
(g71
g2
Ntp720
Rp721
(dp722
g21
I00
sg49
I00
sg23
I00
sg50
I00
sbsg466
g0
(g71
g2
Ntp723
Rp724
(dp725
g21
I00
sg49
I00
sg23
I00
sg50
I00
sbsg346
g0
(g424
g2
Ntp726
Rp727
(dp728
g21
I00
sg49
I00
sg23
I00
sg428
g429
sg430
Nsbsg24
g334
sg26
I21
sg27
g686
sbsVgmtStage2Digis
p729
g0
(g13
g2
Ntp730
Rp731
(dp732
g17
g32
sg19
(lp733
g35
ag34
ag36
asg21
I00
sg22
Nsg35
g0
(g52
g2
Ntp734
Rp735
(dp736
g21
I00
sg49
I01
sg23
I00
sg56
g57
sg58
g59
sg60
g59
sbsg23
I00
sg34
g0
(g45
g2
Ntp737
Rp738
(dp739
g21
I00
sg49
I01
sg23
I00
sg50
Vstage2::GMTSetup
p740
sbsg36
g0
(g61
g62
(lp741
I1402
atp742
Rp743
(dp744
g21
I00
sg49
I01
sg23
I00
sbsg24
V/cvmfs/cms.cern.ch/slc7_amd64_gcc12/cms/cmssw-patch/CMSSW_14_0_5_patch1/src/EventFilter/L1TRawToDigi/python/gmtStage2Digis_cfi.py
p745
sg26
I3
sg27
g729
sbsVgtDigis
p746
g0
(g13
g2
Ntp747
Rp748
(dp749
g17
VL1GlobalTriggerRawToDigi
p750
sg19
(lp751
VDaqGtInputTag
p752
aVDaqGtFedId
p753
aVActiveBoardsMask
p754
aVUnpackBxInEvent
p755
aVVerbosity
p756
ag346
asg21
I00
sg22
Nsg752
g0
(g52
g2
Ntp757
Rp758
(dp759
g21
I00
sg49
I01
sg23
I01
sg56
g57
sg58
g59
sg60
g59
sbsg23
I00
sg753
g0
(g75
g2
Ntp760
Rp761
(dp762
g21
I00
sg49
I00
sg23
I00
sg50
I813
sbsg754
g0
(g67
g2
Ntp763
Rp764
(dp765
g21
I00
sg49
I01
sg23
I00
sg50
I65535
sbsg755
g0
(g75
g2
Ntp766
Rp767
(dp768
g21
I00
sg49
I01
sg23
I00
sg50
I-1
sbsg756
g0
(g75
g2
Ntp769
Rp770
(dp771
g21
I00
sg49
I00
sg23
I00
sg50
I0
sbsg346
g0
(g424
g2
Ntp772
Rp773
(dp774
g21
I00
sg49
I00
sg23
I00
sg428
g429
sg430
Nsbsg24
g334
sg26
I23
sg27
g746
sbsVgtEvmDigis
p775
g0
(g13
g2
Ntp776
Rp777
(dp778
g17
VL1GlobalTriggerEvmRawToDigi
p779
sg19
(lp780
VEvmGtInputTag
p781
aVEvmGtFedId
p782
ag754
ag755
aVBstLengthBytes
p783
asg21
I00
sg22
Nsg781
g0
(g52
g2
Ntp784
Rp785
(dp786
g21
I00
sg49
I01
sg23
I01
sg56
g57
sg58
g59
sg60
g59
sbsg23
I00
sg782
g0
(g75
g2
Ntp787
Rp788
(dp789
g21
I00
sg49
I00
sg23
I00
sg50
I812
sbsg754
g0
(g67
g2
Ntp790
Rp791
(dp792
g21
I00
sg49
I01
sg23
I00
sg50
I65535
sbsg755
g0
(g75
g2
Ntp793
Rp794
(dp795
g21
I00
sg49
I01
sg23
I00
sg50
I-1
sbsg783
g0
(g75
g2
Ntp796
Rp797
(dp798
g21
I00
sg49
I01
sg23
I00
sg50
I-1
sbsg24
g334
sg26
I25
sg27
g775
sbsVgtStage2Digis
p799
g0
(g13
g2
Ntp800
Rp801
(dp802
g17
g32
sg19
(lp803
g35
ag34
ag36
asg21
I00
sg22
Nsg35
g0
(g52
g2
Ntp804
Rp805
(dp806
g21
I00
sg49
I01
sg23
I00
sg56
g57
sg58
g59
sg60
g59
sbsg23
I00
sg34
g0
(g45
g2
Ntp807
Rp808
(dp809
g21
I00
sg49
I01
sg23
I00
sg50
Vstage2::GTSetup
p810
sbsg36
g0
(g61
g62
(lp811
I1404
atp812
Rp813
(dp814
g21
I00
sg49
I01
sg23
I00
sbsg24
V/cvmfs/cms.cern.ch/slc7_amd64_gcc12/cms/cmssw-patch/CMSSW_14_0_5_patch1/src/EventFilter/L1TRawToDigi/python/gtStage2Digis_cfi.py
p815
sg26
I3
sg27
g799
sbsVgtTestcrateStage2Digis
p816
g0
(g13
g2
Ntp817
Rp818
(dp819
g17
g32
sg19
(lp820
g35
ag34
ag36
asg21
I00
sg22
Nsg35
g0
(g52
g2
Ntp821
Rp822
(dp823
g21
I00
sg49
I01
sg23
I00
sg56
g57
sg58
g59
sg60
g59
sbsg23
I00
sg34
g0
(g45
g2
Ntp824
Rp825
(dp826
g21
I00
sg49
I01
sg23
I00
sg50
Vstage2::GTSetup
p827
sbsg36
g0
(g61
g62
(lp828
I1405
atp829
Rp830
(dp831
g21
I00
sg49
I01
sg23
I00
sbsg24
V/cvmfs/cms.cern.ch/slc7_amd64_gcc12/cms/cmssw-patch/CMSSW_14_0_5_patch1/src/EventFilter/L1TRawToDigi/python/gtTestcrateStage2Digis_cfi.py
p832
sg26
I3
sg27
g816
sbsVhcalDigis
p833
g0
(g13
g2
Ntp834
Rp835
(dp836
g17
VHcalRawToDigi
p837
sg19
(lp838
VHcalFirstFED
p839
ag248
ag249
ag242
ag245
ag255
aVUnpackCalib
p840
aVUnpackUMNio
p841
ag250
ag251
aVsaveQIE10DataNSamples
p842
aVsaveQIE10DataTags
p843
aVsaveQIE11DataNSamples
p844
aVsaveQIE11DataTags
p845
ag247
aVUnpackerMode
p846
ag254
ag35
aVElectronicsMap
p847
ag346
asg21
I00
sg22
Nsg839
g0
(g75
g2
Ntp848
Rp849
(dp850
g21
I00
sg49
I00
sg23
I00
sg50
I700
sbsg23
I01
sg248
g0
(g75
g2
Ntp851
Rp852
(dp853
g21
I00
sg49
I01
sg23
I00
sg50
I0
sbsg249
g0
(g75
g2
Ntp854
Rp855
(dp856
g21
I00
sg49
I01
sg23
I00
sg50
I9
sbsg242
g0
(g71
g2
Ntp857
Rp858
(dp859
g21
I00
sg49
I01
sg23
I00
sg50
I01
sbsg245
g0
(g61
g62
(lp860
tp861
Rp862
(dp863
g21
I00
sg49
I00
sg23
I00
sbsg255
g0
(g71
g2
Ntp864
Rp865
(dp866
g21
I00
sg49
I00
sg23
I00
sg50
I01
sbsg840
g0
(g71
g2
Ntp867
Rp868
(dp869
g21
I00
sg49
I00
sg23
I00
sg50
I01
sbsg841
g0
(g71
g2
Ntp870
Rp871
(dp872
g21
I00
sg49
I00
sg23
I00
sg50
I01
sbsg250
g0
(g71
g2
Ntp873
Rp874
(dp875
g21
I00
sg49
I00
sg23
I00
sg50
I01
sbsg251
g0
(g71
g2
Ntp876
Rp877
(dp878
g21
I00
sg49
I00
sg23
I00
sg50
I01
sbsg842
g0
(g61
g62
(lp879
tp880
Rp881
(dp882
g21
I00
sg49
I00
sg23
I00
sbsg843
g0
(g429
g62
(lp883
tp884
Rp885
(dp886
g21
I00
sg49
I00
sg23
I00
sV_nPerLine
p887
I1
sbsg844
g0
(g61
g62
(lp888
tp889
Rp890
(dp891
g21
I00
sg49
I00
sg23
I00
sbsg845
g0
(g429
g62
(lp892
tp893
Rp894
(dp895
g21
I00
sg49
I00
sg23
I00
sg887
I1
sbsg247
g0
(g71
g2
Ntp896
Rp897
(dp898
g21
I00
sg49
I00
sg23
I00
sg50
I00
sbsg846
g0
(g75
g2
Ntp899
Rp900
(dp901
g21
I00
sg49
I00
sg23
I00
sg50
I0
sbsg254
g0
(g75
g2
Ntp902
Rp903
(dp904
g21
I00
sg49
I00
sg23
I00
sg50
I-1
sbsg35
g0
(g52
g2
Ntp905
Rp906
(dp907
g21
I00
sg49
I01
sg23
I01
sg56
g57
sg58
g59
sg60
g59
sbsg847
g0
(g45
g2
Ntp908
Rp909
(dp910
g21
I00
sg49
I01
sg23
I00
sg50
g59
sbsg346
g0
(g424
g2
Ntp911
Rp912
(dp913
g21
I00
sg49
I00
sg23
I00
sg428
g429
sg430
Nsbsg24
g302
sg26
I19
sg27
g833
sbsVhfnoseDigis
p914
g0
(g13
g2
Ntp915
Rp916
(dp917
g17
VHFNoseRawToDigiFake
p918
sg19
(lp919
g914
ag346
asg21
I00
sg22
Nsg914
g0
(g52
g2
Ntp920
Rp921
(dp922
g21
I00
sg49
I01
sg23
I00
sg56
VsimHFNoseUnsuppressedDigis
p923
sg58
VHFNose
p924
sg60
g59
sbsg23
I00
sg346
g0
(g424
g2
Ntp925
Rp926
(dp927
g21
I00
sg49
I00
sg23
I00
sg428
g429
sg430
Nsbsg24
V/cvmfs/cms.cern.ch/slc7_amd64_gcc12/cms/cmssw-patch/CMSSW_14_0_5_patch1/src/EventFilter/HGCalRawToDigi/python/HGCalRawToDigi_cfi.py
p928
sg26
I8
sg27
g914
sbsVhgcalDigis
p929
g0
(g13
g2
Ntp930
Rp931
(dp932
g17
VHGCalRawToDigiFake
p933
sg19
(lp934
g587
aVfhDigis
p935
aVbhDigis
p936
ag346
asg21
I00
sg22
Nsg587
g0
(g52
g2
Ntp937
Rp938
(dp939
g21
I00
sg49
I01
sg23
I00
sg56
VsimHGCalUnsuppressedDigis
p940
sg58
VEE
p941
sg60
g59
sbsg23
I00
sg935
g0
(g52
g2
Ntp942
Rp943
(dp944
g21
I00
sg49
I01
sg23
I00
sg56
g940
sg58
VHEfront
p945
sg60
g59
sbsg936
g0
(g52
g2
Ntp946
Rp947
(dp948
g21
I00
sg49
I01
sg23
I00
sg56
g940
sg58
VHEback
p949
sg60
g59
sbsg346
g0
(g424
g2
Ntp950
Rp951
(dp952
g21
I00
sg49
I00
sg23
I00
sg428
g429
sg430
Nsbsg24
g928
sg26
I4
sg27
g929
sbsVmuonCSCDigis
p953
g0
(g13
g2
Ntp954
Rp955
(dp956
g17
VCSCDCCUnpacker
p957
sg19
(lp958
VInputObjects
p959
aVUseExaminer
p960
aVExaminerMask
p961
aVUseSelectiveUnpacking
p962
aVErrorMask
p963
aVUnpackStatusDigis
p964
aVUseFormatStatus
p965
aVuseRPCs
p966
aVuseGEMs
p967
aVuseCSCShowers
p968
aVDebug
p969
aVPrintEventNumber
p970
aVrunDQM
p971
aVVisualFEDInspect
p972
aVVisualFEDShort
p973
aVFormatedEventDump
p974
aVSuppressZeroLCT
p975
aVDisableMappingCheck
p976
aVB904Setup
p977
aVB904vmecrate
p978
aVB904dmb
p979
ag346
asg21
I00
sg22
Nsg959
g0
(g52
g2
Ntp980
Rp981
(dp982
g21
I00
sg49
I01
sg23
I01
sg56
g57
sg58
g59
sg60
g59
sbsg23
I01
sg960
g0
(g71
g2
Ntp983
Rp984
(dp985
g21
I00
sg49
I01
sg23
I00
sg50
I01
sbsg961
g0
(g67
g2
Ntp986
Rp987
(dp988
g21
I00
sg49
I01
sg23
I01
sg50
I535558134
sbsg962
g0
(g71
g2
Ntp989
Rp990
(dp991
g21
I00
sg49
I01
sg23
I00
sg50
I01
sbsg963
g0
(g67
g2
Ntp992
Rp993
(dp994
g21
I00
sg49
I01
sg23
I00
sg50
I0
sbsg964
g0
(g71
g2
Ntp995
Rp996
(dp997
g21
I00
sg49
I01
sg23
I00
sg50
I00
sbsg965
g0
(g71
g2
Ntp998
Rp999
(dp1000
g21
I00
sg49
I01
sg23
I00
sg50
I01
sbsg966
g0
(g71
g2
Ntp1001
Rp1002
(dp1003
g21
I00
sg49
I01
sg23
I00
sg50
I00
sbsg967
g0
(g71
g2
Ntp1004
Rp1005
(dp1006
g21
I00
sg49
I01
sg23
I00
sg50
I01
sbsg968
g0
(g71
g2
Ntp1007
Rp1008
(dp1009
g21
I00
sg49
I01
sg23
I00
sg50
I01
sbsg969
g0
(g71
g2
Ntp1010
Rp1011
(dp1012
g21
I00
sg49
I00
sg23
I00
sg50
I00
sbsg970
g0
(g71
g2
Ntp1013
Rp1014
(dp1015
g21
I00
sg49
I00
sg23
I00
sg50
I00
sbsg971
g0
(g71
g2
Ntp1016
Rp1017
(dp1018
g21
I00
sg49
I00
sg23
I00
sg50
I00
sbsg972
g0
(g71
g2
Ntp1019
Rp1020
(dp1021
g21
I00
sg49
I00
sg23
I00
sg50
I00
sbsg973
g0
(g71
g2
Ntp1022
Rp1023
(dp1024
g21
I00
sg49
I00
sg23
I00
sg50
I00
sbsg974
g0
(g71
g2
Ntp1025
Rp1026
(dp1027
g21
I00
sg49
I00
sg23
I00
sg50
I00
sbsg975
g0
(g71
g2
Ntp1028
Rp1029
(dp1030
g21
I00
sg49
I00
sg23
I00
sg50
I01
sbsg976
g0
(g71
g2
Ntp1031
Rp1032
(dp1033
g21
I00
sg49
I00
sg23
I00
sg50
I00
sbsg977
g0
(g71
g2
Ntp1034
Rp1035
(dp1036
g21
I00
sg49
I00
sg23
I00
sg50
I00
sbsg978
g0
(g75
g2
Ntp1037
Rp1038
(dp1039
g21
I00
sg49
I00
sg23
I00
sg50
I1
sbsg979
g0
(g75
g2
Ntp1040
Rp1041
(dp1042
g21
I00
sg49
I00
sg23
I00
sg50
I3
sbsg346
g0
(g424
g2
Ntp1043
Rp1044
(dp1045
g21
I00
sg49
I00
sg23
I00
sg428
g429
sg430
Nsbsg24
g302
sg26
I22
sg27
g953
sbsVmuonDTDigis
p1046
g0
(g13
g2
Ntp1047
Rp1048
(dp1049
g17
VDTUnpackingModule
p1050
sg19
(lp1051
VdataType
p1052
ag440
aVuseStandardFEDid
p1053
aVminFEDid
p1054
aVmaxFEDid
p1055
aVfedbyType
p1056
aVreadOutParameters
p1057
aVdqmOnly
p1058
ag346
asg21
I00
sg22
Nsg1052
g0
(g45
g2
Ntp1059
Rp1060
(dp1061
g21
I00
sg49
I01
sg23
I00
sg50
VDDU
p1062
sbsg23
I01
sg440
g0
(g52
g2
Ntp1063
Rp1064
(dp1065
g21
I00
sg49
I01
sg23
I01
sg56
g57
sg58
g59
sg60
g59
sbsg1053
g0
(g71
g2
Ntp1066
Rp1067
(dp1068
g21
I00
sg49
I01
sg23
I00
sg50
I01
sbsg1054
g0
(g75
g2
Ntp1069
Rp1070
(dp1071
g21
I00
sg49
I00
sg23
I00
sg50
I770
sbsg1055
g0
(g75
g2
Ntp1072
Rp1073
(dp1074
g21
I00
sg49
I00
sg23
I00
sg50
I779
sbsg1056
g0
(g424
g2
Ntp1075
Rp1076
(dp1077
g21
I00
sg49
I01
sg23
I00
sg428
g71
sg430
Nsbsg1057
g0
(g359
g2
Ntp1078
Rp1079
(dp1080
g21
I00
sg49
I01
sg23
I00
sg19
(lp1081
g100
aVrosParameters
p1082
aVlocalDAQ
p1083
aVperformDataIntegrityMonitor
p1084
asg22
Nsg100
g0
(g71
g2
Ntp1085
Rp1086
(dp1087
g21
I00
sg49
I00
sg23
I00
sg50
I00
sbsg1082
g0
(g359
g2
Ntp1088
Rp1089
(dp1090
g21
I00
sg49
I01
sg23
I00
sg19
(lp1091
VwriteSC
p1092
aVreadingDDU
p1093
ag1084
aVreadDDUIDfromDDU
p1094
ag100
ag1083
asg22
Nsg1092
g0
(g71
g2
Ntp1095
Rp1096
(dp1097
g21
I00
sg49
I00
sg23
I00
sg50
I01
sbsg1093
g0
(g71
g2
Ntp1098
Rp1099
(dp1100
g21
I00
sg49
I00
sg23
I00
sg50
I01
sbsg1084
g0
(g71
g2
Ntp1101
Rp1102
(dp1103
g21
I00
sg49
I00
sg23
I00
sg50
I00
sbsg1094
g0
(g71
g2
Ntp1104
Rp1105
(dp1106
g21
I00
sg49
I00
sg23
I00
sg50
I01
sbsg100
g0
(g71
g2
Ntp1107
Rp1108
(dp1109
g21
I00
sg49
I00
sg23
I00
sg50
I00
sbsg1083
g0
(g71
g2
Ntp1110
Rp1111
(dp1112
g21
I00
sg49
I00
sg23
I00
sg50
I00
sbsbsg1083
g0
(g71
g2
Ntp1113
Rp1114
(dp1115
g21
I00
sg49
I00
sg23
I00
sg50
I00
sbsg1084
g0
(g71
g2
Ntp1116
Rp1117
(dp1118
g21
I00
sg49
I00
sg23
I00
sg50
I00
sbsbsg1058
g0
(g71
g2
Ntp1119
Rp1120
(dp1121
g21
I00
sg49
I01
sg23
I00
sg50
I00
sbsg346
g0
(g424
g2
Ntp1122
Rp1123
(dp1124
g21
I00
sg49
I00
sg23
I00
sg428
g429
sg430
Nsbsg24
g302
sg26
I25
sg27
g1046
sbsVmuonGEMDigis
p1125
g0
(g13
g2
Ntp1126
Rp1127
(dp1128
g17
VGEMRawToDigiModule
p1129
sg19
(lp1130
g35
aVuseDBEMap
p1131
aVkeepDAQStatus
p1132
aVreadMultiBX
p1133
aVge21Off
p1134
aVfedIdStart
p1135
aVfedIdEnd
p1136
ag346
asg21
I00
sg22
Nsg35
g0
(g52
g2
Ntp1137
Rp1138
(dp1139
g21
I00
sg49
I01
sg23
I00
sg56
g57
sg58
g59
sg60
g59
sbsg23
I00
sg1131
g0
(g71
g2
Ntp1140
Rp1141
(dp1142
g21
I00
sg49
I01
sg23
I00
sg50
I00
sbsg1132
g0
(g71
g2
Ntp1143
Rp1144
(dp1145
g21
I00
sg49
I01
sg23
I00
sg50
I01
sbsg1133
g0
(g71
g2
Ntp1146
Rp1147
(dp1148
g21
I00
sg49
I01
sg23
I00
sg50
I00
sbsg1134
g0
(g71
g2
Ntp1149
Rp1150
(dp1151
g21
I00
sg49
I01
sg23
I00
sg50
I00
sbsg1135
g0
(g67
g2
Ntp1152
Rp1153
(dp1154
g21
I00
sg49
I01
sg23
I00
sg50
I1467
sbsg1136
g0
(g67
g2
Ntp1155
Rp1156
(dp1157
g21
I00
sg49
I01
sg23
I00
sg50
I1478
sbsg346
g0
(g424
g2
Ntp1158
Rp1159
(dp1160
g21
I00
sg49
I00
sg23
I00
sg428
g429
sg430
Nsbsg24
g302
sg26
I31
sg27
g1125
sbsVmuonRPCDigis
p1161
g0
(g13
g2
Ntp1162
Rp1163
(dp1164
g17
VRPCUnpackingModule
p1165
sg19
(lp1166
g35
aVdoSynchro
p1167
ag346
asg21
I00
sg22
Nsg35
g0
(g52
g2
Ntp1168
Rp1169
(dp1170
g21
I00
sg49
I01
sg23
I01
sg56
g57
sg58
g59
sg60
g59
sbsg23
I01
sg1167
g0
(g71
g2
Ntp1171
Rp1172
(dp1173
g21
I00
sg49
I01
sg23
I00
sg50
I01
sbsg346
g0
(g424
g2
Ntp1174
Rp1175
(dp1176
g21
I00
sg49
I00
sg23
I00
sg428
g429
sg430
Nsbsg24
g302
sg26
I28
sg27
g1161
sbsVomtfStage2Digis
p1177
g0
(g13
g2
Ntp1178
Rp1179
(dp1180
g17
VOmtfUnpacker
p1181
sg19
(lp1182
g440
aVskipRpc
p1183
asg21
I00
sg22
Nsg440
g0
(g52
g2
Ntp1184
Rp1185
(dp1186
g21
I00
sg49
I01
sg23
I00
sg56
g57
sg58
g59
sg60
g59
sbsg23
I00
sg1183
g0
(g71
g2
Ntp1187
Rp1188
(dp1189
g21
I00
sg49
I01
sg23
I00
sg50
I00
sbsg24
V/cvmfs/cms.cern.ch/slc7_amd64_gcc12/cms/cmssw-patch/CMSSW_14_0_5_patch1/src/EventFilter/L1TRawToDigi/python/omtfStage2Digis_cfi.py
p1190
sg26
I3
sg27
g1177
sbsVonlineMetaDataDigis
p1191
g0
(g13
g2
Ntp1192
Rp1193
(dp1194
g17
VOnlineMetaDataRawToDigi
p1195
sg19
(lp1196
VonlineMetaDataInputLabel
p1197
ag346
asg21
I00
sg22
Nsg1197
g0
(g52
g2
Ntp1198
Rp1199
(dp1200
g21
I00
sg49
I01
sg23
I00
sg56
g57
sg58
g59
sg60
g59
sbsg23
I00
sg346
g0
(g424
g2
Ntp1201
Rp1202
(dp1203
g21
I00
sg49
I00
sg23
I00
sg428
g429
sg430
Nsbsg24
g302
sg26
I42
sg27
g1191
sbsVonlineMetaDataRawToDigi
p1204
g0
(g13
g2
Ntp1205
Rp1206
(dp1207
g17
g1195
sg19
(lp1208
g1197
ag346
asg21
I00
sg22
Nsg1197
g0
(g52
g2
Ntp1209
Rp1210
(dp1211
g21
I00
sg49
I01
sg23
I00
sg56
g57
sg58
g59
sg60
g59
sbsg23
I00
sg346
g0
(g424
g2
Ntp1212
Rp1213
(dp1214
g21
I00
sg49
I00
sg23
I00
sg428
g429
sg430
Nsbsg24
V/cvmfs/cms.cern.ch/slc7_amd64_gcc12/cms/cmssw-patch/CMSSW_14_0_5_patch1/cfipython/slc7_amd64_gcc12/EventFilter/OnlineMetaDataRawToDigi/onlineMetaDataRawToDigi_cfi.py
p1215
sg26
I3
sg27
g1204
sbsVrpcCPPFRawToDigi
p1216
g0
(g13
g2
Ntp1217
Rp1218
(dp1219
g17
VRPCAMCRawToDigi
p1220
sg19
(lp1221
VinputTag
p1222
aVcalculateCRC
p1223
aVfillCounters
p1224
aVRPCAMCUnpacker
p1225
aVRPCAMCUnpackerSettings
p1226
ag346
asg21
I00
sg22
Nsg1222
g0
(g52
g2
Ntp1227
Rp1228
(dp1229
g21
I00
sg49
I01
sg23
I00
sg56
g57
sg58
g59
sg60
g59
sbsg23
I00
sg1223
g0
(g71
g2
Ntp1230
Rp1231
(dp1232
g21
I00
sg49
I01
sg23
I00
sg50
I01
sbsg1224
g0
(g71
g2
Ntp1233
Rp1234
(dp1235
g21
I00
sg49
I01
sg23
I00
sg50
I01
sbsg1225
g0
(g45
g2
Ntp1236
Rp1237
(dp1238
g21
I00
sg49
I01
sg23
I01
sg50
VRPCCPPFUnpacker
p1239
sbsg1226
g0
(g359
g2
Ntp1240
Rp1241
(dp1242
g21
I00
sg49
I01
sg23
I01
sg19
(lp1243
VfillAMCCounters
p1244
aVbxMin
p1245
aVbxMax
p1246
aVcppfDaqDelay
p1247
asg22
Nsg1244
g0
(g71
g2
Ntp1248
Rp1249
(dp1250
g21
I00
sg49
I01
sg23
I00
sg50
I01
sbsg1245
g0
(g75
g2
Ntp1251
Rp1252
(dp1253
g21
I00
sg49
I01
sg23
I00
sg50
I-2
sbsg1246
g0
(g75
g2
Ntp1254
Rp1255
(dp1256
g21
I00
sg49
I01
sg23
I00
sg50
I2
sbsg1247
g0
(g75
g2
Ntp1257
Rp1258
(dp1259
g21
I00
sg49
I01
sg23
I00
sg50
I0
sbsbsg346
g0
(g424
g2
Ntp1260
Rp1261
(dp1262
g21
I00
sg49
I00
sg23
I00
sg428
g429
sg430
Nsbsg24
V/cvmfs/cms.cern.ch/slc7_amd64_gcc12/cms/cmssw-patch/CMSSW_14_0_5_patch1/src/EventFilter/RPCRawToDigi/python/RPCCPPFRawToDigi_cfi.py
p1263
sg26
I4
sg27
g1216
sbsVrpcTwinMuxRawToDigi
p1264
g0
(g13
g2
Ntp1265
Rp1266
(dp1267
g17
VRPCTwinMuxRawToDigi
p1268
sg19
(lp1269
g1222
ag1223
ag1224
ag1245
ag1246
ag346
asg21
I00
sg22
Nsg1222
g0
(g52
g2
Ntp1270
Rp1271
(dp1272
g21
I00
sg49
I01
sg23
I00
sg56
g57
sg58
g59
sg60
g59
sbsg23
I00
sg1223
g0
(g71
g2
Ntp1273
Rp1274
(dp1275
g21
I00
sg49
I01
sg23
I00
sg50
I01
sbsg1224
g0
(g71
g2
Ntp1276
Rp1277
(dp1278
g21
I00
sg49
I01
sg23
I00
sg50
I01
sbsg1245
g0
(g75
g2
Ntp1279
Rp1280
(dp1281
g21
I00
sg49
I01
sg23
I00
sg50
I-2
sbsg1246
g0
(g75
g2
Ntp1282
Rp1283
(dp1284
g21
I00
sg49
I01
sg23
I00
sg50
I2
sbsg346
g0
(g424
g2
Ntp1285
Rp1286
(dp1287
g21
I00
sg49
I00
sg23
I00
sg428
g429
sg430
Nsbsg24
V/cvmfs/cms.cern.ch/slc7_amd64_gcc12/cms/cmssw-patch/CMSSW_14_0_5_patch1/cfipython/slc7_amd64_gcc12/EventFilter/RPCRawToDigi/rpcTwinMuxRawToDigi_cfi.py
p1288
sg26
I3
sg27
g1264
sbsVrpcunpacker
p1289
g0
(g13
g2
Ntp1290
Rp1291
(dp1292
g17
g1165
sg19
(lp1293
g35
ag1167
ag346
asg21
I00
sg22
Nsg35
g0
(g52
g2
Ntp1294
Rp1295
(dp1296
g21
I00
sg49
I01
sg23
I00
sg56
g57
sg58
g59
sg60
g59
sbsg23
I01
sg1167
g0
(g71
g2
Ntp1297
Rp1298
(dp1299
g21
I00
sg49
I01
sg23
I00
sg50
I01
sbsg346
g0
(g424
g2
Ntp1300
Rp1301
(dp1302
g21
I00
sg49
I00
sg23
I00
sg428
g429
sg430
Nsbsg24
V/cvmfs/cms.cern.ch/slc7_amd64_gcc12/cms/cmssw-patch/CMSSW_14_0_5_patch1/src/EventFilter/RPCRawToDigi/python/rpcUnpacker_cfi.py
p1303
sg26
I4
sg27
g1289
sbsVscalersRawToDigi
p1304
g0
(g13
g2
Ntp1305
Rp1306
(dp1307
g17
VScalersRawToDigi
p1308
sg19
(lp1309
VscalersInputTag
p1310
ag346
asg21
I00
sg22
Nsg1310
g0
(g52
g2
Ntp1311
Rp1312
(dp1313
g21
I00
sg49
I01
sg23
I01
sg56
g57
sg58
g59
sg60
g59
sbsg23
I01
sg346
g0
(g424
g2
Ntp1314
Rp1315
(dp1316
g21
I00
sg49
I00
sg23
I00
sg428
g429
sg430
Nsbsg24
V/cvmfs/cms.cern.ch/slc7_amd64_gcc12/cms/cmssw-patch/CMSSW_14_0_5_patch1/cfipython/slc7_amd64_gcc12/EventFilter/ScalersRawToDigi/scalersRawToDigi_cfi.py
p1317
sg26
I3
sg27
g1304
sbsVsiPixelDigiErrors
p1318
g0
(g13
g2
Ntp1319
Rp1320
(dp1321
g17
VSiPixelDigiErrorsFromSoA
p1322
sg19
(lp1323
VdigiErrorSoASrc
p1324
aVCablingMapLabel
p1325
aVUsePhase1
p1326
aVErrorList
p1327
aVUserErrorList
p1328
ag346
asg21
I00
sg22
Nsg1324
g0
(g52
g2
Ntp1329
Rp1330
(dp1331
g21
I00
sg49
I01
sg23
I00
sg56
VsiPixelDigiErrorsSoA
p1332
sg58
g59
sg60
g59
sbsg23
I00
sg1325
g0
(g45
g2
Ntp1333
Rp1334
(dp1335
g21
I00
sg49
I01
sg23
I00
sg50
g59
sbsg1326
g0
(g71
g2
Ntp1336
Rp1337
(dp1338
g21
I00
sg49
I01
sg23
I00
sg50
I00
sbsg1327
g0
(g61
g62
(lp1339
I29
atp1340
Rp1341
(dp1342
g21
I00
sg49
I01
sg23
I00
sbsg1328
g0
(g61
g62
(lp1343
I40
atp1344
Rp1345
(dp1346
g21
I00
sg49
I01
sg23
I00
sbsg346
g0
(g424
g2
Ntp1347
Rp1348
(dp1349
g21
I00
sg49
I00
sg23
I00
sg428
g429
sg430
Nsbsg24
V/cvmfs/cms.cern.ch/slc7_amd64_gcc12/cms/cmssw-patch/CMSSW_14_0_5_patch1/src/EventFilter/SiPixelRawToDigi/python/siPixelDigis_cff.py
p1350
sg26
I24
sg27
g1318
sbsg1332
g0
(g13
g2
Ntp1351
Rp1352
(dp1353
g17
VSiPixelDigiErrorsSoAFromCUDA
p1354
sg19
(lp1355
Vsrc
p1356
ag346
asg21
I00
sg22
Nsg1356
g0
(g52
g2
Ntp1357
Rp1358
(dp1359
g21
I00
sg49
I01
sg23
I01
sg56
VsiPixelClustersPreSplittingCUDA
p1360
sg58
g59
sg60
g59
sbsg23
I00
sg346
g0
(g424
g2
Ntp1361
Rp1362
(dp1363
g21
I00
sg49
I00
sg23
I00
sg428
g429
sg430
Nsbsg24
g1350
sg26
I18
sg27
g1332
sbsVsiPixelDigisSoA
p1364
g0
(g13
g2
Ntp1365
Rp1366
(dp1367
g17
VSiPixelDigisSoAFromCUDA
p1368
sg19
(lp1369
g1356
ag346
asg21
I00
sg22
Nsg1356
g0
(g52
g2
Ntp1370
Rp1371
(dp1372
g21
I00
sg49
I01
sg23
I01
sg56
g1360
sg58
g59
sg60
g59
sbsg23
I00
sg346
g0
(g424
g2
Ntp1373
Rp1374
(dp1375
g21
I00
sg49
I00
sg23
I00
sg428
g429
sg430
Nsbsg24
g1350
sg26
I12
sg27
g1364
sbsVsiStripDigis
p1376
g0
(g13
g2
Ntp1377
Rp1378
(dp1379
g17
VSiStripRawToDigiModule
p1380
sg19
(lp1381
VProductLabel
p1382
aVLegacyUnpacker
p1383
aVAppendedBytes
p1384
aVUseDaqRegister
p1385
aVUseFedKey
p1386
aVUnpackBadChannels
p1387
aVMarkModulesOnMissingFeds
p1388
aVTriggerFedId
p1389
aVUnpackCommonModeValues
p1390
aVDoAllCorruptBufferChecks
p1391
aVDoAPVEmulatorCheck
p1392
aVErrorThreshold
p1393
asg21
I00
sg22
Nsg1382
g0
(g52
g2
Ntp1394
Rp1395
(dp1396
g21
I00
sg49
I01
sg23
I00
sg56
g57
sg58
g59
sg60
g59
sbsg23
I00
sg1383
g0
(g71
g2
Ntp1397
Rp1398
(dp1399
g21
I00
sg49
I01
sg23
I00
sg50
I00
sbsg1384
g0
(g75
g2
Ntp1400
Rp1401
(dp1402
g21
I00
sg49
I01
sg23
I00
sg50
I0
sbsg1385
g0
(g71
g2
Ntp1403
Rp1404
(dp1405
g21
I00
sg49
I01
sg23
I00
sg50
I00
sbsg1386
g0
(g71
g2
Ntp1406
Rp1407
(dp1408
g21
I00
sg49
I01
sg23
I00
sg50
I00
sbsg1387
g0
(g71
g2
Ntp1409
Rp1410
(dp1411
g21
I00
sg49
I01
sg23
I00
sg50
I00
sbsg1388
g0
(g71
g2
Ntp1412
Rp1413
(dp1414
g21
I00
sg49
I01
sg23
I00
sg50
I01
sbsg1389
g0
(g75
g2
Ntp1415
Rp1416
(dp1417
g21
I00
sg49
I01
sg23
I00
sg50
I0
sbsg1390
g0
(g71
g2
Ntp1418
Rp1419
(dp1420
g21
I00
sg49
I01
sg23
I00
sg50
I00
sbsg1391
g0
(g71
g2
Ntp1421
Rp1422
(dp1423
g21
I00
sg49
I01
sg23
I00
sg50
I00
sbsg1392
g0
(g71
g2
Ntp1424
Rp1425
(dp1426
g21
I00
sg49
I01
sg23
I00
sg50
I00
sbsg1393
g0
(g67
g2
Ntp1427
Rp1428
(dp1429
g21
I00
sg49
I01
sg23
I00
sg50
I7174
sbsg24
V/cvmfs/cms.cern.ch/slc7_amd64_gcc12/cms/cmssw-patch/CMSSW_14_0_5_patch1/src/EventFilter/SiStripRawToDigi/python/SiStripDigis_cfi.py
p1430
sg26
I3
sg27
g1376
sbsVsimEcalTriggerPrimitiveDigis
p1431
g0
(g13
g2
Ntp1432
Rp1433
(dp1434
g17
VEcalTrigPrimProducer
p1435
sg19
(lp1436
VBarrelOnly
p1437
aVInstanceEB
p1438
aVInstanceEE
p1439
aVbinOfMaximum
p1440
aVFamos
p1441
aVTcpOutput
p1442
ag969
aVLabel
p1443
asg21
I00
sg22
Nsg1437
g0
(g71
g2
Ntp1444
Rp1445
(dp1446
g21
I00
sg49
I01
sg23
I00
sg50
I00
sbsg23
I00
sg1438
g0
(g45
g2
Ntp1447
Rp1448
(dp1449
g21
I00
sg49
I01
sg23
I00
sg50
g59
sbsg1439
g0
(g45
g2
Ntp1450
Rp1451
(dp1452
g21
I00
sg49
I01
sg23
I00
sg50
g59
sbsg1440
g0
(g75
g2
Ntp1453
Rp1454
(dp1455
g21
I00
sg49
I01
sg23
I00
sg50
I6
sbsg1441
g0
(g71
g2
Ntp1456
Rp1457
(dp1458
g21
I00
sg49
I01
sg23
I00
sg50
I00
sbsg1442
g0
(g71
g2
Ntp1459
Rp1460
(dp1461
g21
I00
sg49
I01
sg23
I00
sg50
I00
sbsg969
g0
(g71
g2
Ntp1462
Rp1463
(dp1464
g21
I00
sg49
I01
sg23
I00
sg50
I00
sbsg1443
g0
(g45
g2
Ntp1465
Rp1466
(dp1467
g21
I00
sg49
I01
sg23
I00
sg50
VsimEcalUnsuppressedDigis
p1468
sbsg24
V/cvmfs/cms.cern.ch/slc7_amd64_gcc12/cms/cmssw-patch/CMSSW_14_0_5_patch1/src/SimCalorimetry/EcalTrigPrimProducers/python/ecalTriggerPrimitiveDigis_cfi.py
p1469
sg26
I6
sg27
g1431
sbsVtcdsDigis
p1470
g0
(g13
g2
Ntp1471
Rp1472
(dp1473
g17
VTcdsRawToDigi
p1474
sg19
(lp1475
g35
ag346
asg21
I00
sg22
Nsg35
g0
(g52
g2
Ntp1476
Rp1477
(dp1478
g21
I00
sg49
I01
sg23
I00
sg56
g57
sg58
g59
sg60
g59
sbsg23
I00
sg346
g0
(g424
g2
Ntp1479
Rp1480
(dp1481
g21
I00
sg49
I00
sg23
I00
sg428
g429
sg430
Nsbsg24
g302
sg26
I39
sg27
g1470
sbsVtcdsRawToDigi
p1482
g0
(g13
g2
Ntp1483
Rp1484
(dp1485
g17
g1474
sg19
(lp1486
g35
ag346
asg21
I00
sg22
Nsg35
g0
(g52
g2
Ntp1487
Rp1488
(dp1489
g21
I00
sg49
I01
sg23
I00
sg56
g57
sg58
g59
sg60
g59
sbsg23
I00
sg346
g0
(g424
g2
Ntp1490
Rp1491
(dp1492
g21
I00
sg49
I00
sg23
I00
sg428
g429
sg430
Nsbsg24
V/cvmfs/cms.cern.ch/slc7_amd64_gcc12/cms/cmssw-patch/CMSSW_14_0_5_patch1/cfipython/slc7_amd64_gcc12/EventFilter/OnlineMetaDataRawToDigi/tcdsRawToDigi_cfi.py
p1493
sg26
I3
sg27
g1482
sbsVtotemRPRawToDigi
p1494
g0
(g13
g2
Ntp1495
Rp1496
(dp1497
g17
g339
sg19
(lp1498
g341
ag342
ag343
ag344
ag345
ag346
asg21
I00
sg22
Nsg341
g0
(g52
g2
Ntp1499
Rp1500
(dp1501
g21
I00
sg49
I01
sg23
I00
sg56
g57
sg58
g59
sg60
g59
sbsg23
I01
sg342
g0
(g45
g2
Ntp1502
Rp1503
(dp1504
g21
I00
sg49
I01
sg23
I01
sg50
VTrackingStrip
p1505
sbsg343
g0
(g354
g62
(lp1506
I578
aI580
aI584
aI585
atp1507
Rp1508
(dp1509
g21
I00
sg49
I01
sg23
I01
sbsg344
g0
(g359
g2
Ntp1510
Rp1511
(dp1512
g21
I00
sg49
I01
sg23
I00
sg19
(lp1513
g364
asg22
Nsg364
g0
(g67
g2
Ntp1514
Rp1515
(dp1516
g21
I00
sg49
I00
sg23
I00
sg50
I0
sbsbsg345
g0
(g359
g2
Ntp1517
Rp1518
(dp1519
g21
I00
sg49
I01
sg23
I00
sg19
(lp1520
g364
ag372
ag373
ag374
ag375
ag376
ag377
ag378
ag379
ag380
ag381
ag382
ag383
asg22
Nsg364
g0
(g67
g2
Ntp1521
Rp1522
(dp1523
g21
I00
sg49
I00
sg23
I00
sg50
I0
sbsg372
g0
(g67
g2
Ntp1524
Rp1525
(dp1526
g21
I00
sg49
I01
sg23
I00
sg50
I2
sbsg373
g0
(g67
g2
Ntp1527
Rp1528
(dp1529
g21
I00
sg49
I01
sg23
I00
sg50
I2
sbsg374
g0
(g67
g2
Ntp1530
Rp1531
(dp1532
g21
I00
sg49
I01
sg23
I00
sg50
I2
sbsg375
g0
(g67
g2
Ntp1533
Rp1534
(dp1535
g21
I00
sg49
I01
sg23
I00
sg50
I2
sbsg376
g0
(g67
g2
Ntp1536
Rp1537
(dp1538
g21
I00
sg49
I01
sg23
I00
sg50
I2
sbsg377
g0
(g67
g2
Ntp1539
Rp1540
(dp1541
g21
I00
sg49
I00
sg23
I00
sg50
I10
sbsg378
g0
(g67
g2
Ntp1542
Rp1543
(dp1544
g21
I00
sg49
I00
sg23
I00
sg50
I10
sbsg379
g0
(g408
g2
Ntp1545
Rp1546
(dp1547
g21
I00
sg49
I00
sg23
I00
sg50
F0.6
sbsg380
g0
(g408
g2
Ntp1548
Rp1549
(dp1550
g21
I00
sg49
I00
sg23
I00
sg50
F0.6
sbsg381
g0
(g71
g2
Ntp1551
Rp1552
(dp1553
g21
I00
sg49
I01
sg23
I00
sg50
I00
sbsg382
g0
(g71
g2
Ntp1554
Rp1555
(dp1556
g21
I00
sg49
I00
sg23
I00
sg50
I00
sbsg383
g0
(g71
g2
Ntp1557
Rp1558
(dp1559
g21
I00
sg49
I00
sg23
I00
sg50
I00
sbsbsg346
g0
(g424
g2
Ntp1560
Rp1561
(dp1562
g21
I00
sg49
I00
sg23
I00
sg428
g429
sg430
Nsbsg24
V/cvmfs/cms.cern.ch/slc7_amd64_gcc12/cms/cmssw-patch/CMSSW_14_0_5_patch1/src/EventFilter/CTPPSRawToDigi/python/totemRPRawToDigi_cfi.py
p1563
sg26
I9
sg27
g1494
sbsVtotemT2Digis
p1564
g0
(g13
g2
Ntp1565
Rp1566
(dp1567
g17
g339
sg19
(lp1568
g341
ag342
ag343
ag344
ag345
ag346
asg21
I00
sg22
Nsg341
g0
(g52
g2
Ntp1569
Rp1570
(dp1571
g21
I00
sg49
I01
sg23
I01
sg56
g57
sg58
g59
sg60
g59
sbsg23
I01
sg342
g0
(g45
g2
Ntp1572
Rp1573
(dp1574
g21
I00
sg49
I01
sg23
I01
sg50
VTotemT2
p1575
sbsg343
g0
(g354
g62
(lp1576
tp1577
Rp1578
(dp1579
g21
I00
sg49
I01
sg23
I00
sbsg344
g0
(g359
g2
Ntp1580
Rp1581
(dp1582
g21
I00
sg49
I01
sg23
I00
sg19
(lp1583
g364
asg22
Nsg364
g0
(g67
g2
Ntp1584
Rp1585
(dp1586
g21
I00
sg49
I00
sg23
I00
sg50
I0
sbsbsg345
g0
(g359
g2
Ntp1587
Rp1588
(dp1589
g21
I00
sg49
I01
sg23
I00
sg19
(lp1590
g364
ag372
ag373
ag374
ag375
ag376
ag377
ag378
ag379
ag380
ag381
ag382
ag383
asg22
Nsg364
g0
(g67
g2
Ntp1591
Rp1592
(dp1593
g21
I00
sg49
I00
sg23
I00
sg50
I0
sbsg372
g0
(g67
g2
Ntp1594
Rp1595
(dp1596
g21
I00
sg49
I01
sg23
I00
sg50
I2
sbsg373
g0
(g67
g2
Ntp1597
Rp1598
(dp1599
g21
I00
sg49
I01
sg23
I01
sg50
I0
sbsg374
g0
(g67
g2
Ntp1600
Rp1601
(dp1602
g21
I00
sg49
I01
sg23
I01
sg50
I0
sbsg375
g0
(g67
g2
Ntp1603
Rp1604
(dp1605
g21
I00
sg49
I01
sg23
I01
sg50
I0
sbsg376
g0
(g67
g2
Ntp1606
Rp1607
(dp1608
g21
I00
sg49
I01
sg23
I01
sg50
I0
sbsg377
g0
(g67
g2
Ntp1609
Rp1610
(dp1611
g21
I00
sg49
I00
sg23
I00
sg50
I10
sbsg378
g0
(g67
g2
Ntp1612
Rp1613
(dp1614
g21
I00
sg49
I00
sg23
I00
sg50
I10
sbsg379
g0
(g408
g2
Ntp1615
Rp1616
(dp1617
g21
I00
sg49
I00
sg23
I00
sg50
F0.6
sbsg380
g0
(g408
g2
Ntp1618
Rp1619
(dp1620
g21
I00
sg49
I00
sg23
I00
sg50
F0.6
sbsg381
g0
(g71
g2
Ntp1621
Rp1622
(dp1623
g21
I00
sg49
I01
sg23
I00
sg50
I00
sbsg382
g0
(g71
g2
Ntp1624
Rp1625
(dp1626
g21
I00
sg49
I00
sg23
I00
sg50
I00
sbsg383
g0
(g71
g2
Ntp1627
Rp1628
(dp1629
g21
I00
sg49
I00
sg23
I00
sg50
I00
sbsbsg346
g0
(g424
g2
Ntp1630
Rp1631
(dp1632
g21
I00
sg49
I00
sg23
I00
sg428
g429
sg430
Nsbsg24
V/cvmfs/cms.cern.ch/slc7_amd64_gcc12/cms/cmssw-patch/CMSSW_14_0_5_patch1/src/EventFilter/CTPPSRawToDigi/python/totemT2Digis_cfi.py
p1633
sg26
I5
sg27
g1564
sbsVtotemTimingRawToDigi
p1634
g0
(g13
g2
Ntp1635
Rp1636
(dp1637
g17
g339
sg19
(lp1638
g341
ag342
ag343
ag344
ag345
ag346
asg21
I00
sg22
Nsg341
g0
(g52
g2
Ntp1639
Rp1640
(dp1641
g21
I00
sg49
I01
sg23
I01
sg56
g57
sg58
g59
sg60
g59
sbsg23
I01
sg342
g0
(g45
g2
Ntp1642
Rp1643
(dp1644
g21
I00
sg49
I01
sg23
I01
sg50
VTotemTiming
p1645
sbsg343
g0
(g354
g62
(lp1646
I586
aI587
atp1647
Rp1648
(dp1649
g21
I00
sg49
I01
sg23
I01
sbsg344
g0
(g359
g2
Ntp1650
Rp1651
(dp1652
g21
I00
sg49
I01
sg23
I00
sg19
(lp1653
g364
asg22
Nsg364
g0
(g67
g2
Ntp1654
Rp1655
(dp1656
g21
I00
sg49
I00
sg23
I00
sg50
I0
sbsbsg345
g0
(g359
g2
Ntp1657
Rp1658
(dp1659
g21
I00
sg49
I01
sg23
I01
sg19
(lp1660
g364
ag372
ag373
ag374
ag375
ag376
ag377
ag378
ag379
ag380
ag381
ag382
ag383
asg22
Nsg364
g0
(g67
g2
Ntp1661
Rp1662
(dp1663
g21
I00
sg49
I00
sg23
I00
sg50
I0
sbsg372
g0
(g67
g2
Ntp1664
Rp1665
(dp1666
g21
I00
sg49
I01
sg23
I01
sg50
I0
sbsg373
g0
(g67
g2
Ntp1667
Rp1668
(dp1669
g21
I00
sg49
I01
sg23
I01
sg50
I0
sbsg374
g0
(g67
g2
Ntp1670
Rp1671
(dp1672
g21
I00
sg49
I01
sg23
I01
sg50
I0
sbsg375
g0
(g67
g2
Ntp1673
Rp1674
(dp1675
g21
I00
sg49
I01
sg23
I01
sg50
I0
sbsg376
g0
(g67
g2
Ntp1676
Rp1677
(dp1678
g21
I00
sg49
I01
sg23
I01
sg50
I0
sbsg377
g0
(g67
g2
Ntp1679
Rp1680
(dp1681
g21
I00
sg49
I00
sg23
I00
sg50
I10
sbsg378
g0
(g67
g2
Ntp1682
Rp1683
(dp1684
g21
I00
sg49
I00
sg23
I00
sg50
I10
sbsg379
g0
(g408
g2
Ntp1685
Rp1686
(dp1687
g21
I00
sg49
I00
sg23
I00
sg50
F0.6
sbsg380
g0
(g408
g2
Ntp1688
Rp1689
(dp1690
g21
I00
sg49
I00
sg23
I00
sg50
F0.6
sbsg381
g0
(g71
g2
Ntp1691
Rp1692
(dp1693
g21
I00
sg49
I01
sg23
I00
sg50
I00
sbsg382
g0
(g71
g2
Ntp1694
Rp1695
(dp1696
g21
I00
sg49
I00
sg23
I00
sg50
I00
sbsg383
g0
(g71
g2
Ntp1697
Rp1698
(dp1699
g21
I00
sg49
I00
sg23
I00
sg50
I00
sbsbsg346
g0
(g424
g2
Ntp1700
Rp1701
(dp1702
g21
I00
sg49
I00
sg23
I00
sg428
g429
sg430
Nsbsg24
V/cvmfs/cms.cern.ch/slc7_amd64_gcc12/cms/cmssw-patch/CMSSW_14_0_5_patch1/src/EventFilter/CTPPSRawToDigi/python/totemTimingRawToDigi_cfi.py
p1703
sg26
I9
sg27
g1634
sbsVtwinMuxStage2Digis
p1704
g0
(g13
g2
Ntp1705
Rp1706
(dp1707
g17
VL1TTwinMuxRawToDigi
p1708
sg19
(lp1709
VDTTM7_FED_Source
p1710
aVfeds
p1711
aVwheels
p1712
aVamcsecmap
p1713
ag100
asg21
I00
sg22
Nsg1710
g0
(g52
g2
Ntp1714
Rp1715
(dp1716
g21
I00
sg49
I01
sg23
I00
sg56
g57
sg58
g59
sg60
g59
sbsg23
I00
sg1711
g0
(g61
g62
(lp1717
I1395
aI1391
aI1390
aI1393
aI1394
atp1718
Rp1719
(dp1720
g21
I00
sg49
I00
sg23
I00
sbsg1712
g0
(g61
g62
(lp1721
I-2
aI-1
aI0
aI1
aI2
atp1722
Rp1723
(dp1724
g21
I00
sg49
I00
sg23
I00
sbsg1713
g0
(cFWCore.ParameterSet.Types
vint64
p1725
g62
(lp1726
L20015998343868L
aL20015998343868L
aL20015998343868L
aL20015998343868L
aL20015998343868L
atp1727
Rp1728
(dp1729
g21
I00
sg49
I00
sg23
I00
sbsg100
g0
(g71
g2
Ntp1730
Rp1731
(dp1732
g21
I00
sg49
I00
sg23
I00
sg50
I00
sbsg24
V/cvmfs/cms.cern.ch/slc7_amd64_gcc12/cms/cmssw-patch/CMSSW_14_0_5_patch1/src/EventFilter/L1TXRawToDigi/python/twinMuxStage2Digis_cfi.py
p1733
sg26
I3
sg27
g1704
sbssV_Process__switchproducers
p1734
(dp1735
VecalDigis
p1736
g0
(cHeterogeneousCore.CUDACore.SwitchProducerCUDA
SwitchProducerCUDA
p1737
g2
Ntp1738
Rp1739
(dp1740
g17
Nsg19
(lp1741
Vcpu
p1742
asg21
I00
sg22
Nsg23
I00
sg24
V/cvmfs/cms.cern.ch/slc7_amd64_gcc12/cms/cmssw-patch/CMSSW_14_0_5_patch1/src/FWCore/ParameterSet/python/Modules.py
p1743
sg26
I250
sV_caseFunctionDict
p1744
(dp1745
g1742
cFWCore.ParameterSet.Modules
_switch_cpu
p1746
sVcuda
p1747
cHeterogeneousCore.CUDACore.SwitchProducerCUDA
_switch_cuda
p1748
ssg1742
g475
sg27
g1736
sbsVsiPixelDigis
p1749
g0
(g1737
g2
Ntp1750
Rp1751
(dp1752
g17
Nsg19
(lp1753
g1742
asg21
I00
sg22
Nsg23
I00
sg24
g1743
sg26
I250
sg1744
(dp1754
g1742
g1746
sg1747
g1748
ssg1742
g0
(g13
g2
Ntp1755
Rp1756
(dp1757
g17
VSiPixelRawToDigi
p1758
sg19
(lp1759
VIncludeErrors
p1760
aVUseQualityInfo
p1761
ag1327
ag1328
ag35
aVRegions
p1762
aVUsePilotBlade
p1763
ag1326
ag1325
aVSiPixelQualityLabel
p1764
ag346
asg21
I00
sg22
Nsg1760
g0
(g71
g2
Ntp1765
Rp1766
(dp1767
g21
I00
sg49
I01
sg23
I00
sg50
I01
sbsg23
I01
sg1761
g0
(g71
g2
Ntp1768
Rp1769
(dp1770
g21
I00
sg49
I01
sg23
I00
sg50
I00
sbsg1327
g0
(g61
g62
(lp1771
I29
atp1772
Rp1773
(dp1774
g21
I00
sg49
I01
sg23
I00
sbsg1328
g0
(g61
g62
(lp1775
I40
atp1776
Rp1777
(dp1778
g21
I00
sg49
I01
sg23
I00
sbsg35
g0
(g52
g2
Ntp1779
Rp1780
(dp1781
g21
I00
sg49
I01
sg23
I01
sg56
g57
sg58
g59
sg60
g59
sbsg1762
g0
(g359
g2
Ntp1782
Rp1783
(dp1784
g21
I00
sg49
I01
sg23
I00
sg19
(lp1785
Vinputs
p1786
aVdeltaPhi
p1787
aVmaxZ
p1788
aVbeamSpot
p1789
asg22
Nsg1786
g0
(g424
g2
Ntp1790
Rp1791
(dp1792
g21
I00
sg49
I01
sg23
I00
sg428
cFWCore.ParameterSet.Types
VInputTag
p1793
sg430
Nsbsg1787
g0
(g424
g2
Ntp1794
Rp1795
(dp1796
g21
I00
sg49
I01
sg23
I00
sg428
cFWCore.ParameterSet.Types
vdouble
p1797
sg430
Nsbsg1788
g0
(g424
g2
Ntp1798
Rp1799
(dp1800
g21
I00
sg49
I01
sg23
I00
sg428
g1797
sg430
Nsbsg1789
g0
(g424
g2
Ntp1801
Rp1802
(dp1803
g21
I00
sg49
I01
sg23
I00
sg428
g52
sg430
Nsbsbsg1763
g0
(g71
g2
Ntp1804
Rp1805
(dp1806
g21
I00
sg49
I01
sg23
I00
sg50
I00
sbsg1326
g0
(g71
g2
Ntp1807
Rp1808
(dp1809
g21
I00
sg49
I01
sg23
I00
sg50
I00
sbsg1325
g0
(g45
g2
Ntp1810
Rp1811
(dp1812
g21
I00
sg49
I01
sg23
I00
sg50
g59
sbsg1764
g0
(g45
g2
Ntp1813
Rp1814
(dp1815
g21
I00
sg49
I01
sg23
I00
sg50
g59
sbsg346
g0
(g424
g2
Ntp1816
Rp1817
(dp1818
g21
I00
sg49
I00
sg23
I00
sg428
g429
sg430
Nsbsg24
V/cvmfs/cms.cern.ch/slc7_amd64_gcc12/cms/cmssw-patch/CMSSW_14_0_5_patch1/src/EventFilter/SiPixelRawToDigi/python/SiPixelRawToDigi_cfi.py
p1819
sg26
I8
sg27
VsiPixelDigis@cpu
p1820
sbsg27
g1749
sbssV_Process__source
p1821
g0
(cFWCore.ParameterSet.Modules
Source
p1822
g2
Ntp1823
Rp1824
(dp1825
g17
VPoolSource
p1826
sg19
(lp1827
VfileNames
p1828
asg21
I00
sg22
Nsg1828
g0
(g429
g62
(lp1829
tp1830
Rp1831
(dp1832
g21
I00
sg49
I00
sg23
I00
sg887
I1
sbsg23
I00
sg24
g1743
sg26
I195
sbsV_Process__looper
p1833
NsV_Process__subProcesses
p1834
(lp1835
sV_Process__schedule
p1836
NsV_Process__analyzers
p1837
(dp1838
Vdemo
p1839
g0
(cFWCore.ParameterSet.Modules
EDAnalyzer
p1840
g2
Ntp1841
Rp1842
(dp1843
g17
VRPCNtuplizer
p1844
sg19
(lp1845
VrpcRecHits_tag
p1846
aVscalersResults
p1847
aVnoisy
p1848
asg21
I00
sg22
Nsg1846
g0
(g52
g2
Ntp1849
Rp1850
(dp1851
g21
I00
sg49
I00
sg23
I00
sg56
VrpcRecHits
p1852
sg58
g59
sg60
g59
sbsg23
I00
sg1847
g0
(g52
g2
Ntp1853
Rp1854
(dp1855
g21
I00
sg49
I01
sg23
I00
sg56
g1191
sg58
g59
sg60
g59
sbsg1848
g0
(g45
g2
Ntp1856
Rp1857
(dp1858
g21
I00
sg49
I01
sg23
I00
sg50
VEmpty_Noisy_strips_ID.txt
p1859
sbsg24
V/afs/cern.ch/user/l/lfavilla/CMSSW_14_0_5_patch1/src/DPGAnalysis/RateVsLumi/crab/ConfFile_RPCNtuplizer.py
p1860
sg26
I28
sg27
g1839
sbssV_Process__outputmodules
p1861
(dp1862
sV_Process__paths
p1863
g0
(cFWCore.ParameterSet.DictTypes
SortedKeysDict
p1864
c__builtin__
dict
p1865
(dp1866
Vp
p1867
g0
(cFWCore.ParameterSet.SequenceTypes
Path
p1868
g2
Ntp1869
Rp1870
(dp1871
g21
I00
sV_seq
p1872
g0
(cFWCore.ParameterSet.SequenceTypes
_SequenceCollection
p1873
g2
Ntp1874
Rp1875
(dp1876
V_collection
p1877
(lp1878
g1842
asbsg23
I00
sV_tasks
p1879
g0
(cFWCore.ParameterSet.OrderedSet
OrderedSet
p1880
g2
Ntp1881
Rp1882
(dp1883
Vend
p1884
(lp1885
Nag1885
ag1885
asVmap
p1886
(dp1887
sbsg27
g1867
sbstp1888
Rp1889
(dp1890
Vlist
p1891
(lp1892
g1867
asbsV_Process__endpaths
p1893
g0
(g1864
g1865
(dp1894
tp1895
Rp1896
(dp1897
g1891
(lp1898
sbsV_Process__finalpaths
p1899
g0
(g1864
g1865
(dp1900
tp1901
Rp1902
(dp1903
g1891
(lp1904
sbsV_Process__sequences
p1905
(dp1906
g32
g0
(cFWCore.ParameterSet.SequenceTypes
Sequence
p1907
g2
Ntp1908
Rp1909
(dp1910
g21
I00
sg1872
Nsg23
I00
sg1879
g0
(g1880
g2
Ntp1911
Rp1912
(dp1913
g1884
(lp1914
Na(lp1915
g0
(cFWCore.ParameterSet.SequenceTypes
Task
p1916
g2
Ntp1917
Rp1918
(dp1919
g1877
g0
(g1880
g2
Ntp1920
Rp1921
(dp1922
g1884
(lp1923
Na(lp1924
g0
(g1916
g2
Ntp1925
Rp1926
(dp1927
g1877
g0
(g1880
g2
Ntp1928
Rp1929
(dp1930
g1884
(lp1931
Na(lp1932
g777
a(lp1933
g748
a(lp1934
g688
a(lp1935
g461
a(lp1936
g305
ag1931
ag1935
aag1934
aag1933
aag1932
aag1931
aag1936
asg1886
(dp1937
g305
g1936
sg461
g1935
sg688
g1934
sg748
g1933
sg777
g1932
ssbsg27
VL1TRawToDigi_Legacy
p1938
sbag1923
ag1923
aag1924
asg1886
(dp1939
g1926
g1924
ssbsg27
VL1TRawToDigiTask
p1940
sbag1914
ag1914
aag1915
asg1886
(dp1941
g1918
g1915
ssbsg27
g32
sbsg345
g0
(g1907
g2
Ntp1942
Rp1943
(dp1944
g21
I00
sg1872
Nsg23
I00
sg1879
g0
(g1880
g2
Ntp1945
Rp1946
(dp1947
g1884
(lp1948
Na(lp1949
g0
(g1916
g2
Ntp1950
Rp1951
(dp1952
g1877
g0
(g1880
g2
Ntp1953
Rp1954
(dp1955
g1884
(lp1956
Na(lp1957
g1193
a(lp1958
g1472
a(lp1959
g1306
a(lp1960
g238
a(lp1961
g1163
a(lp1962
g1048
a(lp1963
g955
a(lp1964
g835
a(lp1965
g630
a(lp1966
g0
(g1916
g2
Ntp1967
Rp1968
(dp1969
g1877
g0
(g1880
g2
Ntp1970
Rp1971
(dp1972
g1884
(lp1973
Na(lp1974
g1739
ag1973
ag1973
aag1974
asg1886
(dp1975
g1739
g1974
ssbsg27
VecalDigisTask
p1976
sba(lp1977
g1378
a(lp1978
g0
(g1916
g2
Ntp1979
Rp1980
(dp1981
g1877
g0
(g1880
g2
Ntp1982
Rp1983
(dp1984
g1884
(lp1985
Na(lp1986
g1751
ag1985
ag1985
aag1986
asg1886
(dp1987
g1751
g1986
ssbsg27
VsiPixelDigisTask
p1988
sba(lp1989
g1918
ag1956
ag1978
aag1977
aag1966
aag1965
aag1964
aag1963
aag1962
aag1961
aag1960
aag1959
aag1958
aag1957
aag1956
aag1989
asg1886
(dp1990
g1918
g1989
sg1980
g1978
sg1378
g1977
sg1968
g1966
sg630
g1965
sg835
g1964
sg955
g1963
sg1048
g1962
sg1163
g1961
sg238
g1960
sg1306
g1959
sg1472
g1958
sg1193
g1957
ssbsg27
VRawToDigiTask
p1991
sbag1948
ag1948
aag1949
asg1886
(dp1992
g1951
g1949
ssbsg27
g345
sbsVRawToDigi_ecalOnly
p1993
g0
(g1907
g2
Ntp1994
Rp1995
(dp1996
g21
I00
sg1872
Nsg23
I00
sg1879
g0
(g1880
g2
Ntp1997
Rp1998
(dp1999
g1884
(lp2000
Na(lp2001
g0
(g1916
g2
Ntp2002
Rp2003
(dp2004
g1877
g0
(g1880
g2
Ntp2005
Rp2006
(dp2007
g1884
(lp2008
Na(lp2009
g1306
a(lp2010
g630
a(lp2011
g1968
ag2008
ag2010
aag2009
aag2008
aag2011
asg1886
(dp2012
g1968
g2011
sg630
g2010
sg1306
g2009
ssbsg27
VRawToDigiTask_ecalOnly
p2013
sbag2000
ag2000
aag2001
asg1886
(dp2014
g2003
g2001
ssbsg27
g1993
sbsVRawToDigi_hcalOnly
p2015
g0
(g1907
g2
Ntp2016
Rp2017
(dp2018
g21
I00
sg1872
Nsg23
I00
sg1879
g0
(g1880
g2
Ntp2019
Rp2020
(dp2021
g1884
(lp2022
Na(lp2023
g0
(g1916
g2
Ntp2024
Rp2025
(dp2026
g1877
g0
(g1880
g2
Ntp2027
Rp2028
(dp2029
g1884
(lp2030
Na(lp2031
g835
ag2030
ag2030
aag2031
asg1886
(dp2032
g835
g2031
ssbsg27
VRawToDigiTask_hcalOnly
p2033
sbag2022
ag2022
aag2023
asg1886
(dp2034
g2025
g2023
ssbsg27
g2015
sbsVRawToDigi_noTk
p2035
g0
(g1907
g2
Ntp2036
Rp2037
(dp2038
g21
I00
sg1872
Nsg23
I00
sg1879
g0
(g1880
g2
Ntp2039
Rp2040
(dp2041
g1884
(lp2042
Na(lp2043
g0
(g1916
g2
Ntp2044
Rp2045
(dp2046
g1877
g0
(g1880
g2
Ntp2047
Rp2048
(dp2049
g1884
(lp2050
Na(lp2051
g1193
a(lp2052
g1472
a(lp2053
g1306
a(lp2054
g238
a(lp2055
g1163
a(lp2056
g1048
a(lp2057
g955
a(lp2058
g835
a(lp2059
g630
a(lp2060
g1968
a(lp2061
g1918
ag2050
ag2060
aag2059
aag2058
aag2057
aag2056
aag2055
aag2054
aag2053
aag2052
aag2051
aag2050
aag2061
asg1886
(dp2062
g1918
g2061
sg1968
g2060
sg630
g2059
sg835
g2058
sg955
g2057
sg1048
g2056
sg1163
g2055
sg238
g2054
sg1306
g2053
sg1472
g2052
sg1193
g2051
ssbsg27
VRawToDigiTask_noTk
p2063
sbag2042
ag2042
aag2043
asg1886
(dp2064
g2045
g2043
ssbsg27
g2035
sbsVRawToDigi_pixelOnly
p2065
g0
(g1907
g2
Ntp2066
Rp2067
(dp2068
g21
I00
sg1872
Nsg23
I00
sg1879
g0
(g1880
g2
Ntp2069
Rp2070
(dp2071
g1884
(lp2072
Na(lp2073
g0
(g1916
g2
Ntp2074
Rp2075
(dp2076
g1877
g0
(g1880
g2
Ntp2077
Rp2078
(dp2079
g1884
(lp2080
Na(lp2081
g1306
a(lp2082
g1980
ag2080
ag2081
aag2080
aag2082
asg1886
(dp2083
g1980
g2082
sg1306
g2081
ssbsg27
VRawToDigiTask_pixelOnly
p2084
sbag2072
ag2072
aag2073
asg1886
(dp2085
g2075
g2073
ssbsg27
g2065
sbsVctppsRawToDigi
p2086
g0
(g1907
g2
Ntp2087
Rp2088
(dp2089
g21
I00
sg1872
Nsg23
I00
sg1879
g0
(g1880
g2
Ntp2090
Rp2091
(dp2092
g1884
(lp2093
Na(lp2094
g0
(g1916
g2
Ntp2095
Rp2096
(dp2097
g1877
g0
(g1880
g2
Ntp2098
Rp2099
(dp2100
g1884
(lp2101
Na(lp2102
g434
a(lp2103
g1566
a(lp2104
g1636
a(lp2105
g337
a(lp2106
g1496
ag2101
ag2105
aag2104
aag2103
aag2102
aag2101
aag2106
asg1886
(dp2107
g1496
g2106
sg337
g2105
sg1636
g2104
sg1566
g2103
sg434
g2102
ssbsg27
VctppsRawToDigiTask
p2108
sbag2093
ag2093
aag2094
asg1886
(dp2109
g2096
g2094
ssbsg27
g2086
sbssV_Process__tasks
p2110
(dp2111
g1940
g1918
sg1938
g1926
sVL1TRawToDigi_Stage1
p2112
g0
(g1916
g2
Ntp2113
Rp2114
(dp2115
g1877
g0
(g1880
g2
Ntp2116
Rp2117
(dp2118
g1884
(lp2119
Na(lp2120
g688
a(lp2121
g181
a(lp2122
g142
a(lp2123
g125
a(lp2124
g748
a(lp2125
g461
a(lp2126
g305
ag2119
ag2125
aag2124
aag2123
aag2122
aag2121
aag2120
aag2119
aag2126
asg1886
(dp2127
g305
g2126
sg461
g2125
sg748
g2124
sg125
g2123
sg142
g2122
sg181
g2121
sg688
g2120
ssbsg27
g2112
sbsVL1TRawToDigi_Stage2
p2128
g0
(g1916
g2
Ntp2129
Rp2130
(dp2131
g1877
g0
(g1880
g2
Ntp2132
Rp2133
(dp2134
g1884
(lp2135
Na(lp2136
g818
a(lp2137
g801
a(lp2138
g731
a(lp2139
g211
a(lp2140
g97
a(lp2141
g661
a(lp2142
g1218
a(lp2143
g1179
a(lp2144
g30
a(lp2145
g1706
a(lp2146
g1266
a(lp2147
g1291
ag2135
ag2146
aag2145
aag2144
aag2143
aag2142
aag2141
aag2140
aag2139
aag2138
aag2137
aag2136
aag2135
aag2147
asg1886
(dp2148
g1291
g2147
sg1266
g2146
sg1706
g2145
sg30
g2144
sg1179
g2143
sg1218
g2142
sg661
g2141
sg97
g2140
sg211
g2139
sg731
g2138
sg801
g2137
sg818
g2136
ssbsg27
g2128
sbsg1991
g1951
sg2013
g2003
sg2033
g2025
sg2063
g2045
sg2084
g2075
sg2108
g2096
sg1976
g1968
sg1988
g1980
ssV_Process__conditionaltasks
p2149
(dp2150
sV_Process__services
p2151
(dp2152
VMessageLogger
p2153
g0
(cFWCore.ParameterSet.Modules
Service
p2154
g2
Ntp2155
Rp2156
(dp2157
g17
g2153
sg19
(lp2158
VsuppressWarning
p2159
aVsuppressFwkInfo
p2160
aVsuppressInfo
p2161
aVsuppressDebug
p2162
aVdebugModules
p2163
aVcout
p2164
aVdefault
p2165
aVcerr
p2166
aVfiles
p2167
asg21
I00
sg22
g0
(g424
g2
Ntp2168
Rp2169
(dp2170
g21
I00
sg49
I00
sg23
I00
sg428
g0
(cFWCore.ParameterSet.Types
_PSetTemplate
p2171
g2
Ntp2172
Rp2173
(dp2174
V_pset
p2175
g0
(g359
g2
Ntp2176
Rp2177
(dp2178
g21
I00
sg49
I01
sg23
I00
sg19
(lp2179
VreportEvery
p2180
aVlimit
p2181
aVtimespan
p2182
asg22
Nsg2180
g0
(g75
g2
Ntp2183
Rp2184
(dp2185
g21
I00
sg49
I00
sg23
I00
sg50
I1
sbsg2181
g0
(g424
g2
Ntp2186
Rp2187
(dp2188
g21
I00
sg49
I00
sg23
I00
sg428
g75
sg430
Nsbsg2182
g0
(g424
g2
Ntp2189
Rp2190
(dp2191
g21
I00
sg49
I00
sg23
I00
sg428
g75
sg430
NsbsbsV_PSetTemplate__value
p2192
Nsbsg430
Nsbsg2159
g0
(g429
g62
(lp2193
tp2194
Rp2195
(dp2196
g21
I00
sg49
I00
sg23
I00
sg887
I1
sbsg23
I01
sg2160
g0
(g429
g62
(lp2197
tp2198
Rp2199
(dp2200
g21
I00
sg49
I00
sg23
I00
sg887
I1
sbsg2161
g0
(g429
g62
(lp2201
tp2202
Rp2203
(dp2204
g21
I00
sg49
I00
sg23
I00
sg887
I1
sbsg2162
g0
(g429
g62
(lp2205
tp2206
Rp2207
(dp2208
g21
I00
sg49
I00
sg23
I00
sg887
I1
sbsg2163
g0
(g429
g62
(lp2209
tp2210
Rp2211
(dp2212
g21
I00
sg49
I00
sg23
I00
sg887
I1
sbsg2164
g0
(g359
g2
Ntp2213
Rp2214
(dp2215
g21
I00
sg49
I00
sg23
I00
sg19
(lp2216
VnoLineBreaks
p2217
aVnoTimeStamps
p2218
aVlineLength
p2219
aVthreshold
p2220
aVstatisticsThreshold
p2221
aVenableStatistics
p2222
aVresetStatistics
p2223
aVenable
p2224
asg22
g2169
sg2217
g0
(g424
g2
Ntp2225
Rp2226
(dp2227
g21
I00
sg49
I00
sg23
I00
sg428
g71
sg430
Nsbsg2218
g0
(g424
g2
Ntp2228
Rp2229
(dp2230
g21
I00
sg49
I00
sg23
I00
sg428
g71
sg430
Nsbsg2219
g0
(g424
g2
Ntp2231
Rp2232
(dp2233
g21
I00
sg49
I00
sg23
I00
sg428
g75
sg430
Nsbsg2220
g0
(g424
g2
Ntp2234
Rp2235
(dp2236
g21
I00
sg49
I00
sg23
I00
sg428
g45
sg430
Nsbsg2221
g0
(g424
g2
Ntp2237
Rp2238
(dp2239
g21
I00
sg49
I00
sg23
I00
sg428
g45
sg430
Nsbsg2222
g0
(g71
g2
Ntp2240
Rp2241
(dp2242
g21
I00
sg49
I00
sg23
I00
sg50
I00
sbsg2223
g0
(g71
g2
Ntp2243
Rp2244
(dp2245
g21
I00
sg49
I00
sg23
I00
sg50
I00
sbsg2224
g0
(g71
g2
Ntp2246
Rp2247
(dp2248
g21
I00
sg49
I00
sg23
I00
sg50
I00
sbsbsg2165
g0
(g359
g2
Ntp2249
Rp2250
(dp2251
g21
I00
sg49
I00
sg23
I00
sg19
(lp2252
g2180
ag2181
ag2182
ag2217
ag2218
ag2219
ag2220
ag2221
asg22
g2169
sg2180
g0
(g75
g2
Ntp2253
Rp2254
(dp2255
g21
I00
sg49
I00
sg23
I00
sg50
I1
sbsg2181
g0
(g424
g2
Ntp2256
Rp2257
(dp2258
g21
I00
sg49
I00
sg23
I00
sg428
g75
sg430
Nsbsg2182
g0
(g424
g2
Ntp2259
Rp2260
(dp2261
g21
I00
sg49
I00
sg23
I00
sg428
g75
sg430
Nsbsg2217
g0
(g71
g2
Ntp2262
Rp2263
(dp2264
g21
I00
sg49
I00
sg23
I00
sg50
I00
sbsg2218
g0
(g71
g2
Ntp2265
Rp2266
(dp2267
g21
I00
sg49
I00
sg23
I00
sg50
I00
sbsg2219
g0
(g75
g2
Ntp2268
Rp2269
(dp2270
g21
I00
sg49
I00
sg23
I00
sg50
I80
sbsg2220
g0
(g45
g2
Ntp2271
Rp2272
(dp2273
g21
I00
sg49
I00
sg23
I00
sg50
VINFO
p2274
sbsg2221
g0
(g45
g2
Ntp2275
Rp2276
(dp2277
g21
I00
sg49
I00
sg23
I00
sg50
g2274
sbsbsg2166
g0
(g359
g2
Ntp2278
Rp2279
(dp2280
g21
I00
sg49
I00
sg23
I01
sg19
(lp2281
g2217
ag2218
ag2219
ag2220
ag2221
ag2224
ag2222
ag2223
ag2274
aVFwkReport
p2282
ag2165
aVRoot_NoDictionary
p2283
aVFwkSummary
p2284
asg22
g2169
sg2217
g0
(g424
g2
Ntp2285
Rp2286
(dp2287
g21
I00
sg49
I00
sg23
I00
sg428
g71
sg430
Nsbsg2218
g0
(g71
g2
Ntp2288
Rp2289
(dp2290
g21
I00
sg49
I00
sg23
I00
sg50
I00
sbsg2219
g0
(g424
g2
Ntp2291
Rp2292
(dp2293
g21
I00
sg49
I00
sg23
I00
sg428
g75
sg430
Nsbsg2220
g0
(g45
g2
Ntp2294
Rp2295
(dp2296
g21
I00
sg49
I00
sg23
I00
sg50
VDEBUG
p2297
sbsg2221
g0
(g45
g2
Ntp2298
Rp2299
(dp2300
g21
I00
sg49
I00
sg23
I00
sg50
VWARNING
p2301
sbsg2224
g0
(g71
g2
Ntp2302
Rp2303
(dp2304
g21
I00
sg49
I00
sg23
I00
sg50
I01
sbsg2222
g0
(g71
g2
Ntp2305
Rp2306
(dp2307
g21
I00
sg49
I00
sg23
I00
sg50
I00
sbsg2223
g0
(g71
g2
Ntp2308
Rp2309
(dp2310
g21
I00
sg49
I00
sg23
I00
sg50
I00
sbsg2274
g0
(g359
g2
Ntp2311
Rp2312
(dp2313
g21
I00
sg49
I00
sg23
I00
sg19
(lp2314
g2181
asg22
Nsg2181
g0
(g75
g2
Ntp2315
Rp2316
(dp2317
g21
I00
sg49
I00
sg23
I00
sg50
I0
sbsbsg2282
g0
(g359
g2
Ntp2318
Rp2319
(dp2320
g21
I00
sg49
I00
sg23
I01
sg19
(lp2321
g2180
ag2181
asg22
Nsg2180
g0
(g75
g2
Ntp2322
Rp2323
(dp2324
g21
I00
sg49
I00
sg23
I00
sg50
I1
sbsg2181
g0
(g75
g2
Ntp2325
Rp2326
(dp2327
g21
I00
sg49
I00
sg23
I00
sg50
I10000000
sbsbsg2165
g0
(g359
g2
Ntp2328
Rp2329
(dp2330
g21
I00
sg49
I00
sg23
I00
sg19
(lp2331
g2181
asg22
Nsg2181
g0
(g75
g2
Ntp2332
Rp2333
(dp2334
g21
I00
sg49
I00
sg23
I00
sg50
I10000000
sbsbsg2283
g0
(g359
g2
Ntp2335
Rp2336
(dp2337
g21
I00
sg49
I00
sg23
I00
sg19
(lp2338
g2181
asg22
Nsg2181
g0
(g75
g2
Ntp2339
Rp2340
(dp2341
g21
I00
sg49
I00
sg23
I00
sg50
I0
sbsbsg2284
g0
(g359
g2
Ntp2342
Rp2343
(dp2344
g21
I00
sg49
I00
sg23
I00
sg19
(lp2345
g2180
ag2181
asg22
Nsg2180
g0
(g75
g2
Ntp2346
Rp2347
(dp2348
g21
I00
sg49
I00
sg23
I00
sg50
I1
sbsg2181
g0
(g75
g2
Ntp2349
Rp2350
(dp2351
g21
I00
sg49
I00
sg23
I00
sg50
I10000000
sbsbsbsg2167
g0
(g359
g2
Ntp2352
Rp2353
(dp2354
g21
I00
sg49
I00
sg23
I00
sg19
(lp2355
sg22
g0
(g424
g2
Ntp2356
Rp2357
(dp2358
g21
I00
sg49
I00
sg23
I00
sg428
g0
(g2171
g2
Ntp2359
Rp2360
(dp2361
g2175
g0
(g359
g2
Ntp2362
Rp2363
(dp2364
g21
I00
sg49
I01
sg23
I00
sg19
(lp2365
g2217
ag2218
ag2219
ag2220
ag2221
ag2222
ag2223
aVfilename
p2366
aVextension
p2367
aVoutput
p2368
asg22
g2169
sg2217
g0
(g424
g2
Ntp2369
Rp2370
(dp2371
g21
I00
sg49
I00
sg23
I00
sg428
g71
sg430
Nsbsg2218
g0
(g424
g2
Ntp2372
Rp2373
(dp2374
g21
I00
sg49
I00
sg23
I00
sg428
g71
sg430
Nsbsg2219
g0
(g424
g2
Ntp2375
Rp2376
(dp2377
g21
I00
sg49
I00
sg23
I00
sg428
g75
sg430
Nsbsg2220
g0
(g424
g2
Ntp2378
Rp2379
(dp2380
g21
I00
sg49
I00
sg23
I00
sg428
g45
sg430
Nsbsg2221
g0
(g424
g2
Ntp2381
Rp2382
(dp2383
g21
I00
sg49
I00
sg23
I00
sg428
g45
sg430
Nsbsg2222
g0
(g71
g2
Ntp2384
Rp2385
(dp2386
g21
I00
sg49
I00
sg23
I00
sg50
I00
sbsg2223
g0
(g71
g2
Ntp2387
Rp2388
(dp2389
g21
I00
sg49
I00
sg23
I00
sg50
I00
sbsg2366
g0
(g424
g2
Ntp2390
Rp2391
(dp2392
g21
I00
sg49
I00
sg23
I00
sg428
g45
sg430
Nsbsg2367
g0
(g424
g2
Ntp2393
Rp2394
(dp2395
g21
I00
sg49
I00
sg23
I00
sg428
g45
sg430
Nsbsg2368
g0
(g424
g2
Ntp2396
Rp2397
(dp2398
g21
I00
sg49
I00
sg23
I00
sg428
g45
sg430
Nsbsbsg2192
Nsbsg430
Nsbsbsg24
g1743
sg26
I13
sV_inProcess
p2399
I00
sbsVDQMStore
p2400
g0
(g2154
g2
Ntp2401
Rp2402
(dp2403
g17
g2400
sg19
(lp2404
g466
aVsaveByLumi
p2405
aVMEsToSave
p2406
aVtrackME
p2407
aVassertLegacySafe
p2408
aVenableMultiThread
p2409
aVonlineMode
p2410
asg21
I00
sg22
Nsg466
g0
(g75
g2
Ntp2411
Rp2412
(dp2413
g21
I00
sg49
I00
sg23
I00
sg50
I0
sbsg23
I00
sg2405
g0
(g71
g2
Ntp2414
Rp2415
(dp2416
g21
I00
sg49
I00
sg23
I00
sg50
I00
sbsg2406
g0
(g429
g62
(lp2417
VHcal/DigiTask/Occupancy/depth/depth1
p2418
aVHcal/DigiTask/Occupancy/depth/depth2
p2419
aVHcal/DigiTask/Occupancy/depth/depth3
p2420
aVHcal/DigiTask/Occupancy/depth/depth4
p2421
aVHcal/DigiTask/Occupancy/depth/depth5
p2422
aVHcal/DigiTask/Occupancy/depth/depth6
p2423
aVHcal/DigiTask/Occupancy/depth/depth7
p2424
aVHcal/DigiTask/Occupancy/depth/depthHO
p2425
aVHcal/DigiTask/OccupancyCut/depth/depth1
p2426
aVHcal/DigiTask/OccupancyCut/depth/depth2
p2427
aVHcal/DigiTask/OccupancyCut/depth/depth3
p2428
aVHcal/DigiTask/OccupancyCut/depth/depth4
p2429
aVHcal/DigiTask/OccupancyCut/depth/depth5
p2430
aVHcal/DigiTask/OccupancyCut/depth/depth6
p2431
aVHcal/DigiTask/OccupancyCut/depth/depth7
p2432
aVHcal/DigiTask/OccupancyCut/depth/depthHO
p2433
aVEcalBarrel/EBOccupancyTask/EBOT digi occupancy
p2434
aVEcalEndcap/EEOccupancyTask/EEOT digi occupancy EE -
p2435
aVEcalEndcap/EEOccupancyTask/EEOT digi occupancy EE +
p2436
aVEcalBarrel/EBOccupancyTask/EBOT DCC entries
p2437
aVEcalEndcap/EEOccupancyTask/EEOT DCC entries
p2438
aVEcal/EventInfo/processedEvents
p2439
aVPixelPhase1/Tracks/charge_PXBarrel
p2440
aVPixelPhase1/Tracks/charge_PXForward
p2441
aVPixelPhase1/Tracks/PXBarrel/charge_PXLayer_1
p2442
aVPixelPhase1/Tracks/PXBarrel/charge_PXLayer_2
p2443
aVPixelPhase1/Tracks/PXBarrel/charge_PXLayer_3
p2444
aVPixelPhase1/Tracks/PXBarrel/charge_PXLayer_4
p2445
aVPixelPhase1/Tracks/PXForward/charge_PXDisk_+1
p2446
aVPixelPhase1/Tracks/PXForward/charge_PXDisk_+2
p2447
aVPixelPhase1/Tracks/PXForward/charge_PXDisk_+3
p2448
aVPixelPhase1/Tracks/PXForward/charge_PXDisk_-1
p2449
aVPixelPhase1/Tracks/PXForward/charge_PXDisk_-2
p2450
aVPixelPhase1/Tracks/PXForward/charge_PXDisk_-3
p2451
aVPixelPhase1/Tracks/PXBarrel/size_PXLayer_1
p2452
aVPixelPhase1/Tracks/PXBarrel/size_PXLayer_2
p2453
aVPixelPhase1/Tracks/PXBarrel/size_PXLayer_3
p2454
aVPixelPhase1/Tracks/PXBarrel/size_PXLayer_4
p2455
aVPixelPhase1/Tracks/PXForward/size_PXDisk_+1
p2456
aVPixelPhase1/Tracks/PXForward/size_PXDisk_+2
p2457
aVPixelPhase1/Tracks/PXForward/size_PXDisk_+3
p2458
aVPixelPhase1/Tracks/PXForward/size_PXDisk_-1
p2459
aVPixelPhase1/Tracks/PXForward/size_PXDisk_-2
p2460
aVPixelPhase1/Tracks/PXForward/size_PXDisk_-3
p2461
aVHLT/Vertexing/hltPixelVertices/hltPixelVertices/goodvtxNbr
p2462
aVHLT/Tracking/ValidationWRTOffline/hltMergedWrtHighPurityPV/mon_eta
p2463
aVHLT/Tracking/ValidationWRTOffline/hltMergedWrtHighPurityPV/mon_hits
p2464
aVHLT/Tracking/ValidationWRTOffline/hltMergedWrtHighPurityPV/mon_phi
p2465
aVHLT/Tracking/ValidationWRTOffline/hltMergedWrtHighPurityPV/mon_pt
p2466
aVHLT/Tracking/ValidationWRTOffline/hltMergedWrtHighPurityPV/mon_unMatched_eta
p2467
aVHLT/Tracking/ValidationWRTOffline/hltMergedWrtHighPurityPV/mon_unMatched_hits
p2468
aVHLT/Tracking/ValidationWRTOffline/hltMergedWrtHighPurityPV/mon_unMatched_phi
p2469
aVHLT/Tracking/ValidationWRTOffline/hltMergedWrtHighPurityPV/mon_unMatched_pt
p2470
aVHLT/Tracking/ValidationWRTOffline/hltMergedWrtHighPurityPV/ref_eta
p2471
aVHLT/Tracking/ValidationWRTOffline/hltMergedWrtHighPurityPV/ref_hits
p2472
aVHLT/Tracking/ValidationWRTOffline/hltMergedWrtHighPurityPV/ref_matched_eta
p2473
aVHLT/Tracking/ValidationWRTOffline/hltMergedWrtHighPurityPV/ref_matched_hits
p2474
aVHLT/Tracking/ValidationWRTOffline/hltMergedWrtHighPurityPV/ref_matched_phi
p2475
aVHLT/Tracking/ValidationWRTOffline/hltMergedWrtHighPurityPV/ref_matched_pt
p2476
aVHLT/Tracking/ValidationWRTOffline/hltMergedWrtHighPurityPV/ref_phi
p2477
aVHLT/Tracking/ValidationWRTOffline/hltMergedWrtHighPurityPV/ref_pt
p2478
aVHLT/Tracking/pixelTracks/GeneralProperties/Chi2Prob_GenTk
p2479
aVHLT/Tracking/pixelTracks/GeneralProperties/Chi2oNDFVsEta_ImpactPoint_GenTk
p2480
aVHLT/Tracking/pixelTracks/GeneralProperties/DeltaZToPVZoom_GenTk
p2481
aVHLT/Tracking/pixelTracks/GeneralProperties/DistanceOfClosestApproachToPVVsPhi_GenTk
p2482
aVHLT/Tracking/pixelTracks/GeneralProperties/DistanceOfClosestApproachToPVZoom_GenTk
p2483
aVHLT/Tracking/pixelTracks/GeneralProperties/NumberOfTracks_GenTk
p2484
aVHLT/Tracking/tracks/GeneralProperties/Chi2Prob_GenTk
p2485
aVHLT/Tracking/tracks/GeneralProperties/Chi2oNDFVsEta_ImpactPoint_GenTk
p2486
aVHLT/Tracking/tracks/GeneralProperties/DeltaZToPVZoom_GenTk
p2487
aVHLT/Tracking/tracks/GeneralProperties/DistanceOfClosestApproachToPVVsPhi_GenTk
p2488
aVHLT/Tracking/tracks/GeneralProperties/DistanceOfClosestApproachToPVZoom_GenTk
p2489
aVHLT/Tracking/tracks/GeneralProperties/NumberOfTracks_GenTk
p2490
aVHLT/Tracking/tracks/LUMIanalysis/NumberEventsVsLUMI
p2491
aVHLT/Tracking/tracks/PUmonitoring/NumberEventsVsGoodPVtx
p2492
aVPixelPhase1/Tracks/num_clusters_ontrack_PXBarrel
p2493
aVPixelPhase1/Tracks/num_clusters_ontrack_PXForward
p2494
aVPixelPhase1/Tracks/clusterposition_zphi_ontrack
p2495
aVPixelPhase1/Tracks/PXBarrel/clusterposition_zphi_ontrack_PXLayer_1
p2496
aVPixelPhase1/Tracks/PXBarrel/clusterposition_zphi_ontrack_PXLayer_2
p2497
aVPixelPhase1/Tracks/PXBarrel/clusterposition_zphi_ontrack_PXLayer_3
p2498
aVPixelPhase1/Tracks/PXBarrel/clusterposition_zphi_ontrack_PXLayer_4
p2499
aVPixelPhase1/Tracks/PXForward/clusterposition_xy_ontrack_PXDisk_+1
p2500
aVPixelPhase1/Tracks/PXForward/clusterposition_xy_ontrack_PXDisk_+2
p2501
aVPixelPhase1/Tracks/PXForward/clusterposition_xy_ontrack_PXDisk_+3
p2502
aVPixelPhase1/Tracks/PXForward/clusterposition_xy_ontrack_PXDisk_-1
p2503
aVPixelPhase1/Tracks/PXForward/clusterposition_xy_ontrack_PXDisk_-2
p2504
aVPixelPhase1/Tracks/PXForward/clusterposition_xy_ontrack_PXDisk_-3
p2505
aVPixelPhase1/Phase1_MechanicalView/PXBarrel/digi_occupancy_per_SignedModuleCoord_per_SignedLadderCoord_PXLayer_1
p2506
aVPixelPhase1/Phase1_MechanicalView/PXBarrel/digi_occupancy_per_SignedModuleCoord_per_SignedLadderCoord_PXLayer_2
p2507
aVPixelPhase1/Phase1_MechanicalView/PXBarrel/digi_occupancy_per_SignedModuleCoord_per_SignedLadderCoord_PXLayer_3
p2508
aVPixelPhase1/Phase1_MechanicalView/PXBarrel/digi_occupancy_per_SignedModuleCoord_per_SignedLadderCoord_PXLayer_4
p2509
aVPixelPhase1/Phase1_MechanicalView/PXForward/digi_occupancy_per_SignedDiskCoord_per_SignedBladePanelCoord_PXRing_1
p2510
aVPixelPhase1/Phase1_MechanicalView/PXForward/digi_occupancy_per_SignedDiskCoord_per_SignedBladePanelCoord_PXRing_2
p2511
aVPixelPhase1/Phase1_MechanicalView/PXBarrel/clusters_per_SignedModuleCoord_per_SignedLadderCoord_PXLayer_1
p2512
aVPixelPhase1/Phase1_MechanicalView/PXBarrel/clusters_per_SignedModuleCoord_per_SignedLadderCoord_PXLayer_2
p2513
aVPixelPhase1/Phase1_MechanicalView/PXBarrel/clusters_per_SignedModuleCoord_per_SignedLadderCoord_PXLayer_3
p2514
aVPixelPhase1/Phase1_MechanicalView/PXBarrel/clusters_per_SignedModuleCoord_per_SignedLadderCoord_PXLayer_4
p2515
aVPixelPhase1/Phase1_MechanicalView/PXForward/clusters_per_SignedDiskCoord_per_SignedBladePanelCoord_PXRing_1
p2516
aVPixelPhase1/Phase1_MechanicalView/PXForward/clusters_per_SignedDiskCoord_per_SignedBladePanelCoord_PXRing_2
p2517
aVSiStrip/MechanicalView/TEC/PLUS/wheel_1/NormalizedHitResiduals_TEC__wheel__1
p2518
aVSiStrip/MechanicalView/TEC/PLUS/wheel_2/NormalizedHitResiduals_TEC__wheel__2
p2519
aVSiStrip/MechanicalView/TEC/PLUS/wheel_3/NormalizedHitResiduals_TEC__wheel__3
p2520
aVSiStrip/MechanicalView/TEC/PLUS/wheel_4/NormalizedHitResiduals_TEC__wheel__4
p2521
aVSiStrip/MechanicalView/TEC/PLUS/wheel_5/NormalizedHitResiduals_TEC__wheel__5
p2522
aVSiStrip/MechanicalView/TEC/PLUS/wheel_6/NormalizedHitResiduals_TEC__wheel__6
p2523
aVSiStrip/MechanicalView/TEC/PLUS/wheel_7/NormalizedHitResiduals_TEC__wheel__7
p2524
aVSiStrip/MechanicalView/TEC/PLUS/wheel_8/NormalizedHitResiduals_TEC__wheel__8
p2525
aVSiStrip/MechanicalView/TEC/PLUS/wheel_9/NormalizedHitResiduals_TEC__wheel__9
p2526
aVSiStrip/MechanicalView/TEC/MINUS/wheel_1/NormalizedHitResiduals_TEC__wheel__1
p2527
aVSiStrip/MechanicalView/TEC/MINUS/wheel_2/NormalizedHitResiduals_TEC__wheel__2
p2528
aVSiStrip/MechanicalView/TEC/MINUS/wheel_3/NormalizedHitResiduals_TEC__wheel__3
p2529
aVSiStrip/MechanicalView/TEC/MINUS/wheel_4/NormalizedHitResiduals_TEC__wheel__4
p2530
aVSiStrip/MechanicalView/TEC/MINUS/wheel_5/NormalizedHitResiduals_TEC__wheel__5
p2531
aVSiStrip/MechanicalView/TEC/MINUS/wheel_6/NormalizedHitResiduals_TEC__wheel__6
p2532
aVSiStrip/MechanicalView/TEC/MINUS/wheel_7/NormalizedHitResiduals_TEC__wheel__7
p2533
aVSiStrip/MechanicalView/TEC/MINUS/wheel_8/NormalizedHitResiduals_TEC__wheel__8
p2534
aVSiStrip/MechanicalView/TEC/MINUS/wheel_9/NormalizedHitResiduals_TEC__wheel__9
p2535
aVSiStrip/MechanicalView/TEC/PLUS/wheel_1/Summary_ClusterStoNCorr__OnTrack__TEC__PLUS__wheel__1
p2536
aVSiStrip/MechanicalView/TEC/PLUS/wheel_2/Summary_ClusterStoNCorr__OnTrack__TEC__PLUS__wheel__2
p2537
aVSiStrip/MechanicalView/TEC/PLUS/wheel_3/Summary_ClusterStoNCorr__OnTrack__TEC__PLUS__wheel__3
p2538
aVSiStrip/MechanicalView/TEC/PLUS/wheel_4/Summary_ClusterStoNCorr__OnTrack__TEC__PLUS__wheel__4
p2539
aVSiStrip/MechanicalView/TEC/PLUS/wheel_5/Summary_ClusterStoNCorr__OnTrack__TEC__PLUS__wheel__5
p2540
aVSiStrip/MechanicalView/TEC/PLUS/wheel_6/Summary_ClusterStoNCorr__OnTrack__TEC__PLUS__wheel__6
p2541
aVSiStrip/MechanicalView/TEC/PLUS/wheel_7/Summary_ClusterStoNCorr__OnTrack__TEC__PLUS__wheel__7
p2542
aVSiStrip/MechanicalView/TEC/PLUS/wheel_8/Summary_ClusterStoNCorr__OnTrack__TEC__PLUS__wheel__8
p2543
aVSiStrip/MechanicalView/TEC/PLUS/wheel_9/Summary_ClusterStoNCorr__OnTrack__TEC__PLUS__wheel__9
p2544
aVSiStrip/MechanicalView/TEC/MINUS/wheel_1/Summary_ClusterStoNCorr__OnTrack__TEC__MINUS__wheel__1
p2545
aVSiStrip/MechanicalView/TEC/MINUS/wheel_2/Summary_ClusterStoNCorr__OnTrack__TEC__MINUS__wheel__2
p2546
aVSiStrip/MechanicalView/TEC/MINUS/wheel_3/Summary_ClusterStoNCorr__OnTrack__TEC__MINUS__wheel__3
p2547
aVSiStrip/MechanicalView/TEC/MINUS/wheel_4/Summary_ClusterStoNCorr__OnTrack__TEC__MINUS__wheel__4
p2548
aVSiStrip/MechanicalView/TEC/MINUS/wheel_5/Summary_ClusterStoNCorr__OnTrack__TEC__MINUS__wheel__5
p2549
aVSiStrip/MechanicalView/TEC/MINUS/wheel_6/Summary_ClusterStoNCorr__OnTrack__TEC__MINUS__wheel__6
p2550
aVSiStrip/MechanicalView/TEC/MINUS/wheel_7/Summary_ClusterStoNCorr__OnTrack__TEC__MINUS__wheel__7
p2551
aVSiStrip/MechanicalView/TEC/MINUS/wheel_8/Summary_ClusterStoNCorr__OnTrack__TEC__MINUS__wheel__8
p2552
aVSiStrip/MechanicalView/TEC/MINUS/wheel_9/Summary_ClusterStoNCorr__OnTrack__TEC__MINUS__wheel__9
p2553
aVSiStrip/MechanicalView/TIB/layer_1/NormalizedHitResiduals_TIB__Layer__1
p2554
aVSiStrip/MechanicalView/TIB/layer_2/NormalizedHitResiduals_TIB__Layer__2
p2555
aVSiStrip/MechanicalView/TIB/layer_3/NormalizedHitResiduals_TIB__Layer__3
p2556
aVSiStrip/MechanicalView/TIB/layer_4/NormalizedHitResiduals_TIB__Layer__4
p2557
aVSiStrip/MechanicalView/TIB/layer_1/Summary_ClusterStoNCorr__OnTrack__TIB__layer__1
p2558
aVSiStrip/MechanicalView/TIB/layer_2/Summary_ClusterStoNCorr__OnTrack__TIB__layer__2
p2559
aVSiStrip/MechanicalView/TIB/layer_3/Summary_ClusterStoNCorr__OnTrack__TIB__layer__3
p2560
aVSiStrip/MechanicalView/TIB/layer_4/Summary_ClusterStoNCorr__OnTrack__TIB__layer__4
p2561
aVSiStrip/MechanicalView/TID/PLUS/wheel_1/NormalizedHitResiduals_TID__wheel__1
p2562
aVSiStrip/MechanicalView/TID/PLUS/wheel_2/NormalizedHitResiduals_TID__wheel__2
p2563
aVSiStrip/MechanicalView/TID/PLUS/wheel_3/NormalizedHitResiduals_TID__wheel__3
p2564
aVSiStrip/MechanicalView/TID/MINUS/wheel_1/NormalizedHitResiduals_TID__wheel__1
p2565
aVSiStrip/MechanicalView/TID/MINUS/wheel_2/NormalizedHitResiduals_TID__wheel__2
p2566
aVSiStrip/MechanicalView/TID/MINUS/wheel_3/NormalizedHitResiduals_TID__wheel__3
p2567
aVSiStrip/MechanicalView/TID/PLUS/wheel_1/Summary_ClusterStoNCorr__OnTrack__TID__PLUS__wheel__1
p2568
aVSiStrip/MechanicalView/TID/PLUS/wheel_2/Summary_ClusterStoNCorr__OnTrack__TID__PLUS__wheel__2
p2569
aVSiStrip/MechanicalView/TID/PLUS/wheel_3/Summary_ClusterStoNCorr__OnTrack__TID__PLUS__wheel__3
p2570
aVSiStrip/MechanicalView/TID/MINUS/wheel_1/Summary_ClusterStoNCorr__OnTrack__TID__MINUS__wheel__1
p2571
aVSiStrip/MechanicalView/TID/MINUS/wheel_2/Summary_ClusterStoNCorr__OnTrack__TID__MINUS__wheel__2
p2572
aVSiStrip/MechanicalView/TID/MINUS/wheel_3/Summary_ClusterStoNCorr__OnTrack__TID__MINUS__wheel__3
p2573
aVSiStrip/MechanicalView/TOB/layer_1/NormalizedHitResiduals_TOB__Layer__1
p2574
aVSiStrip/MechanicalView/TOB/layer_2/NormalizedHitResiduals_TOB__Layer__2
p2575
aVSiStrip/MechanicalView/TOB/layer_3/NormalizedHitResiduals_TOB__Layer__3
p2576
aVSiStrip/MechanicalView/TOB/layer_4/NormalizedHitResiduals_TOB__Layer__4
p2577
aVSiStrip/MechanicalView/TOB/layer_5/NormalizedHitResiduals_TOB__Layer__5
p2578
aVSiStrip/MechanicalView/TOB/layer_6/NormalizedHitResiduals_TOB__Layer__6
p2579
aVSiStrip/MechanicalView/TOB/layer_1/Summary_ClusterStoNCorr__OnTrack__TOB__layer__1
p2580
aVSiStrip/MechanicalView/TOB/layer_2/Summary_ClusterStoNCorr__OnTrack__TOB__layer__2
p2581
aVSiStrip/MechanicalView/TOB/layer_3/Summary_ClusterStoNCorr__OnTrack__TOB__layer__3
p2582
aVSiStrip/MechanicalView/TOB/layer_4/Summary_ClusterStoNCorr__OnTrack__TOB__layer__4
p2583
aVSiStrip/MechanicalView/TOB/layer_5/Summary_ClusterStoNCorr__OnTrack__TOB__layer__5
p2584
aVSiStrip/MechanicalView/TOB/layer_6/Summary_ClusterStoNCorr__OnTrack__TOB__layer__6
p2585
aVSiStrip/MechanicalView/MainDiagonal Position
p2586
aVSiStrip/MechanicalView/NumberOfClustersInPixel
p2587
aVSiStrip/MechanicalView/NumberOfClustersInStrip
p2588
aVTracking/TrackParameters/generalTracks/LSanalysis/Chi2oNDF_lumiFlag_GenTk
p2589
aVTracking/TrackParameters/generalTracks/LSanalysis/NumberOfRecHitsPerTrack_lumiFlag_GenTk
p2590
aVTracking/TrackParameters/generalTracks/LSanalysis/NumberOfTracks_lumiFlag_GenTk
p2591
aVTracking/TrackParameters/highPurityTracks/pt_1/GeneralProperties/SIPDxyToPV_GenTk
p2592
aVTracking/TrackParameters/highPurityTracks/pt_1/GeneralProperties/SIPDzToPV_GenTk
p2593
aVTracking/TrackParameters/highPurityTracks/pt_1/GeneralProperties/SIP3DToPV_GenTk
p2594
aVTracking/TrackParameters/generalTracks/HitProperties/NumberOfMissingOuterRecHitsPerTrack_GenTk
p2595
aVTracking/TrackParameters/generalTracks/HitProperties/NumberMORecHitsPerTrackVsPt_GenTk
p2596
aVOfflinePV/offlinePrimaryVertices/tagVtxProb
p2597
aVOfflinePV/offlinePrimaryVertices/tagType
p2598
aVOfflinePV/Resolution/PV/pull_x
p2599
aVOfflinePV/Resolution/PV/pull_y
p2600
aVOfflinePV/Resolution/PV/pull_z
p2601
aVJetMET/Jet/Cleanedak4PFJetsCHS/CHFrac_highPt_Barrel
p2602
aVJetMET/Jet/Cleanedak4PFJetsCHS/CHFrac_highPt_EndCap
p2603
aVJetMET/Jet/Cleanedak4PFJetsCHS/CHFrac_mediumPt_Barrel
p2604
aVJetMET/Jet/Cleanedak4PFJetsCHS/CHFrac_mediumPt_EndCap
p2605
aVJetMET/Jet/Cleanedak4PFJetsCHS/CHFrac_lowPt_Barrel
p2606
aVJetMET/Jet/Cleanedak4PFJetsCHS/CHFrac_lowPt_EndCap
p2607
aVJetMET/Jet/Cleanedak4PFJetsCHS/ChMultiplicity_highPt_Barrel
p2608
aVJetMET/Jet/Cleanedak4PFJetsCHS/ChMultiplicity_highPt_EndCap
p2609
aVJetMET/Jet/Cleanedak4PFJetsCHS/ChMultiplicity_mediumPt_Barrel
p2610
aVJetMET/Jet/Cleanedak4PFJetsCHS/ChMultiplicity_mediumPt_EndCap
p2611
aVJetMET/Jet/Cleanedak4PFJetsCHS/ChMultiplicity_lowPt_Barrel
p2612
aVJetMET/Jet/Cleanedak4PFJetsCHS/ChMultiplicity_lowPt_EndCap
p2613
aVJetMET/Jet/Cleanedak4PFJetsCHS/Constituents
p2614
aVJetMET/Jet/Cleanedak4PFJetsCHS/Eta
p2615
aVJetMET/Jet/Cleanedak4PFJetsCHS/Eta_uncor
p2616
aVJetMET/Jet/Cleanedak4PFJetsCHS/JetEnergyCorr
p2617
aVJetMET/Jet/Cleanedak4PFJetsCHS/NJets
p2618
aVJetMET/Jet/Cleanedak4PFJetsCHS/Phi
p2619
aVJetMET/Jet/Cleanedak4PFJetsCHS/Phi_Barrel
p2620
aVJetMET/Jet/Cleanedak4PFJetsCHS/Phi_EndCap
p2621
aVJetMET/Jet/Cleanedak4PFJetsCHS/Pt
p2622
aVJetMET/MET/pfMETT1/Cleaned/METSig
p2623
aVJetMET/vertices
p2624
atp2625
Rp2626
(dp2627
g21
I00
sg49
I00
sg23
I00
sg887
I1
sbsg2407
g0
(g45
g2
Ntp2628
Rp2629
(dp2630
g21
I00
sg49
I00
sg23
I00
sg50
g59
sbsg2408
g0
(g71
g2
Ntp2631
Rp2632
(dp2633
g21
I00
sg49
I00
sg23
I00
sg50
I00
sbsg2409
g0
(g71
g2
Ntp2634
Rp2635
(dp2636
g21
I00
sg49
I00
sg23
I00
sg50
I01
sbsg2410
g0
(g71
g2
Ntp2637
Rp2638
(dp2639
g21
I00
sg49
I00
sg23
I00
sg50
I00
sbsg24
g1743
sg26
I13
sg2399
I01
sbsVRandomNumberGeneratorService
p2640
g0
(g2154
g2
Ntp2641
Rp2642
(dp2643
g17
g2640
sg19
(lp2644
VexternalLHEProducer
p2645
aVgenerator
p2646
aVVtxSmeared
p2647
aVLHCTransport
p2648
aVhiSignalLHCTransport
p2649
aVg4SimHits
p2650
aVmix
p2651
aVmixData
p2652
aVsimSiStripDigiSimLink
p2653
aVsimMuonDTDigis
p2654
aVsimMuonCSCDigis
p2655
aVsimMuonRPCDigis
p2656
aVhiSignal
p2657
aVhiSignalG4SimHits
p2658
aVfamosPileUp
p2659
aVmixGenPU
p2660
aVmixSimCaloHits
p2661
aVmixRecoTracks
p2662
aVfastSimProducer
p2663
aVfastTrackerRecHits
p2664
aVecalRecHit
p2665
aVecalPreshowerRecHit
p2666
aVhbhereco
p2667
aVhoreco
p2668
aVhfreco
p2669
aVparamMuons
p2670
aVl1ParamMuons
p2671
aVMuonSimHits
p2672
aVCTPPSFastRecHits
p2673
aVsimBeamSpotFilter
p2674
aVRPixDetDigitizer
p2675
aVRPSiDetDigitizer
p2676
aVsaveFileName
p2677
asg21
I00
sg22
Nsg2645
g0
(g359
g2
Ntp2678
Rp2679
(dp2680
g21
I00
sg49
I01
sg23
I00
sg19
(lp2681
VinitialSeed
p2682
aVengineName
p2683
asg22
Nsg2682
g0
(g67
g2
Ntp2684
Rp2685
(dp2686
g21
I00
sg49
I00
sg23
I00
sg50
I234567
sbsg2683
g0
(g45
g2
Ntp2687
Rp2688
(dp2689
g21
I00
sg49
I00
sg23
I00
sg50
VMixMaxRng
p2690
sbsbsg23
I00
sg2646
g0
(g359
g2
Ntp2691
Rp2692
(dp2693
g21
I00
sg49
I01
sg23
I00
sg19
(lp2694
g2682
ag2683
asg22
Nsg2682
g0
(g67
g2
Ntp2695
Rp2696
(dp2697
g21
I00
sg49
I00
sg23
I00
sg50
I123456789
sbsg2683
g2688
sbsg2647
g0
(g359
g2
Ntp2698
Rp2699
(dp2700
g21
I00
sg49
I01
sg23
I00
sg19
(lp2701
g2682
ag2683
asg22
Nsg2682
g0
(g67
g2
Ntp2702
Rp2703
(dp2704
g21
I00
sg49
I00
sg23
I00
sg50
I98765432
sbsg2683
g2688
sbsg2648
g0
(g359
g2
Ntp2705
Rp2706
(dp2707
g21
I00
sg49
I01
sg23
I00
sg19
(lp2708
g2682
ag2683
asg22
Nsg2682
g0
(g67
g2
Ntp2709
Rp2710
(dp2711
g21
I00
sg49
I00
sg23
I00
sg50
I87654321
sbsg2683
g0
(g45
g2
Ntp2712
Rp2713
(dp2714
g21
I00
sg49
I00
sg23
I00
sg50
VTRandom3
p2715
sbsbsg2649
g0
(g359
g2
Ntp2716
Rp2717
(dp2718
g21
I00
sg49
I01
sg23
I00
sg19
(lp2719
g2682
ag2683
asg22
Nsg2682
g0
(g67
g2
Ntp2720
Rp2721
(dp2722
g21
I00
sg49
I00
sg23
I00
sg50
I88776655
sbsg2683
g0
(g45
g2
Ntp2723
Rp2724
(dp2725
g21
I00
sg49
I00
sg23
I00
sg50
g2690
sbsbsg2650
g0
(g359
g2
Ntp2726
Rp2727
(dp2728
g21
I00
sg49
I01
sg23
I00
sg19
(lp2729
g2682
ag2683
asg22
Nsg2682
g0
(g67
g2
Ntp2730
Rp2731
(dp2732
g21
I00
sg49
I00
sg23
I00
sg50
I11
sbsg2683
g2688
sbsg2651
g0
(g359
g2
Ntp2733
Rp2734
(dp2735
g21
I00
sg49
I01
sg23
I00
sg19
(lp2736
g2682
ag2683
asg22
Nsg2682
g0
(g67
g2
Ntp2737
Rp2738
(dp2739
g21
I00
sg49
I00
sg23
I00
sg50
I12345
sbsg2683
g2688
sbsg2652
g0
(g359
g2
Ntp2740
Rp2741
(dp2742
g21
I00
sg49
I01
sg23
I00
sg19
(lp2743
g2682
ag2683
asg22
Nsg2682
g0
(g67
g2
Ntp2744
Rp2745
(dp2746
g21
I00
sg49
I00
sg23
I00
sg50
I12345
sbsg2683
g2688
sbsg2653
g0
(g359
g2
Ntp2747
Rp2748
(dp2749
g21
I00
sg49
I01
sg23
I00
sg19
(lp2750
g2682
ag2683
asg22
Nsg2682
g0
(g67
g2
Ntp2751
Rp2752
(dp2753
g21
I00
sg49
I00
sg23
I00
sg50
I1234567
sbsg2683
g2688
sbsg2654
g0
(g359
g2
Ntp2754
Rp2755
(dp2756
g21
I00
sg49
I01
sg23
I00
sg19
(lp2757
g2682
ag2683
asg22
Nsg2682
g0
(g67
g2
Ntp2758
Rp2759
(dp2760
g21
I00
sg49
I00
sg23
I00
sg50
I1234567
sbsg2683
g2688
sbsg2655
g0
(g359
g2
Ntp2761
Rp2762
(dp2763
g21
I00
sg49
I01
sg23
I00
sg19
(lp2764
g2682
ag2683
asg22
Nsg2682
g0
(g67
g2
Ntp2765
Rp2766
(dp2767
g21
I00
sg49
I00
sg23
I00
sg50
I11223344
sbsg2683
g2688
sbsg2656
g0
(g359
g2
Ntp2768
Rp2769
(dp2770
g21
I00
sg49
I01
sg23
I00
sg19
(lp2771
g2682
ag2683
asg22
Nsg2682
g0
(g67
g2
Ntp2772
Rp2773
(dp2774
g21
I00
sg49
I00
sg23
I00
sg50
I1234567
sbsg2683
g2688
sbsg2657
g0
(g359
g2
Ntp2775
Rp2776
(dp2777
g21
I00
sg49
I01
sg23
I00
sg19
(lp2778
g2682
ag2683
asg22
Nsg2682
g0
(g67
g2
Ntp2779
Rp2780
(dp2781
g21
I00
sg49
I00
sg23
I00
sg50
I123456789
sbsg2683
g2688
sbsg2658
g0
(g359
g2
Ntp2782
Rp2783
(dp2784
g21
I00
sg49
I01
sg23
I00
sg19
(lp2785
g2682
ag2683
asg22
Nsg2682
g0
(g67
g2
Ntp2786
Rp2787
(dp2788
g21
I00
sg49
I00
sg23
I00
sg50
I11
sbsg2683
g2688
sbsg2659
g0
(g359
g2
Ntp2789
Rp2790
(dp2791
g21
I00
sg49
I01
sg23
I00
sg19
(lp2792
g2682
ag2683
asg22
Nsg2682
g0
(g67
g2
Ntp2793
Rp2794
(dp2795
g21
I00
sg49
I00
sg23
I00
sg50
I918273
sbsg2683
g2724
sbsg2660
g0
(g359
g2
Ntp2796
Rp2797
(dp2798
g21
I00
sg49
I01
sg23
I00
sg19
(lp2799
g2682
ag2683
asg22
Nsg2682
g0
(g67
g2
Ntp2800
Rp2801
(dp2802
g21
I00
sg49
I00
sg23
I00
sg50
I918273
sbsg2683
g2724
sbsg2661
g0
(g359
g2
Ntp2803
Rp2804
(dp2805
g21
I00
sg49
I01
sg23
I00
sg19
(lp2806
g2682
ag2683
asg22
Nsg2682
g0
(g67
g2
Ntp2807
Rp2808
(dp2809
g21
I00
sg49
I00
sg23
I00
sg50
I918273
sbsg2683
g2724
sbsg2662
g0
(g359
g2
Ntp2810
Rp2811
(dp2812
g21
I00
sg49
I01
sg23
I00
sg19
(lp2813
g2682
ag2683
asg22
Nsg2682
g0
(g67
g2
Ntp2814
Rp2815
(dp2816
g21
I00
sg49
I00
sg23
I00
sg50
I918273
sbsg2683
g2724
sbsg2663
g0
(g359
g2
Ntp2817
Rp2818
(dp2819
g21
I00
sg49
I01
sg23
I00
sg19
(lp2820
g2682
ag2683
asg22
Nsg2682
g0
(g67
g2
Ntp2821
Rp2822
(dp2823
g21
I00
sg49
I00
sg23
I00
sg50
I13579
sbsg2683
g2724
sbsg2664
g0
(g359
g2
Ntp2824
Rp2825
(dp2826
g21
I00
sg49
I01
sg23
I00
sg19
(lp2827
g2682
ag2683
asg22
Nsg2682
g0
(g67
g2
Ntp2828
Rp2829
(dp2830
g21
I00
sg49
I00
sg23
I00
sg50
I24680
sbsg2683
g2724
sbsg2665
g0
(g359
g2
Ntp2831
Rp2832
(dp2833
g21
I00
sg49
I01
sg23
I00
sg19
(lp2834
g2682
ag2683
asg22
Nsg2682
g0
(g67
g2
Ntp2835
Rp2836
(dp2837
g21
I00
sg49
I00
sg23
I00
sg50
I654321
sbsg2683
g2724
sbsg2666
g0
(g359
g2
Ntp2838
Rp2839
(dp2840
g21
I00
sg49
I01
sg23
I00
sg19
(lp2841
g2682
ag2683
asg22
Nsg2682
g0
(g67
g2
Ntp2842
Rp2843
(dp2844
g21
I00
sg49
I00
sg23
I00
sg50
I6541321
sbsg2683
g2724
sbsg2667
g0
(g359
g2
Ntp2845
Rp2846
(dp2847
g21
I00
sg49
I01
sg23
I00
sg19
(lp2848
g2682
ag2683
asg22
Nsg2682
g0
(g67
g2
Ntp2849
Rp2850
(dp2851
g21
I00
sg49
I00
sg23
I00
sg50
I541321
sbsg2683
g2724
sbsg2668
g0
(g359
g2
Ntp2852
Rp2853
(dp2854
g21
I00
sg49
I01
sg23
I00
sg19
(lp2855
g2682
ag2683
asg22
Nsg2682
g0
(g67
g2
Ntp2856
Rp2857
(dp2858
g21
I00
sg49
I00
sg23
I00
sg50
I541321
sbsg2683
g2724
sbsg2669
g0
(g359
g2
Ntp2859
Rp2860
(dp2861
g21
I00
sg49
I01
sg23
I00
sg19
(lp2862
g2682
ag2683
asg22
Nsg2682
g0
(g67
g2
Ntp2863
Rp2864
(dp2865
g21
I00
sg49
I00
sg23
I00
sg50
I541321
sbsg2683
g2724
sbsg2670
g0
(g359
g2
Ntp2866
Rp2867
(dp2868
g21
I00
sg49
I01
sg23
I00
sg19
(lp2869
g2682
ag2683
asg22
Nsg2682
g0
(g67
g2
Ntp2870
Rp2871
(dp2872
g21
I00
sg49
I00
sg23
I00
sg50
I54525
sbsg2683
g2724
sbsg2671
g0
(g359
g2
Ntp2873
Rp2874
(dp2875
g21
I00
sg49
I01
sg23
I00
sg19
(lp2876
g2682
ag2683
asg22
Nsg2682
g0
(g67
g2
Ntp2877
Rp2878
(dp2879
g21
I00
sg49
I00
sg23
I00
sg50
I6453209
sbsg2683
g2724
sbsg2672
g0
(g359
g2
Ntp2880
Rp2881
(dp2882
g21
I00
sg49
I01
sg23
I00
sg19
(lp2883
g2682
ag2683
asg22
Nsg2682
g0
(g67
g2
Ntp2884
Rp2885
(dp2886
g21
I00
sg49
I00
sg23
I00
sg50
I987346
sbsg2683
g2724
sbsg2673
g0
(g359
g2
Ntp2887
Rp2888
(dp2889
g21
I00
sg49
I01
sg23
I00
sg19
(lp2890
g2682
ag2683
asg22
Nsg2682
g0
(g67
g2
Ntp2891
Rp2892
(dp2893
g21
I00
sg49
I00
sg23
I00
sg50
I1357987
sbsg2683
g2724
sbsg2674
g0
(g359
g2
Ntp2894
Rp2895
(dp2896
g21
I00
sg49
I01
sg23
I00
sg19
(lp2897
g2682
ag2683
asg22
Nsg2682
g0
(g67
g2
Ntp2898
Rp2899
(dp2900
g21
I00
sg49
I00
sg23
I00
sg50
I87654321
sbsg2683
g2688
sbsg2675
g0
(g359
g2
Ntp2901
Rp2902
(dp2903
g21
I00
sg49
I01
sg23
I00
sg19
(lp2904
g2682
ag2683
asg22
Nsg2682
g0
(g67
g2
Ntp2905
Rp2906
(dp2907
g21
I00
sg49
I00
sg23
I00
sg50
I137137
sbsg2683
g2688
sbsg2676
g0
(g359
g2
Ntp2908
Rp2909
(dp2910
g21
I00
sg49
I01
sg23
I00
sg19
(lp2911
g2682
ag2683
asg22
Nsg2682
g0
(g67
g2
Ntp2912
Rp2913
(dp2914
g21
I00
sg49
I00
sg23
I00
sg50
I137137
sbsg2683
g2688
sbsg2677
g0
(g45
g2
Ntp2915
Rp2916
(dp2917
g21
I00
sg49
I00
sg23
I00
sg50
g59
sbsg24
g1743
sg26
I13
sg2399
I01
sbsVTFileService
p2918
g0
(g2154
g2
Ntp2919
Rp2920
(dp2921
g17
g2918
sg19
(lp2922
VfileName
p2923
asg21
I00
sg22
Nsg2923
g0
(g45
g2
Ntp2924
Rp2925
(dp2926
g21
I00
sg49
I01
sg23
I00
sg50
VRPCNtuple.root
p2927
sbsg23
I00
sg24
g1743
sg26
I13
sg2399
I01
sbssV_Process__essources
p2928
(dp2929
VHepPDTESSource
p2930
g0
(cFWCore.ParameterSet.Modules
ESSource
p2931
g2
Ntp2932
Rp2933
(dp2934
g17
g2930
sg19
(lp2935
VpdtFileName
p2936
asg21
I00
sg22
Nsg2936
g0
(g648
g2
Ntp2937
Rp2938
(dp2939
g21
I00
sg49
I01
sg23
I00
sg50
VSimGeneral/HepPDTESSource/data/pythiaparticle.tbl
p2940
sbsg23
I00
sg24
V/cvmfs/cms.cern.ch/slc7_amd64_gcc12/cms/cmssw-patch/CMSSW_14_0_5_patch1/src/SimGeneral/HepPDTESSource/python/pythiapdt_cfi.py
p2941
sg26
I3
sg27
g2930
sbsVeegeom
p2942
g0
(g2931
g2
Ntp2943
Rp2944
(dp2945
g17
VEmptyESSource
p2946
sg19
(lp2947
VrecordName
p2948
aViovIsRunNotTime
p2949
aVfirstValid
p2950
asg21
I00
sg22
Nsg2948
g0
(g45
g2
Ntp2951
Rp2952
(dp2953
g21
I00
sg49
I01
sg23
I00
sg50
VEcalMappingRcd
p2954
sbsg23
I00
sg2949
g0
(g71
g2
Ntp2955
Rp2956
(dp2957
g21
I00
sg49
I01
sg23
I00
sg50
I01
sbsg2950
g0
(g354
g62
(lp2958
I1
atp2959
Rp2960
(dp2961
g21
I00
sg49
I01
sg23
I00
sbsg24
V/cvmfs/cms.cern.ch/slc7_amd64_gcc12/cms/cmssw-patch/CMSSW_14_0_5_patch1/src/Geometry/EcalMapping/python/EcalMappingRecord_cfi.py
p2962
sg26
I3
sg27
g2942
sbsVGlobalTag
p2963
g0
(g2931
g2
Ntp2964
Rp2965
(dp2966
g17
VPoolDBESSource
p2967
sg19
(lp2968
VDBParameters
p2969
aVconnect
p2970
aVglobaltag
p2971
aVsnapshotTime
p2972
aVtoGet
p2973
aVDumpStat
p2974
aVReconnectEachRun
p2975
aVRefreshAlways
p2976
aVRefreshEachRun
p2977
aVRefreshOpenIOVs
p2978
aVpfnPostfix
p2979
aVpfnPrefix
p2980
asg21
I00
sg22
Nsg2969
g0
(g359
g2
Ntp2981
Rp2982
(dp2983
g21
I00
sg49
I01
sg23
I00
sg19
(lp2984
VauthenticationPath
p2985
aVauthenticationSystem
p2986
aVsecurity
p2987
aVmessageLevel
p2988
aVconnectionTimeout
p2989
asg22
Nsg2985
g0
(g45
g2
Ntp2990
Rp2991
(dp2992
g21
I00
sg49
I00
sg23
I00
sg50
g59
sbsg2986
g0
(g75
g2
Ntp2993
Rp2994
(dp2995
g21
I00
sg49
I00
sg23
I00
sg50
I0
sbsg2987
g0
(g45
g2
Ntp2996
Rp2997
(dp2998
g21
I00
sg49
I00
sg23
I00
sg50
g59
sbsg2988
g0
(g75
g2
Ntp2999
Rp3000
(dp3001
g21
I00
sg49
I00
sg23
I00
sg50
I0
sbsg2989
g0
(g75
g2
Ntp3002
Rp3003
(dp3004
g21
I00
sg49
I00
sg23
I00
sg50
I0
sbsbsg23
I01
sg2970
g0
(g45
g2
Ntp3005
Rp3006
(dp3007
g21
I00
sg49
I01
sg23
I00
sg50
Vfrontier://FrontierProd/CMS_CONDITIONS
p3008
sbsg2971
g0
(g45
g2
Ntp3009
Rp3010
(dp3011
g21
I00
sg49
I01
sg23
I01
sg50
V124X_dataRun3_Prompt_v4
p3012
sbsg2972
g0
(g45
g2
Ntp3013
Rp3014
(dp3015
g21
I00
sg49
I01
sg23
I00
sg50
g59
sbsg2973
g0
(cFWCore.ParameterSet.Types
VPSet
p3016
g62
(lp3017
tp3018
Rp3019
(dp3020
g21
I00
sg49
I01
sg23
I00
sg887
I1
sbsg2974
g0
(g71
g2
Ntp3021
Rp3022
(dp3023
g21
I00
sg49
I00
sg23
I00
sg50
I00
sbsg2975
g0
(g71
g2
Ntp3024
Rp3025
(dp3026
g21
I00
sg49
I00
sg23
I00
sg50
I00
sbsg2976
g0
(g71
g2
Ntp3027
Rp3028
(dp3029
g21
I00
sg49
I00
sg23
I00
sg50
I00
sbsg2977
g0
(g71
g2
Ntp3030
Rp3031
(dp3032
g21
I00
sg49
I00
sg23
I00
sg50
I00
sbsg2978
g0
(g71
g2
Ntp3033
Rp3034
(dp3035
g21
I00
sg49
I00
sg23
I00
sg50
I00
sbsg2979
g0
(g45
g2
Ntp3036
Rp3037
(dp3038
g21
I00
sg49
I00
sg23
I00
sg50
g59
sbsg2980
g0
(g45
g2
Ntp3039
Rp3040
(dp3041
g21
I00
sg49
I00
sg23
I00
sg50
g59
sbsg24
V/cvmfs/cms.cern.ch/slc7_amd64_gcc12/cms/cmssw-patch/CMSSW_14_0_5_patch1/src/CondCore/ESSources/python/CondDBESSource_cfi.py
p3042
sg26
I8
sg27
g2963
sbsVHcalTimeSlewEP
p3043
g0
(g2931
g2
Ntp3044
Rp3045
(dp3046
g17
g3043
sg19
(lp3047
VappendToDataLabel
p3048
aVtimeSlewParametersM2
p3049
aVtimeSlewParametersM3
p3050
asg21
I00
sg22
Nsg3048
g0
(g45
g2
Ntp3051
Rp3052
(dp3053
g21
I00
sg49
I01
sg23
I00
sg50
VHBHE
p3054
sbsg23
I00
sg3049
g0
(g3016
g62
(lp3055
g0
(g359
g2
Ntp3056
Rp3057
(dp3058
g21
I00
sg49
I01
sg23
I00
sg19
(lp3059
Vtzero
p3060
aVslope
p3061
aVtmax
p3062
asg22
Nsg3060
g0
(g408
g2
Ntp3063
Rp3064
(dp3065
g21
I00
sg49
I01
sg23
I00
sg50
F23.960177
sbsg3061
g0
(g408
g2
Ntp3066
Rp3067
(dp3068
g21
I00
sg49
I01
sg23
I00
sg50
F-3.178648
sbsg3062
g0
(g408
g2
Ntp3069
Rp3070
(dp3071
g21
I00
sg49
I01
sg23
I00
sg50
F16.0
sbsbag0
(g359
g2
Ntp3072
Rp3073
(dp3074
g21
I00
sg49
I01
sg23
I00
sg19
(lp3075
g3060
ag3061
ag3062
asg22
Nsg3060
g0
(g408
g2
Ntp3076
Rp3077
(dp3078
g21
I00
sg49
I01
sg23
I00
sg50
F11.977461
sbsg3061
g0
(g408
g2
Ntp3079
Rp3080
(dp3081
g21
I00
sg49
I01
sg23
I00
sg50
F-1.5610227
sbsg3062
g0
(g408
g2
Ntp3082
Rp3083
(dp3084
g21
I00
sg49
I01
sg23
I00
sg50
F10.0
sbsbag0
(g359
g2
Ntp3085
Rp3086
(dp3087
g21
I00
sg49
I01
sg23
I00
sg19
(lp3088
g3060
ag3061
ag3062
asg22
Nsg3060
g0
(g408
g2
Ntp3089
Rp3090
(dp3091
g21
I00
sg49
I01
sg23
I00
sg50
F9.109694
sbsg3061
g0
(g408
g2
Ntp3092
Rp3093
(dp3094
g21
I00
sg49
I01
sg23
I00
sg50
F-1.075824
sbsg3062
g0
(g408
g2
Ntp3095
Rp3096
(dp3097
g21
I00
sg49
I01
sg23
I00
sg50
F6.25
sbsbatp3098
Rp3099
(dp3100
g21
I00
sg49
I01
sg23
I00
sg887
I1
sbsg3050
g0
(g3016
g62
(lp3101
g0
(g359
g2
Ntp3102
Rp3103
(dp3104
g21
I00
sg49
I01
sg23
I00
sg19
(lp3105
Vcap
p3106
aVtspar0
p3107
aVtspar1
p3108
aVtspar2
p3109
aVtspar0_siPM
p3110
aVtspar1_siPM
p3111
aVtspar2_siPM
p3112
asg22
Nsg3106
g0
(g408
g2
Ntp3113
Rp3114
(dp3115
g21
I00
sg49
I01
sg23
I00
sg50
F6.0
sbsg3107
g0
(g408
g2
Ntp3116
Rp3117
(dp3118
g21
I00
sg49
I01
sg23
I00
sg50
F12.2999
sbsg3108
g0
(g408
g2
Ntp3119
Rp3120
(dp3121
g21
I00
sg49
I01
sg23
I00
sg50
F-2.19142
sbsg3109
g0
(g408
g2
Ntp3122
Rp3123
(dp3124
g21
I00
sg49
I01
sg23
I00
sg50
F0.0
sbsg3110
g0
(g408
g2
Ntp3125
Rp3126
(dp3127
g21
I00
sg49
I01
sg23
I00
sg50
F0.0
sbsg3111
g0
(g408
g2
Ntp3128
Rp3129
(dp3130
g21
I00
sg49
I01
sg23
I00
sg50
F0.0
sbsg3112
g0
(g408
g2
Ntp3131
Rp3132
(dp3133
g21
I00
sg49
I01
sg23
I00
sg50
F0.0
sbsbag0
(g359
g2
Ntp3134
Rp3135
(dp3136
g21
I00
sg49
I01
sg23
I00
sg19
(lp3137
g3106
ag3107
ag3108
ag3109
ag3110
ag3111
ag3112
asg22
Nsg3106
g0
(g408
g2
Ntp3138
Rp3139
(dp3140
g21
I00
sg49
I01
sg23
I00
sg50
F6.0
sbsg3107
g0
(g408
g2
Ntp3141
Rp3142
(dp3143
g21
I00
sg49
I01
sg23
I00
sg50
F15.5
sbsg3108
g0
(g408
g2
Ntp3144
Rp3145
(dp3146
g21
I00
sg49
I01
sg23
I00
sg50
F-3.2
sbsg3109
g0
(g408
g2
Ntp3147
Rp3148
(dp3149
g21
I00
sg49
I01
sg23
I00
sg50
F32.0
sbsg3110
g0
(g408
g2
Ntp3150
Rp3151
(dp3152
g21
I00
sg49
I01
sg23
I00
sg50
F0.0
sbsg3111
g0
(g408
g2
Ntp3153
Rp3154
(dp3155
g21
I00
sg49
I01
sg23
I00
sg50
F0.0
sbsg3112
g0
(g408
g2
Ntp3156
Rp3157
(dp3158
g21
I00
sg49
I01
sg23
I00
sg50
F0.0
sbsbag0
(g359
g2
Ntp3159
Rp3160
(dp3161
g21
I00
sg49
I01
sg23
I00
sg19
(lp3162
g3106
ag3107
ag3108
ag3109
ag3110
ag3111
ag3112
asg22
Nsg3106
g0
(g408
g2
Ntp3163
Rp3164
(dp3165
g21
I00
sg49
I01
sg23
I00
sg50
F6.0
sbsg3107
g0
(g408
g2
Ntp3166
Rp3167
(dp3168
g21
I00
sg49
I01
sg23
I00
sg50
F12.2999
sbsg3108
g0
(g408
g2
Ntp3169
Rp3170
(dp3171
g21
I00
sg49
I01
sg23
I00
sg50
F-2.19142
sbsg3109
g0
(g408
g2
Ntp3172
Rp3173
(dp3174
g21
I00
sg49
I01
sg23
I00
sg50
F0.0
sbsg3110
g0
(g408
g2
Ntp3175
Rp3176
(dp3177
g21
I00
sg49
I01
sg23
I00
sg50
F0.0
sbsg3111
g0
(g408
g2
Ntp3178
Rp3179
(dp3180
g21
I00
sg49
I01
sg23
I00
sg50
F0.0
sbsg3112
g0
(g408
g2
Ntp3181
Rp3182
(dp3183
g21
I00
sg49
I01
sg23
I00
sg50
F0.0
sbsbag0
(g359
g2
Ntp3184
Rp3185
(dp3186
g21
I00
sg49
I01
sg23
I00
sg19
(lp3187
g3106
ag3107
ag3108
ag3109
ag3110
ag3111
ag3112
asg22
Nsg3106
g0
(g408
g2
Ntp3188
Rp3189
(dp3190
g21
I00
sg49
I01
sg23
I00
sg50
F6.0
sbsg3107
g0
(g408
g2
Ntp3191
Rp3192
(dp3193
g21
I00
sg49
I01
sg23
I00
sg50
F12.2999
sbsg3108
g0
(g408
g2
Ntp3194
Rp3195
(dp3196
g21
I00
sg49
I01
sg23
I00
sg50
F-2.19142
sbsg3109
g0
(g408
g2
Ntp3197
Rp3198
(dp3199
g21
I00
sg49
I01
sg23
I00
sg50
F0.0
sbsg3110
g0
(g408
g2
Ntp3200
Rp3201
(dp3202
g21
I00
sg49
I01
sg23
I00
sg50
F0.0
sbsg3111
g0
(g408
g2
Ntp3203
Rp3204
(dp3205
g21
I00
sg49
I01
sg23
I00
sg50
F0.0
sbsg3112
g0
(g408
g2
Ntp3206
Rp3207
(dp3208
g21
I00
sg49
I01
sg23
I00
sg50
F0.0
sbsbatp3209
Rp3210
(dp3211
g21
I00
sg49
I01
sg23
I00
sg887
I1
sbsg24
V/cvmfs/cms.cern.ch/slc7_amd64_gcc12/cms/cmssw-patch/CMSSW_14_0_5_patch1/src/CalibCalorimetry/HcalPlugins/python/HcalTimeSlew_cff.py
p3212
sg26
I3
sg27
g3043
sbsVes_hardcode
p3213
g0
(g2931
g2
Ntp3214
Rp3215
(dp3216
g17
VHcalHardcodeCalibrations
p3217
sg19
(lp3218
g2973
aViLumi
p3219
aVHBRecalibration
p3220
aVHBreCalibCutoff
p3221
aVHBmeanenergies
p3222
aVHERecalibration
p3223
aVHEreCalibCutoff
p3224
aVHEmeanenergies
p3225
aVHFRecalibration
p3226
aVHFRecalParameterBlock
p3227
aVGainWidthsForTrigPrims
p3228
aVuseHBUpgrade
p3229
aVuseHEUpgrade
p3230
aVuseHFUpgrade
p3231
aVuseHOUpgrade
p3232
aVtestHFQIE10
p3233
aVtestHEPlan1
p3234
aVkillHE
p3235
aVuseLayer0Weight
p3236
aVuseIeta18depth1
p3237
aVhb
p3238
aVhe
p3239
aVhf
p3240
aVho
p3241
aVhbUpgrade
p3242
aVheUpgrade
p3243
aVhfUpgrade
p3244
aVSiPMCharacteristics
p3245
asg21
I00
sg22
Nsg2973
g0
(g429
g62
(lp3246
VGainWidths
p3247
atp3248
Rp3249
(dp3250
g21
I00
sg49
I00
sg23
I00
sg887
I1
sbsg23
I00
sg3219
g0
(g408
g2
Ntp3251
Rp3252
(dp3253
g21
I00
sg49
I01
sg23
I00
sg50
F-1.0
sbsg3220
g0
(g71
g2
Ntp3254
Rp3255
(dp3256
g21
I00
sg49
I01
sg23
I00
sg50
I00
sbsg3221
g0
(g408
g2
Ntp3257
Rp3258
(dp3259
g21
I00
sg49
I01
sg23
I00
sg50
F20.0
sbsg3222
g0
(g648
g2
Ntp3260
Rp3261
(dp3262
g21
I00
sg49
I01
sg23
I00
sg50
VCalibCalorimetry/HcalPlugins/data/meanenergiesHB.txt
p3263
sbsg3223
g0
(g71
g2
Ntp3264
Rp3265
(dp3266
g21
I00
sg49
I01
sg23
I00
sg50
I00
sbsg3224
g0
(g408
g2
Ntp3267
Rp3268
(dp3269
g21
I00
sg49
I01
sg23
I00
sg50
F20.0
sbsg3225
g0
(g648
g2
Ntp3270
Rp3271
(dp3272
g21
I00
sg49
I01
sg23
I00
sg50
VCalibCalorimetry/HcalPlugins/data/meanenergiesHE.txt
p3273
sbsg3226
g0
(g71
g2
Ntp3274
Rp3275
(dp3276
g21
I00
sg49
I01
sg23
I00
sg50
I00
sbsg3227
g0
(g359
g2
Ntp3277
Rp3278
(dp3279
g21
I00
sg49
I01
sg23
I00
sg19
(lp3280
VHFdepthOneParameterA
p3281
aVHFdepthOneParameterB
p3282
aVHFdepthTwoParameterA
p3283
aVHFdepthTwoParameterB
p3284
asg22
Nsg3281
g0
(g1797
g62
(lp3285
F0.004123
aF0.00602
aF0.008201
aF0.010489
aF0.013379
aF0.016997
aF0.021464
aF0.027371
aF0.034195
aF0.044807
aF0.058939
aF0.125497
atp3286
Rp3287
(dp3288
g21
I00
sg49
I01
sg23
I00
sbsg3282
g0
(g1797
g62
(lp3289
F-4e-06
aF-2e-06
aF0.0
aF4e-06
aF1.5e-05
aF2.6e-05
aF6.3e-05
aF8.4e-05
aF0.00016
aF0.000107
aF0.000425
aF0.000209
atp3290
Rp3291
(dp3292
g21
I00
sg49
I01
sg23
I00
sbsg3283
g0
(g1797
g62
(lp3293
F0.002861
aF0.004168
aF0.0064
aF0.008388
aF0.011601
aF0.014425
aF0.018633
aF0.023232
aF0.028274
aF0.035447
aF0.051579
aF0.086593
atp3294
Rp3295
(dp3296
g21
I00
sg49
I01
sg23
I00
sbsg3284
g0
(g1797
g62
(lp3297
F-2e-06
aF-0.0
aF-7e-06
aF-6e-06
aF-2e-06
aF1e-06
aF1.9e-05
aF3.1e-05
aF6.7e-05
aF1.2e-05
aF0.000157
aF-3e-06
atp3298
Rp3299
(dp3300
g21
I00
sg49
I01
sg23
I00
sbsg27
g3227
sbsg3228
g0
(g71
g2
Ntp3301
Rp3302
(dp3303
g21
I00
sg49
I01
sg23
I00
sg50
I00
sbsg3229
g0
(g71
g2
Ntp3304
Rp3305
(dp3306
g21
I00
sg49
I01
sg23
I00
sg50
I00
sbsg3230
g0
(g71
g2
Ntp3307
Rp3308
(dp3309
g21
I00
sg49
I01
sg23
I00
sg50
I00
sbsg3231
g0
(g71
g2
Ntp3310
Rp3311
(dp3312
g21
I00
sg49
I01
sg23
I00
sg50
I00
sbsg3232
g0
(g71
g2
Ntp3313
Rp3314
(dp3315
g21
I00
sg49
I01
sg23
I00
sg50
I01
sbsg3233
g0
(g71
g2
Ntp3316
Rp3317
(dp3318
g21
I00
sg49
I01
sg23
I00
sg50
I00
sbsg3234
g0
(g71
g2
Ntp3319
Rp3320
(dp3321
g21
I00
sg49
I01
sg23
I00
sg50
I00
sbsg3235
g0
(g71
g2
Ntp3322
Rp3323
(dp3324
g21
I00
sg49
I01
sg23
I00
sg50
I00
sbsg3236
g0
(g71
g2
Ntp3325
Rp3326
(dp3327
g21
I00
sg49
I01
sg23
I00
sg50
I00
sbsg3237
g0
(g71
g2
Ntp3328
Rp3329
(dp3330
g21
I00
sg49
I01
sg23
I00
sg50
I01
sbsg3238
g0
(g359
g2
Ntp3331
Rp3332
(dp3333
g21
I00
sg49
I01
sg23
I00
sg19
(lp3334
Vpedestal
p3335
aVpedestalWidth
p3336
aVgain
p3337
aVgainWidth
p3338
aVzsThreshold
p3339
aVqieType
p3340
aVqieOffset
p3341
aVqieSlope
p3342
aVmcShape
p3343
aVrecoShape
p3344
aVphotoelectronsToAnalog
p3345
aVdarkCurrent
p3346
aVnoiseCorrelation
p3347
aVnoiseThreshold
p3348
aVseedThreshold
p3349
aVdoRadiationDamage
p3350
asg22
Nsg3335
g0
(g408
g2
Ntp3351
Rp3352
(dp3353
g21
I00
sg49
I01
sg23
I00
sg50
F3.285
sbsg3336
g0
(g408
g2
Ntp3354
Rp3355
(dp3356
g21
I00
sg49
I01
sg23
I00
sg50
F0.809
sbsg3337
g0
(g1797
g62
(lp3357
F0.19
atp3358
Rp3359
(dp3360
g21
I00
sg49
I01
sg23
I00
sbsg3338
g0
(g1797
g62
(lp3361
F0.0
atp3362
Rp3363
(dp3364
g21
I00
sg49
I01
sg23
I00
sbsg3339
g0
(g75
g2
Ntp3365
Rp3366
(dp3367
g21
I00
sg49
I01
sg23
I00
sg50
I8
sbsg3340
g0
(g75
g2
Ntp3368
Rp3369
(dp3370
g21
I00
sg49
I01
sg23
I00
sg50
I0
sbsg3341
g0
(g1797
g62
(lp3371
F-0.49
aF1.8
aF7.2
aF37.9
atp3372
Rp3373
(dp3374
g21
I00
sg49
I01
sg23
I00
sbsg3342
g0
(g1797
g62
(lp3375
F0.912
aF0.917
aF0.922
aF0.923
atp3376
Rp3377
(dp3378
g21
I00
sg49
I01
sg23
I00
sbsg3343
g0
(g75
g2
Ntp3379
Rp3380
(dp3381
g21
I00
sg49
I01
sg23
I00
sg50
I125
sbsg3344
g0
(g75
g2
Ntp3382
Rp3383
(dp3384
g21
I00
sg49
I01
sg23
I00
sg50
I105
sbsg3345
g0
(g408
g2
Ntp3385
Rp3386
(dp3387
g21
I00
sg49
I01
sg23
I00
sg50
F0.3305
sbsg3346
g0
(g1797
g62
(lp3388
F0.0
atp3389
Rp3390
(dp3391
g21
I00
sg49
I01
sg23
I00
sbsg3347
g0
(g1797
g62
(lp3392
F0.0
atp3393
Rp3394
(dp3395
g21
I00
sg49
I01
sg23
I00
sbsg3348
g0
(g408
g2
Ntp3396
Rp3397
(dp3398
g21
I00
sg49
I01
sg23
I00
sg50
F0.0
sbsg3349
g0
(g408
g2
Ntp3399
Rp3400
(dp3401
g21
I00
sg49
I01
sg23
I00
sg50
F0.1
sbsg3350
g0
(g71
g2
Ntp3402
Rp3403
(dp3404
g21
I00
sg49
I01
sg23
I00
sg50
I00
sbsbsg3239
g0
(g359
g2
Ntp3405
Rp3406
(dp3407
g21
I00
sg49
I01
sg23
I00
sg19
(lp3408
g3335
ag3336
ag3337
ag3338
ag3339
ag3340
ag3341
ag3342
ag3343
ag3344
ag3345
ag3346
ag3347
ag3348
ag3349
ag3350
asg22
Nsg3335
g0
(g408
g2
Ntp3409
Rp3410
(dp3411
g21
I00
sg49
I01
sg23
I00
sg50
F3.163
sbsg3336
g0
(g408
g2
Ntp3412
Rp3413
(dp3414
g21
I00
sg49
I01
sg23
I00
sg50
F0.9698
sbsg3337
g0
(g1797
g62
(lp3415
F0.23
atp3416
Rp3417
(dp3418
g21
I00
sg49
I01
sg23
I00
sbsg3338
g0
(g1797
g62
(lp3419
I0
atp3420
Rp3421
(dp3422
g21
I00
sg49
I01
sg23
I00
sbsg3339
g0
(g75
g2
Ntp3423
Rp3424
(dp3425
g21
I00
sg49
I01
sg23
I00
sg50
I9
sbsg3340
g0
(g75
g2
Ntp3426
Rp3427
(dp3428
g21
I00
sg49
I01
sg23
I00
sg50
I0
sbsg3341
g0
(g1797
g62
(lp3429
F-0.38
aF2.0
aF7.6
aF39.6
atp3430
Rp3431
(dp3432
g21
I00
sg49
I01
sg23
I00
sbsg3342
g0
(g1797
g62
(lp3433
F0.912
aF0.916
aF0.92
aF0.922
atp3434
Rp3435
(dp3436
g21
I00
sg49
I01
sg23
I00
sbsg3343
g0
(g75
g2
Ntp3437
Rp3438
(dp3439
g21
I00
sg49
I01
sg23
I00
sg50
I125
sbsg3344
g0
(g75
g2
Ntp3440
Rp3441
(dp3442
g21
I00
sg49
I01
sg23
I00
sg50
I105
sbsg3345
g0
(g408
g2
Ntp3443
Rp3444
(dp3445
g21
I00
sg49
I01
sg23
I00
sg50
F0.3305
sbsg3346
g0
(g1797
g62
(lp3446
F0.0
atp3447
Rp3448
(dp3449
g21
I00
sg49
I01
sg23
I00
sbsg3347
g0
(g1797
g62
(lp3450
F0.0
atp3451
Rp3452
(dp3453
g21
I00
sg49
I01
sg23
I00
sbsg3348
g0
(g408
g2
Ntp3454
Rp3455
(dp3456
g21
I00
sg49
I01
sg23
I00
sg50
F0.0
sbsg3349
g0
(g408
g2
Ntp3457
Rp3458
(dp3459
g21
I00
sg49
I01
sg23
I00
sg50
F0.1
sbsg3350
g0
(g71
g2
Ntp3460
Rp3461
(dp3462
g21
I00
sg49
I01
sg23
I00
sg50
I00
sbsbsg3240
g0
(g359
g2
Ntp3463
Rp3464
(dp3465
g21
I00
sg49
I01
sg23
I00
sg19
(lp3466
g3335
ag3336
ag3337
ag3338
ag3339
ag3340
ag3341
ag3342
ag3343
ag3344
ag3345
ag3346
ag3347
ag3348
ag3349
ag3350
asg22
Nsg3335
g0
(g408
g2
Ntp3467
Rp3468
(dp3469
g21
I00
sg49
I01
sg23
I00
sg50
F9.354
sbsg3336
g0
(g408
g2
Ntp3470
Rp3471
(dp3472
g21
I00
sg49
I01
sg23
I00
sg50
F2.516
sbsg3337
g0
(g1797
g62
(lp3473
F0.14
aF0.135
atp3474
Rp3475
(dp3476
g21
I00
sg49
I01
sg23
I00
sbsg3338
g0
(g1797
g62
(lp3477
F0.0
aF0.0
atp3478
Rp3479
(dp3480
g21
I00
sg49
I01
sg23
I00
sbsg3339
g0
(g75
g2
Ntp3481
Rp3482
(dp3483
g21
I00
sg49
I01
sg23
I00
sg50
I-9999
sbsg3340
g0
(g75
g2
Ntp3484
Rp3485
(dp3486
g21
I00
sg49
I01
sg23
I00
sg50
I0
sbsg3341
g0
(g1797
g62
(lp3487
F-0.87
aF1.4
aF7.8
aF-29.6
atp3488
Rp3489
(dp3490
g21
I00
sg49
I01
sg23
I00
sbsg3342
g0
(g1797
g62
(lp3491
F0.359
aF0.358
aF0.36
aF0.367
atp3492
Rp3493
(dp3494
g21
I00
sg49
I01
sg23
I00
sbsg3343
g0
(g75
g2
Ntp3495
Rp3496
(dp3497
g21
I00
sg49
I01
sg23
I00
sg50
I301
sbsg3344
g0
(g75
g2
Ntp3498
Rp3499
(dp3500
g21
I00
sg49
I01
sg23
I00
sg50
I301
sbsg3345
g0
(g408
g2
Ntp3501
Rp3502
(dp3503
g21
I00
sg49
I01
sg23
I00
sg50
F0.0
sbsg3346
g0
(g1797
g62
(lp3504
F0.0
atp3505
Rp3506
(dp3507
g21
I00
sg49
I01
sg23
I00
sbsg3347
g0
(g1797
g62
(lp3508
F0.0
atp3509
Rp3510
(dp3511
g21
I00
sg49
I01
sg23
I00
sbsg3348
g0
(g408
g2
Ntp3512
Rp3513
(dp3514
g21
I00
sg49
I01
sg23
I00
sg50
F0.0
sbsg3349
g0
(g408
g2
Ntp3515
Rp3516
(dp3517
g21
I00
sg49
I01
sg23
I00
sg50
F0.1
sbsg3350
g0
(g71
g2
Ntp3518
Rp3519
(dp3520
g21
I00
sg49
I01
sg23
I00
sg50
I00
sbsbsg3241
g0
(g359
g2
Ntp3521
Rp3522
(dp3523
g21
I00
sg49
I01
sg23
I00
sg19
(lp3524
g3335
ag3336
ag3337
ag3338
ag3339
ag3340
ag3341
ag3342
ag3343
ag3344
ag3345
ag3346
ag3347
ag3348
ag3349
ag3350
asg22
Nsg3335
g0
(g408
g2
Ntp3525
Rp3526
(dp3527
g21
I00
sg49
I01
sg23
I00
sg50
F12.06
sbsg3336
g0
(g408
g2
Ntp3528
Rp3529
(dp3530
g21
I00
sg49
I01
sg23
I00
sg50
F0.6285
sbsg3337
g0
(g1797
g62
(lp3531
F0.006
aF0.0087
atp3532
Rp3533
(dp3534
g21
I00
sg49
I01
sg23
I00
sbsg3338
g0
(g1797
g62
(lp3535
F0.0
aF0.0
atp3536
Rp3537
(dp3538
g21
I00
sg49
I01
sg23
I00
sbsg3339
g0
(g75
g2
Ntp3539
Rp3540
(dp3541
g21
I00
sg49
I01
sg23
I00
sg50
I24
sbsg3340
g0
(g75
g2
Ntp3542
Rp3543
(dp3544
g21
I00
sg49
I01
sg23
I00
sg50
I0
sbsg3341
g0
(g1797
g62
(lp3545
F-0.44
aF1.4
aF7.1
aF38.5
atp3546
Rp3547
(dp3548
g21
I00
sg49
I01
sg23
I00
sbsg3342
g0
(g1797
g62
(lp3549
F0.907
aF0.915
aF0.92
aF0.921
atp3550
Rp3551
(dp3552
g21
I00
sg49
I01
sg23
I00
sbsg3343
g0
(g75
g2
Ntp3553
Rp3554
(dp3555
g21
I00
sg49
I01
sg23
I00
sg50
I201
sbsg3344
g0
(g75
g2
Ntp3556
Rp3557
(dp3558
g21
I00
sg49
I01
sg23
I00
sg50
I201
sbsg3345
g0
(g408
g2
Ntp3559
Rp3560
(dp3561
g21
I00
sg49
I01
sg23
I00
sg50
F4.0
sbsg3346
g0
(g1797
g62
(lp3562
F0.0
atp3563
Rp3564
(dp3565
g21
I00
sg49
I01
sg23
I00
sbsg3347
g0
(g1797
g62
(lp3566
F0.0
atp3567
Rp3568
(dp3569
g21
I00
sg49
I01
sg23
I00
sbsg3348
g0
(g408
g2
Ntp3570
Rp3571
(dp3572
g21
I00
sg49
I01
sg23
I00
sg50
F0.0
sbsg3349
g0
(g408
g2
Ntp3573
Rp3574
(dp3575
g21
I00
sg49
I01
sg23
I00
sg50
F0.1
sbsg3350
g0
(g71
g2
Ntp3576
Rp3577
(dp3578
g21
I00
sg49
I01
sg23
I00
sg50
I00
sbsbsg3242
g0
(g359
g2
Ntp3579
Rp3580
(dp3581
g21
I00
sg49
I01
sg23
I00
sg19
(lp3582
g3335
ag3336
ag3337
ag3338
ag3339
ag3340
ag3341
ag3342
ag3343
ag3344
ag3345
ag3346
ag3347
ag3348
ag3349
ag3350
aVradiationDamage
p3583
asg22
Nsg3335
g0
(g408
g2
Ntp3584
Rp3585
(dp3586
g21
I00
sg49
I01
sg23
I00
sg50
F17.3
sbsg3336
g0
(g408
g2
Ntp3587
Rp3588
(dp3589
g21
I00
sg49
I01
sg23
I00
sg50
F1.5
sbsg3337
g0
(g1797
g62
(lp3590
F0.0006252
atp3591
Rp3592
(dp3593
g21
I00
sg49
I01
sg23
I00
sbsg3338
g0
(g1797
g62
(lp3594
I0
atp3595
Rp3596
(dp3597
g21
I00
sg49
I01
sg23
I00
sbsg3339
g0
(g75
g2
Ntp3598
Rp3599
(dp3600
g21
I00
sg49
I01
sg23
I00
sg50
I16
sbsg3340
g0
(g75
g2
Ntp3601
Rp3602
(dp3603
g21
I00
sg49
I01
sg23
I00
sg50
I2
sbsg3341
g0
(g1797
g62
(lp3604
F0.0
aF0.0
aF0.0
aF0.0
atp3605
Rp3606
(dp3607
g21
I00
sg49
I01
sg23
I00
sbsg3342
g0
(g1797
g62
(lp3608
F0.05376
aF0.05376
aF0.05376
aF0.05376
atp3609
Rp3610
(dp3611
g21
I00
sg49
I01
sg23
I00
sbsg3343
g0
(g75
g2
Ntp3612
Rp3613
(dp3614
g21
I00
sg49
I01
sg23
I00
sg50
I206
sbsg3344
g0
(g75
g2
Ntp3615
Rp3616
(dp3617
g21
I00
sg49
I01
sg23
I00
sg50
I208
sbsg3345
g0
(g408
g2
Ntp3618
Rp3619
(dp3620
g21
I00
sg49
I01
sg23
I00
sg50
F40.0
sbsg3346
g0
(g1797
g62
(lp3621
F0.01
aF0.015
atp3622
Rp3623
(dp3624
g21
I00
sg49
I01
sg23
I00
sbsg3347
g0
(g1797
g62
(lp3625
F0.26
aF0.254
atp3626
Rp3627
(dp3628
g21
I00
sg49
I01
sg23
I00
sbsg3348
g0
(g408
g2
Ntp3629
Rp3630
(dp3631
g21
I00
sg49
I01
sg23
I00
sg50
F0.0
sbsg3349
g0
(g408
g2
Ntp3632
Rp3633
(dp3634
g21
I00
sg49
I01
sg23
I00
sg50
F0.1
sbsg3350
g0
(g71
g2
Ntp3635
Rp3636
(dp3637
g21
I00
sg49
I01
sg23
I00
sg50
I01
sbsg3583
g0
(g359
g2
Ntp3638
Rp3639
(dp3640
g21
I00
sg49
I01
sg23
I00
sg19
(lp3641
VtemperatureBase
p3642
aVtemperatureNew
p3643
aVintlumiOffset
p3644
aVdepVsTemp
p3645
aVintlumiToNeutrons
p3646
aVdepVsNeutrons
p3647
asg22
Nsg3642
g0
(g408
g2
Ntp3648
Rp3649
(dp3650
g21
I00
sg49
I01
sg23
I00
sg50
I20
sbsg3643
g0
(g408
g2
Ntp3651
Rp3652
(dp3653
g21
I00
sg49
I01
sg23
I00
sg50
I-5
sbsg3644
g0
(g408
g2
Ntp3654
Rp3655
(dp3656
g21
I00
sg49
I01
sg23
I00
sg50
I150
sbsg3645
g0
(g408
g2
Ntp3657
Rp3658
(dp3659
g21
I00
sg49
I01
sg23
I00
sg50
F0.0631
sbsg3646
g0
(g408
g2
Ntp3660
Rp3661
(dp3662
g21
I00
sg49
I01
sg23
I00
sg50
F367000000.0
sbsg3647
g0
(g1797
g62
(lp3663
F5.543e-10
aF8.012e-10
atp3664
Rp3665
(dp3666
g21
I00
sg49
I01
sg23
I00
sbsbsbsg3243
g0
(g359
g2
Ntp3667
Rp3668
(dp3669
g21
I00
sg49
I01
sg23
I00
sg19
(lp3670
g3335
ag3336
ag3337
ag3338
ag3339
ag3340
ag3341
ag3342
ag3343
ag3344
ag3345
ag3346
ag3347
ag3348
ag3349
ag3350
ag3583
asg22
Nsg3335
g0
(g408
g2
Ntp3671
Rp3672
(dp3673
g21
I00
sg49
I01
sg23
I00
sg50
F17.3
sbsg3336
g0
(g408
g2
Ntp3674
Rp3675
(dp3676
g21
I00
sg49
I01
sg23
I00
sg50
F1.5
sbsg3337
g0
(g1797
g62
(lp3677
F0.0006252
atp3678
Rp3679
(dp3680
g21
I00
sg49
I01
sg23
I00
sbsg3338
g0
(g1797
g62
(lp3681
I0
atp3682
Rp3683
(dp3684
g21
I00
sg49
I01
sg23
I00
sbsg3339
g0
(g75
g2
Ntp3685
Rp3686
(dp3687
g21
I00
sg49
I01
sg23
I00
sg50
I16
sbsg3340
g0
(g75
g2
Ntp3688
Rp3689
(dp3690
g21
I00
sg49
I01
sg23
I00
sg50
I2
sbsg3341
g0
(g1797
g62
(lp3691
F0.0
aF0.0
aF0.0
aF0.0
atp3692
Rp3693
(dp3694
g21
I00
sg49
I01
sg23
I00
sbsg3342
g0
(g1797
g62
(lp3695
F0.05376
aF0.05376
aF0.05376
aF0.05376
atp3696
Rp3697
(dp3698
g21
I00
sg49
I01
sg23
I00
sbsg3343
g0
(g75
g2
Ntp3699
Rp3700
(dp3701
g21
I00
sg49
I01
sg23
I00
sg50
I206
sbsg3344
g0
(g75
g2
Ntp3702
Rp3703
(dp3704
g21
I00
sg49
I01
sg23
I00
sg50
I208
sbsg3345
g0
(g408
g2
Ntp3705
Rp3706
(dp3707
g21
I00
sg49
I01
sg23
I00
sg50
F40.0
sbsg3346
g0
(g1797
g62
(lp3708
F0.01
aF0.015
atp3709
Rp3710
(dp3711
g21
I00
sg49
I01
sg23
I00
sbsg3347
g0
(g1797
g62
(lp3712
F0.26
aF0.254
atp3713
Rp3714
(dp3715
g21
I00
sg49
I01
sg23
I00
sbsg3348
g0
(g408
g2
Ntp3716
Rp3717
(dp3718
g21
I00
sg49
I01
sg23
I00
sg50
F0.0
sbsg3349
g0
(g408
g2
Ntp3719
Rp3720
(dp3721
g21
I00
sg49
I01
sg23
I00
sg50
F0.1
sbsg3350
g0
(g71
g2
Ntp3722
Rp3723
(dp3724
g21
I00
sg49
I01
sg23
I00
sg50
I01
sbsg3583
g0
(g359
g2
Ntp3725
Rp3726
(dp3727
g21
I00
sg49
I01
sg23
I00
sg19
(lp3728
g3642
ag3643
ag3644
ag3645
ag3646
ag3647
asg22
Nsg3642
g0
(g408
g2
Ntp3729
Rp3730
(dp3731
g21
I00
sg49
I01
sg23
I00
sg50
I20
sbsg3643
g0
(g408
g2
Ntp3732
Rp3733
(dp3734
g21
I00
sg49
I01
sg23
I00
sg50
I5
sbsg3644
g0
(g408
g2
Ntp3735
Rp3736
(dp3737
g21
I00
sg49
I01
sg23
I00
sg50
I75
sbsg3645
g0
(g408
g2
Ntp3738
Rp3739
(dp3740
g21
I00
sg49
I01
sg23
I00
sg50
F0.0631
sbsg3646
g0
(g408
g2
Ntp3741
Rp3742
(dp3743
g21
I00
sg49
I01
sg23
I00
sg50
F29200000.0
sbsg3647
g0
(g1797
g62
(lp3744
F5.543e-10
aF8.012e-10
atp3745
Rp3746
(dp3747
g21
I00
sg49
I01
sg23
I00
sbsbsbsg3244
g0
(g359
g2
Ntp3748
Rp3749
(dp3750
g21
I00
sg49
I01
sg23
I00
sg19
(lp3751
g3335
ag3336
ag3337
ag3338
ag3339
ag3340
ag3341
ag3342
ag3343
ag3344
ag3345
ag3346
ag3347
ag3348
ag3349
ag3350
asg22
Nsg3335
g0
(g408
g2
Ntp3752
Rp3753
(dp3754
g21
I00
sg49
I01
sg23
I00
sg50
F13.33
sbsg3336
g0
(g408
g2
Ntp3755
Rp3756
(dp3757
g21
I00
sg49
I01
sg23
I00
sg50
F3.33
sbsg3337
g0
(g1797
g62
(lp3758
F0.14
aF0.135
atp3759
Rp3760
(dp3761
g21
I00
sg49
I01
sg23
I00
sbsg3338
g0
(g1797
g62
(lp3762
F0.0
aF0.0
atp3763
Rp3764
(dp3765
g21
I00
sg49
I01
sg23
I00
sbsg3339
g0
(g75
g2
Ntp3766
Rp3767
(dp3768
g21
I00
sg49
I01
sg23
I00
sg50
I-9999
sbsg3340
g0
(g75
g2
Ntp3769
Rp3770
(dp3771
g21
I00
sg49
I01
sg23
I00
sg50
I1
sbsg3341
g0
(g1797
g62
(lp3772
F0.0697
aF-0.7405
aF12.38
aF-671.9
atp3773
Rp3774
(dp3775
g21
I00
sg49
I01
sg23
I00
sbsg3342
g0
(g1797
g62
(lp3776
F0.297
aF0.298
aF0.298
aF0.313
atp3777
Rp3778
(dp3779
g21
I00
sg49
I01
sg23
I00
sbsg3343
g0
(g75
g2
Ntp3780
Rp3781
(dp3782
g21
I00
sg49
I01
sg23
I00
sg50
I301
sbsg3344
g0
(g75
g2
Ntp3783
Rp3784
(dp3785
g21
I00
sg49
I01
sg23
I00
sg50
I301
sbsg3345
g0
(g408
g2
Ntp3786
Rp3787
(dp3788
g21
I00
sg49
I01
sg23
I00
sg50
F0.0
sbsg3346
g0
(g1797
g62
(lp3789
F0.0
atp3790
Rp3791
(dp3792
g21
I00
sg49
I01
sg23
I00
sbsg3347
g0
(g1797
g62
(lp3793
F0.0
atp3794
Rp3795
(dp3796
g21
I00
sg49
I01
sg23
I00
sbsg3348
g0
(g408
g2
Ntp3797
Rp3798
(dp3799
g21
I00
sg49
I01
sg23
I00
sg50
F0.0
sbsg3349
g0
(g408
g2
Ntp3800
Rp3801
(dp3802
g21
I00
sg49
I01
sg23
I00
sg50
F0.1
sbsg3350
g0
(g71
g2
Ntp3803
Rp3804
(dp3805
g21
I00
sg49
I01
sg23
I00
sg50
I00
sbsbsg3245
g0
(g3016
g62
(lp3806
g0
(g359
g2
Ntp3807
Rp3808
(dp3809
g21
I00
sg49
I01
sg23
I00
sg19
(lp3810
Vpixels
p3811
aVcrosstalk
p3812
aVnonlin1
p3813
aVnonlin2
p3814
aVnonlin3
p3815
asg22
Nsg3811
g0
(g75
g2
Ntp3816
Rp3817
(dp3818
g21
I00
sg49
I01
sg23
I00
sg50
I36000
sbsg3812
g0
(g408
g2
Ntp3819
Rp3820
(dp3821
g21
I00
sg49
I01
sg23
I00
sg50
F0.0
sbsg3813
g0
(g408
g2
Ntp3822
Rp3823
(dp3824
g21
I00
sg49
I01
sg23
I00
sg50
F1.0
sbsg3814
g0
(g408
g2
Ntp3825
Rp3826
(dp3827
g21
I00
sg49
I01
sg23
I00
sg50
F0.0
sbsg3815
g0
(g408
g2
Ntp3828
Rp3829
(dp3830
g21
I00
sg49
I01
sg23
I00
sg50
F0.0
sbsbag0
(g359
g2
Ntp3831
Rp3832
(dp3833
g21
I00
sg49
I01
sg23
I00
sg19
(lp3834
g3811
ag3812
ag3813
ag3814
ag3815
asg22
Nsg3811
g0
(g75
g2
Ntp3835
Rp3836
(dp3837
g21
I00
sg49
I01
sg23
I00
sg50
I2500
sbsg3812
g0
(g408
g2
Ntp3838
Rp3839
(dp3840
g21
I00
sg49
I01
sg23
I00
sg50
F0.0
sbsg3813
g0
(g408
g2
Ntp3841
Rp3842
(dp3843
g21
I00
sg49
I01
sg23
I00
sg50
F1.0
sbsg3814
g0
(g408
g2
Ntp3844
Rp3845
(dp3846
g21
I00
sg49
I01
sg23
I00
sg50
F0.0
sbsg3815
g0
(g408
g2
Ntp3847
Rp3848
(dp3849
g21
I00
sg49
I01
sg23
I00
sg50
F0.0
sbsbag0
(g359
g2
Ntp3850
Rp3851
(dp3852
g21
I00
sg49
I01
sg23
I00
sg19
(lp3853
g3811
ag3812
ag3813
ag3814
ag3815
asg22
Nsg3811
g0
(g75
g2
Ntp3854
Rp3855
(dp3856
g21
I00
sg49
I01
sg23
I00
sg50
I27370
sbsg3812
g0
(g408
g2
Ntp3857
Rp3858
(dp3859
g21
I00
sg49
I01
sg23
I00
sg50
F0.17
sbsg3813
g0
(g408
g2
Ntp3860
Rp3861
(dp3862
g21
I00
sg49
I01
sg23
I00
sg50
F1.00985
sbsg3814
g0
(g408
g2
Ntp3863
Rp3864
(dp3865
g21
I00
sg49
I01
sg23
I00
sg50
F7.84089e-06
sbsg3815
g0
(g408
g2
Ntp3866
Rp3867
(dp3868
g21
I00
sg49
I01
sg23
I00
sg50
F2.86282e-10
sbsbag0
(g359
g2
Ntp3869
Rp3870
(dp3871
g21
I00
sg49
I01
sg23
I00
sg19
(lp3872
g3811
ag3812
ag3813
ag3814
ag3815
asg22
Nsg3811
g0
(g75
g2
Ntp3873
Rp3874
(dp3875
g21
I00
sg49
I01
sg23
I00
sg50
I38018
sbsg3812
g0
(g408
g2
Ntp3876
Rp3877
(dp3878
g21
I00
sg49
I01
sg23
I00
sg50
F0.196
sbsg3813
g0
(g408
g2
Ntp3879
Rp3880
(dp3881
g21
I00
sg49
I01
sg23
I00
sg50
F1.00546
sbsg3814
g0
(g408
g2
Ntp3882
Rp3883
(dp3884
g21
I00
sg49
I01
sg23
I00
sg50
F6.40239e-06
sbsg3815
g0
(g408
g2
Ntp3885
Rp3886
(dp3887
g21
I00
sg49
I01
sg23
I00
sg50
F1.27011e-10
sbsbag0
(g359
g2
Ntp3888
Rp3889
(dp3890
g21
I00
sg49
I01
sg23
I00
sg19
(lp3891
g3811
ag3812
ag3813
ag3814
ag3815
asg22
Nsg3811
g0
(g75
g2
Ntp3892
Rp3893
(dp3894
g21
I00
sg49
I01
sg23
I00
sg50
I27370
sbsg3812
g0
(g408
g2
Ntp3895
Rp3896
(dp3897
g21
I00
sg49
I01
sg23
I00
sg50
F0.17
sbsg3813
g0
(g408
g2
Ntp3898
Rp3899
(dp3900
g21
I00
sg49
I01
sg23
I00
sg50
F1.00985
sbsg3814
g0
(g408
g2
Ntp3901
Rp3902
(dp3903
g21
I00
sg49
I01
sg23
I00
sg50
F7.84089e-06
sbsg3815
g0
(g408
g2
Ntp3904
Rp3905
(dp3906
g21
I00
sg49
I01
sg23
I00
sg50
F2.86282e-10
sbsbag0
(g359
g2
Ntp3907
Rp3908
(dp3909
g21
I00
sg49
I01
sg23
I00
sg19
(lp3910
g3811
ag3812
ag3813
ag3814
ag3815
asg22
Nsg3811
g0
(g75
g2
Ntp3911
Rp3912
(dp3913
g21
I00
sg49
I01
sg23
I00
sg50
I38018
sbsg3812
g0
(g408
g2
Ntp3914
Rp3915
(dp3916
g21
I00
sg49
I01
sg23
I00
sg50
F0.196
sbsg3813
g0
(g408
g2
Ntp3917
Rp3918
(dp3919
g21
I00
sg49
I01
sg23
I00
sg50
F1.00546
sbsg3814
g0
(g408
g2
Ntp3920
Rp3921
(dp3922
g21
I00
sg49
I01
sg23
I00
sg50
F6.40239e-06
sbsg3815
g0
(g408
g2
Ntp3923
Rp3924
(dp3925
g21
I00
sg49
I01
sg23
I00
sg50
F1.27011e-10
sbsbag0
(g359
g2
Ntp3926
Rp3927
(dp3928
g21
I00
sg49
I01
sg23
I00
sg19
(lp3929
g3811
ag3812
ag3813
ag3814
ag3815
asg22
Nsg3811
g0
(g75
g2
Ntp3930
Rp3931
(dp3932
g21
I00
sg49
I01
sg23
I00
sg50
I0
sbsg3812
g0
(g408
g2
Ntp3933
Rp3934
(dp3935
g21
I00
sg49
I01
sg23
I00
sg50
F0.0
sbsg3813
g0
(g408
g2
Ntp3936
Rp3937
(dp3938
g21
I00
sg49
I01
sg23
I00
sg50
F1.0
sbsg3814
g0
(g408
g2
Ntp3939
Rp3940
(dp3941
g21
I00
sg49
I01
sg23
I00
sg50
F0.0
sbsg3815
g0
(g408
g2
Ntp3942
Rp3943
(dp3944
g21
I00
sg49
I01
sg23
I00
sg50
F0.0
sbsbatp3945
Rp3946
(dp3947
g21
I00
sg49
I01
sg23
I00
sg887
I1
sbsg24
V/cvmfs/cms.cern.ch/slc7_amd64_gcc12/cms/cmssw-patch/CMSSW_14_0_5_patch1/src/CalibCalorimetry/HcalPlugins/python/Hcal_Conditions_forGlobalTag_cff.py
p3948
sg26
I16
sg27
g3213
sbssV_Process__esproducers
p3949
(dp3950
VCSCGeometryESModule
p3951
g0
(cFWCore.ParameterSet.Modules
ESProducer
p3952
g2
Ntp3953
Rp3954
(dp3955
g17
g3951
sg19
(lp3956
VfromDDD
p3957
aVfromDD4hep
p3958
aValignmentsLabel
p3959
ag3048
aVuseRealWireGeometry
p3960
aVuseOnlyWiresInME1a
p3961
aVuseGangedStripsInME1a
p3962
aVuseCentreTIOffsets
p3963
aVapplyAlignment
p3964
aVdebugV
p3965
asg21
I00
sg22
Nsg3957
g0
(g71
g2
Ntp3966
Rp3967
(dp3968
g21
I00
sg49
I01
sg23
I00
sg50
I00
sbsg23
I00
sg3958
g0
(g71
g2
Ntp3969
Rp3970
(dp3971
g21
I00
sg49
I01
sg23
I00
sg50
I00
sbsg3959
g0
(g45
g2
Ntp3972
Rp3973
(dp3974
g21
I00
sg49
I01
sg23
I00
sg50
g59
sbsg3048
g0
(g45
g2
Ntp3975
Rp3976
(dp3977
g21
I00
sg49
I01
sg23
I00
sg50
g59
sbsg3960
g0
(g71
g2
Ntp3978
Rp3979
(dp3980
g21
I00
sg49
I01
sg23
I00
sg50
I01
sbsg3961
g0
(g71
g2
Ntp3981
Rp3982
(dp3983
g21
I00
sg49
I01
sg23
I00
sg50
I00
sbsg3962
g0
(g71
g2
Ntp3984
Rp3985
(dp3986
g21
I00
sg49
I01
sg23
I00
sg50
I01
sbsg3963
g0
(g71
g2
Ntp3987
Rp3988
(dp3989
g21
I00
sg49
I01
sg23
I00
sg50
I00
sbsg3964
g0
(g71
g2
Ntp3990
Rp3991
(dp3992
g21
I00
sg49
I01
sg23
I00
sg50
I01
sbsg3965
g0
(g71
g2
Ntp3993
Rp3994
(dp3995
g21
I00
sg49
I00
sg23
I00
sg50
I00
sbsg24
g1743
sg26
I55
sg27
g3951
sbsVCaloGeometryBuilder
p3996
g0
(g3952
g2
Ntp3997
Rp3998
(dp3999
g17
g3996
sg19
(lp4000
VSelectedCalos
p4001
asg21
I00
sg22
Nsg4001
g0
(g429
g62
(lp4002
VHCAL
p4003
aVZDC
p4004
aVCASTOR
p4005
aVEcalBarrel
p4006
aVEcalEndcap
p4007
aVEcalPreshower
p4008
aVTOWER
p4009
atp4010
Rp4011
(dp4012
g21
I00
sg49
I01
sg23
I00
sg887
I1
sbsg23
I00
sg24
g1743
sg26
I55
sg27
g3996
sbsVCaloTopologyBuilder
p4013
g0
(g3952
g2
Ntp4014
Rp4015
(dp4016
g17
g4013
sg19
(lp4017
sg21
I00
sg22
Nsg23
I00
sg24
g1743
sg26
I55
sg27
g4013
sbsVCaloTowerGeometryFromDBEP
p4018
g0
(g3952
g2
Ntp4019
Rp4020
(dp4021
g17
g4018
sg19
(lp4022
g3964
asg21
I00
sg22
Nsg3964
g0
(g71
g2
Ntp4023
Rp4024
(dp4025
g21
I00
sg49
I01
sg23
I00
sg50
I00
sbsg23
I00
sg24
g1743
sg26
I55
sg27
g4018
sbsVCaloTowerTopologyEP
p4026
g0
(g3952
g2
Ntp4027
Rp4028
(dp4029
g17
g4026
sg19
(lp4030
sg21
I00
sg22
Nsg23
I00
sg24
g1743
sg26
I55
sg27
g4026
sbsVCastorGeometryFromDBEP
p4031
g0
(g3952
g2
Ntp4032
Rp4033
(dp4034
g17
g4031
sg19
(lp4035
g3964
asg21
I00
sg22
Nsg3964
g0
(g71
g2
Ntp4036
Rp4037
(dp4038
g21
I00
sg49
I01
sg23
I00
sg50
I00
sbsg23
I00
sg24
g1743
sg26
I55
sg27
g4031
sbsVDTGeometryESModule
p4039
g0
(g3952
g2
Ntp4040
Rp4041
(dp4042
g17
g4039
sg19
(lp4043
g3957
ag3958
aVDDDetector
p4044
ag3959
ag3048
aVattribute
p4045
aVvalue
p4046
ag3964
asg21
I00
sg22
Nsg3957
g0
(g71
g2
Ntp4047
Rp4048
(dp4049
g21
I00
sg49
I01
sg23
I01
sg50
I00
sbsg23
I01
sg3958
g0
(g71
g2
Ntp4050
Rp4051
(dp4052
g21
I00
sg49
I01
sg23
I00
sg50
I00
sbsg4044
g0
(cFWCore.ParameterSet.Types
ESInputTag
p4053
g2
Ntp4054
Rp4055
(dp4056
g21
I00
sg49
I01
sg23
I00
sV_ESInputTag__moduleLabel
p4057
g59
sV_ESInputTag__data
p4058
g59
sbsg3959
g0
(g45
g2
Ntp4059
Rp4060
(dp4061
g21
I00
sg49
I01
sg23
I00
sg50
g59
sbsg3048
g0
(g45
g2
Ntp4062
Rp4063
(dp4064
g21
I00
sg49
I01
sg23
I00
sg50
g59
sbsg4045
g0
(g45
g2
Ntp4065
Rp4066
(dp4067
g21
I00
sg49
I01
sg23
I00
sg50
VMuStructure
p4068
sbsg4046
g0
(g45
g2
Ntp4069
Rp4070
(dp4071
g21
I00
sg49
I01
sg23
I00
sg50
VMuonBarrelDT
p4072
sbsg3964
g0
(g71
g2
Ntp4073
Rp4074
(dp4075
g21
I00
sg49
I01
sg23
I00
sg50
I01
sbsg24
g1743
sg26
I55
sg27
g4039
sbsVEcalBarrelGeometryFromDBEP
p4076
g0
(g3952
g2
Ntp4077
Rp4078
(dp4079
g17
g4076
sg19
(lp4080
g3964
asg21
I00
sg22
Nsg3964
g0
(g71
g2
Ntp4081
Rp4082
(dp4083
g21
I00
sg49
I01
sg23
I01
sg50
I01
sbsg23
I01
sg24
g1743
sg26
I55
sg27
g4076
sbsVEcalElectronicsMappingBuilder
p4084
g0
(g3952
g2
Ntp4085
Rp4086
(dp4087
g17
g4084
sg19
(lp4088
sg21
I00
sg22
Nsg23
I00
sg24
g1743
sg26
I55
sg27
g4084
sbsVEcalEndcapGeometryFromDBEP
p4089
g0
(g3952
g2
Ntp4090
Rp4091
(dp4092
g17
g4089
sg19
(lp4093
g3964
asg21
I00
sg22
Nsg3964
g0
(g71
g2
Ntp4094
Rp4095
(dp4096
g21
I00
sg49
I01
sg23
I01
sg50
I01
sbsg23
I01
sg24
g1743
sg26
I55
sg27
g4089
sbsVEcalPreshowerGeometryFromDBEP
p4097
g0
(g3952
g2
Ntp4098
Rp4099
(dp4100
g17
g4097
sg19
(lp4101
g3964
asg21
I00
sg22
Nsg3964
g0
(g71
g2
Ntp4102
Rp4103
(dp4104
g21
I00
sg49
I01
sg23
I01
sg50
I01
sbsg23
I01
sg24
g1743
sg26
I55
sg27
g4097
sbsVEcalTrigTowerConstituentsMapBuilder
p4105
g0
(g3952
g2
Ntp4106
Rp4107
(dp4108
g17
g4105
sg19
(lp4109
VMapFile
p4110
asg21
I00
sg22
Nsg4110
g0
(g45
g2
Ntp4111
Rp4112
(dp4113
g21
I00
sg49
I00
sg23
I00
sg50
VGeometry/EcalMapping/data/EndCap_TTMap.txt
p4114
sbsg23
I00
sg24
g1743
sg26
I55
sg27
g4105
sbsVGlobalTrackingGeometryESProducer
p4115
g0
(g3952
g2
Ntp4116
Rp4117
(dp4118
g17
g4115
sg19
(lp4119
sg21
I00
sg22
Nsg23
I00
sg24
g1743
sg26
I55
sg27
g4115
sbsVHcalAlignmentEP
p4120
g0
(g3952
g2
Ntp4121
Rp4122
(dp4123
g17
g4120
sg19
(lp4124
sg21
I00
sg22
Nsg23
I00
sg24
g1743
sg26
I55
sg27
g4120
sbsVHcalGeometryFromDBEP
p4125
g0
(g3952
g2
Ntp4126
Rp4127
(dp4128
g17
g4125
sg19
(lp4129
g3964
asg21
I00
sg22
Nsg3964
g0
(g71
g2
Ntp4130
Rp4131
(dp4132
g21
I00
sg49
I01
sg23
I01
sg50
I01
sbsg23
I01
sg24
g1743
sg26
I55
sg27
g4125
sbsVMuonDetLayerGeometryESProducer
p4133
g0
(g3952
g2
Ntp4134
Rp4135
(dp4136
g17
g4133
sg19
(lp4137
sg21
I00
sg22
Nsg23
I00
sg24
g1743
sg26
I55
sg27
g4133
sbsVRPCGeometryESModule
p4138
g0
(g3952
g2
Ntp4139
Rp4140
(dp4141
g17
g4138
sg19
(lp4142
g3957
ag3958
asg21
I00
sg22
Nsg3957
g0
(g71
g2
Ntp4143
Rp4144
(dp4145
g21
I00
sg49
I00
sg23
I00
sg50
I00
sbsg23
I00
sg3958
g0
(g71
g2
Ntp4146
Rp4147
(dp4148
g21
I00
sg49
I00
sg23
I00
sg50
I00
sbsg24
g1743
sg26
I55
sg27
g4138
sbsVTrackerRecoGeometryESProducer
p4149
g0
(g3952
g2
Ntp4150
Rp4151
(dp4152
g17
g4149
sg19
(lp4153
VusePhase2Stacks
p4154
asg21
I00
sg22
Nsg4154
g0
(g71
g2
Ntp4155
Rp4156
(dp4157
g21
I00
sg49
I01
sg23
I00
sg50
I00
sbsg23
I00
sg24
g1743
sg26
I55
sg27
g4149
sbsVZdcGeometryFromDBEP
p4158
g0
(g3952
g2
Ntp4159
Rp4160
(dp4161
g17
g4158
sg19
(lp4162
g3964
asg21
I00
sg22
Nsg3964
g0
(g71
g2
Ntp4163
Rp4164
(dp4165
g21
I00
sg49
I01
sg23
I00
sg50
I00
sbsg23
I00
sg24
g1743
sg26
I55
sg27
g4158
sbsVfakeForIdealAlignment
p4166
g0
(g3952
g2
Ntp4167
Rp4168
(dp4169
g17
VFakeAlignmentProducer
p4170
sg19
(lp4171
g3048
asg21
I00
sg22
Nsg3048
g0
(g45
g2
Ntp4172
Rp4173
(dp4174
g21
I00
sg49
I01
sg23
I01
sg50
VfakeForIdeal
p4175
sbsg23
I01
sg24
V/cvmfs/cms.cern.ch/slc7_amd64_gcc12/cms/cmssw-patch/CMSSW_14_0_5_patch1/src/Alignment/CommonAlignmentProducer/python/fakeForIdealAlignmentProducer_cfi.py
p4176
sg26
I5
sg27
g4166
sbsVhcalDDDRecConstants
p4177
g0
(g3952
g2
Ntp4178
Rp4179
(dp4180
g17
VHcalDDDRecConstantsESModule
p4181
sg19
(lp4182
g3048
asg21
I00
sg22
Nsg3048
g0
(g45
g2
Ntp4183
Rp4184
(dp4185
g21
I00
sg49
I01
sg23
I00
sg50
g59
sbsg23
I00
sg24
g1743
sg26
I55
sg27
g4177
sbsVhcalDDDSimConstants
p4186
g0
(g3952
g2
Ntp4187
Rp4188
(dp4189
g17
VHcalDDDSimConstantsESModule
p4190
sg19
(lp4191
g3048
asg21
I00
sg22
Nsg3048
g0
(g45
g2
Ntp4192
Rp4193
(dp4194
g21
I00
sg49
I01
sg23
I00
sg50
g59
sbsg23
I00
sg24
g1743
sg26
I55
sg27
g4186
sbsVhcalTopologyIdeal
p4195
g0
(g3952
g2
Ntp4196
Rp4197
(dp4198
g17
VHcalTopologyIdealEP
p4199
sg19
(lp4200
VExclude
p4201
aVMergePosition
p4202
ag3048
asg21
I00
sg22
Nsg4201
g0
(g45
g2
Ntp4203
Rp4204
(dp4205
g21
I00
sg49
I00
sg23
I00
sg50
g59
sbsg23
I00
sg4202
g0
(g71
g2
Ntp4206
Rp4207
(dp4208
g21
I00
sg49
I00
sg23
I00
sg50
I00
sbsg3048
g0
(g45
g2
Ntp4209
Rp4210
(dp4211
g21
I00
sg49
I01
sg23
I00
sg50
g59
sbsg24
g1743
sg26
I55
sg27
g4195
sbsVidealForDigiCSCGeometry
p4212
g0
(g3952
g2
Ntp4213
Rp4214
(dp4215
g17
g3951
sg19
(lp4216
g3957
ag3958
ag3959
ag3048
ag3960
ag3961
ag3962
ag3963
ag3964
ag3965
asg21
I00
sg22
Nsg3957
g0
(g71
g2
Ntp4217
Rp4218
(dp4219
g21
I00
sg49
I01
sg23
I00
sg50
I00
sbsg23
I01
sg3958
g0
(g71
g2
Ntp4220
Rp4221
(dp4222
g21
I00
sg49
I01
sg23
I00
sg50
I00
sbsg3959
g0
(g45
g2
Ntp4223
Rp4224
(dp4225
g21
I00
sg49
I01
sg23
I01
sg50
g4175
sbsg3048
g0
(g45
g2
Ntp4226
Rp4227
(dp4228
g21
I00
sg49
I01
sg23
I01
sg50
VidealForDigi
p4229
sbsg3960
g0
(g71
g2
Ntp4230
Rp4231
(dp4232
g21
I00
sg49
I01
sg23
I00
sg50
I01
sbsg3961
g0
(g71
g2
Ntp4233
Rp4234
(dp4235
g21
I00
sg49
I01
sg23
I00
sg50
I00
sbsg3962
g0
(g71
g2
Ntp4236
Rp4237
(dp4238
g21
I00
sg49
I01
sg23
I00
sg50
I01
sbsg3963
g0
(g71
g2
Ntp4239
Rp4240
(dp4241
g21
I00
sg49
I01
sg23
I00
sg50
I00
sbsg3964
g0
(g71
g2
Ntp4242
Rp4243
(dp4244
g21
I00
sg49
I01
sg23
I01
sg50
I00
sbsg3965
g0
(g71
g2
Ntp4245
Rp4246
(dp4247
g21
I00
sg49
I00
sg23
I00
sg50
I00
sbsg24
V/cvmfs/cms.cern.ch/slc7_amd64_gcc12/cms/cmssw-patch/CMSSW_14_0_5_patch1/src/Geometry/CSCGeometryBuilder/python/idealForDigiCscGeometryDB_cff.py
p4248
sg26
I8
sg27
g4212
sbsVidealForDigiDTGeometry
p4249
g0
(g3952
g2
Ntp4250
Rp4251
(dp4252
g17
g4039
sg19
(lp4253
g3957
ag3958
ag4044
ag3959
ag3048
ag4045
ag4046
ag3964
asg21
I00
sg22
Nsg3957
g0
(g71
g2
Ntp4254
Rp4255
(dp4256
g21
I00
sg49
I01
sg23
I01
sg50
I00
sbsg23
I01
sg3958
g0
(g71
g2
Ntp4257
Rp4258
(dp4259
g21
I00
sg49
I01
sg23
I00
sg50
I00
sbsg4044
g0
(g4053
g2
Ntp4260
Rp4261
(dp4262
g21
I00
sg49
I01
sg23
I00
sg4057
g59
sg4058
g59
sbsg3959
g0
(g45
g2
Ntp4263
Rp4264
(dp4265
g21
I00
sg49
I01
sg23
I01
sg50
g4175
sbsg3048
g0
(g45
g2
Ntp4266
Rp4267
(dp4268
g21
I00
sg49
I01
sg23
I01
sg50
g4229
sbsg4045
g0
(g45
g2
Ntp4269
Rp4270
(dp4271
g21
I00
sg49
I01
sg23
I00
sg50
g4068
sbsg4046
g0
(g45
g2
Ntp4272
Rp4273
(dp4274
g21
I00
sg49
I01
sg23
I00
sg50
g4072
sbsg3964
g0
(g71
g2
Ntp4275
Rp4276
(dp4277
g21
I00
sg49
I01
sg23
I01
sg50
I00
sbsg24
V/cvmfs/cms.cern.ch/slc7_amd64_gcc12/cms/cmssw-patch/CMSSW_14_0_5_patch1/src/Geometry/DTGeometryBuilder/python/idealForDigiDtGeometryDB_cff.py
p4278
sg26
I8
sg27
g4249
sbsVidealForDigiTrackerGeometry
p4279
g0
(g3952
g2
Ntp4280
Rp4281
(dp4282
g17
VTrackerDigiGeometryESModule
p4283
sg19
(lp4284
g3048
ag3957
ag3964
ag3959
asg21
I00
sg22
Nsg3048
g0
(g45
g2
Ntp4285
Rp4286
(dp4287
g21
I00
sg49
I01
sg23
I01
sg50
g4229
sbsg23
I01
sg3957
g0
(g71
g2
Ntp4288
Rp4289
(dp4290
g21
I00
sg49
I01
sg23
I00
sg50
I00
sbsg3964
g0
(g71
g2
Ntp4291
Rp4292
(dp4293
g21
I00
sg49
I01
sg23
I01
sg50
I00
sbsg3959
g0
(g45
g2
Ntp4294
Rp4295
(dp4296
g21
I00
sg49
I01
sg23
I01
sg50
g4175
sbsg24
V/cvmfs/cms.cern.ch/slc7_amd64_gcc12/cms/cmssw-patch/CMSSW_14_0_5_patch1/src/Geometry/TrackerGeometryBuilder/python/idealForDigiTrackerGeometryDB_cff.py
p4297
sg26
I8
sg27
g4279
sbsVmuonGeometryConstants
p4298
g0
(g3952
g2
Ntp4299
Rp4300
(dp4301
g17
VMuonGeometryConstantsESModule
p4302
sg19
(lp4303
g3958
ag3048
asg21
I00
sg22
Nsg3958
g0
(g71
g2
Ntp4304
Rp4305
(dp4306
g21
I00
sg49
I01
sg23
I00
sg50
I00
sbsg23
I00
sg3048
g0
(g45
g2
Ntp4307
Rp4308
(dp4309
g21
I00
sg49
I01
sg23
I00
sg50
g59
sbsg24
g1743
sg26
I55
sg27
g4298
sbsVtrackerGeometryDB
p4310
g0
(g3952
g2
Ntp4311
Rp4312
(dp4313
g17
g4283
sg19
(lp4314
g3048
ag3957
ag3964
ag3959
asg21
I00
sg22
Nsg3048
g0
(g45
g2
Ntp4315
Rp4316
(dp4317
g21
I00
sg49
I01
sg23
I00
sg50
g59
sbsg23
I00
sg3957
g0
(g71
g2
Ntp4318
Rp4319
(dp4320
g21
I00
sg49
I01
sg23
I00
sg50
I00
sbsg3964
g0
(g71
g2
Ntp4321
Rp4322
(dp4323
g21
I00
sg49
I01
sg23
I00
sg50
I01
sbsg3959
g0
(g45
g2
Ntp4324
Rp4325
(dp4326
g21
I00
sg49
I01
sg23
I00
sg50
g59
sbsg24
g1743
sg26
I55
sg27
g4310
sbsVtrackerNumberingGeometryDB
p4327
g0
(g3952
g2
Ntp4328
Rp4329
(dp4330
g17
VTrackerGeometricDetESModule
p4331
sg19
(lp4332
g3957
ag3958
ag3048
asg21
I00
sg22
Nsg3957
g0
(g71
g2
Ntp4333
Rp4334
(dp4335
g21
I00
sg49
I01
sg23
I00
sg50
I00
sbsg23
I00
sg3958
g0
(g71
g2
Ntp4336
Rp4337
(dp4338
g21
I00
sg49
I01
sg23
I00
sg50
I00
sbsg3048
g0
(g45
g2
Ntp4339
Rp4340
(dp4341
g21
I00
sg49
I01
sg23
I00
sg50
g59
sbsg24
g1743
sg26
I55
sg27
g4327
sbsVtrackerTopology
p4342
g0
(g3952
g2
Ntp4343
Rp4344
(dp4345
g17
VTrackerTopologyEP
p4346
sg19
(lp4347
g3048
asg21
I00
sg22
Nsg3048
g0
(g45
g2
Ntp4348
Rp4349
(dp4350
g21
I00
sg49
I01
sg23
I00
sg50
g59
sbsg23
I00
sg24
g1743
sg26
I55
sg27
g4342
sbsVMuonNumberingInitialization
p4351
g0
(g3952
g2
Ntp4352
Rp4353
(dp4354
g17
g4351
sg19
(lp4355
sg21
I00
sg22
Nsg23
I00
sg24
g1743
sg26
I55
sg27
g4351
sbsVXMLFromDBSource
p4356
g0
(g3952
g2
Ntp4357
Rp4358
(dp4359
g17
VXMLIdealGeometryESProducer
p4360
sg19
(lp4361
VrootDDName
p4362
aVlabel
p4363
asg21
I00
sg22
Nsg4362
g0
(g45
g2
Ntp4364
Rp4365
(dp4366
g21
I00
sg49
I01
sg23
I00
sg50
Vcms:OCMS
p4367
sbsg23
I00
sg4363
g0
(g45
g2
Ntp4368
Rp4369
(dp4370
g21
I00
sg49
I01
sg23
I00
sg50
VExtended
p4371
sbsg24
g1743
sg26
I55
sg27
g4356
sbsVcaloSimulationParameters
p4372
g0
(g3952
g2
Ntp4373
Rp4374
(dp4375
g17
VCaloSimParametersESModule
p4376
sg19
(lp4377
g3958
ag3048
asg21
I00
sg22
Nsg3958
g0
(g71
g2
Ntp4378
Rp4379
(dp4380
g21
I00
sg49
I01
sg23
I00
sg50
I00
sbsg23
I00
sg3048
g0
(g45
g2
Ntp4381
Rp4382
(dp4383
g21
I00
sg49
I01
sg23
I00
sg50
g59
sbsg24
g1743
sg26
I55
sg27
g4372
sbsVecalSimulationParametersEB
p4384
g0
(g3952
g2
Ntp4385
Rp4386
(dp4387
g17
VEcalSimParametersESModule
p4388
sg19
(lp4389
g3958
aVname
p4390
ag3048
asg21
I00
sg22
Nsg3958
g0
(g71
g2
Ntp4391
Rp4392
(dp4393
g21
I00
sg49
I01
sg23
I00
sg50
I00
sbsg23
I00
sg4390
g0
(g45
g2
Ntp4394
Rp4395
(dp4396
g21
I00
sg49
I01
sg23
I00
sg50
VEcalHitsEB
p4397
sbsg3048
g0
(g45
g2
Ntp4398
Rp4399
(dp4400
g21
I00
sg49
I01
sg23
I00
sg50
g59
sbsg24
g1743
sg26
I55
sg27
g4384
sbsVecalSimulationParametersEE
p4401
g0
(g3952
g2
Ntp4402
Rp4403
(dp4404
g17
g4388
sg19
(lp4405
g3958
ag4390
ag3048
asg21
I00
sg22
Nsg3958
g0
(g71
g2
Ntp4406
Rp4407
(dp4408
g21
I00
sg49
I01
sg23
I00
sg50
I00
sbsg23
I00
sg4390
g0
(g45
g2
Ntp4409
Rp4410
(dp4411
g21
I00
sg49
I01
sg23
I01
sg50
VEcalHitsEE
p4412
sbsg3048
g0
(g45
g2
Ntp4413
Rp4414
(dp4415
g21
I00
sg49
I01
sg23
I00
sg50
g59
sbsg24
V/cvmfs/cms.cern.ch/slc7_amd64_gcc12/cms/cmssw-patch/CMSSW_14_0_5_patch1/src/Geometry/EcalCommonData/python/ecalSimulationParameters_cff.py
p4416
sg26
I11
sg27
g4401
sbsVecalSimulationParametersES
p4417
g0
(g3952
g2
Ntp4418
Rp4419
(dp4420
g17
g4388
sg19
(lp4421
g3958
ag4390
ag3048
asg21
I00
sg22
Nsg3958
g0
(g71
g2
Ntp4422
Rp4423
(dp4424
g21
I00
sg49
I01
sg23
I00
sg50
I00
sbsg23
I00
sg4390
g0
(g45
g2
Ntp4425
Rp4426
(dp4427
g21
I00
sg49
I01
sg23
I01
sg50
VEcalHitsES
p4428
sbsg3048
g0
(g45
g2
Ntp4429
Rp4430
(dp4431
g21
I00
sg49
I01
sg23
I00
sg50
g59
sbsg24
g4416
sg26
I14
sg27
g4417
sbsVhcalSimulationConstants
p4432
g0
(g3952
g2
Ntp4433
Rp4434
(dp4435
g17
VHcalSimulationConstantsESModule
p4436
sg19
(lp4437
g3048
asg21
I00
sg22
Nsg3048
g0
(g45
g2
Ntp4438
Rp4439
(dp4440
g21
I00
sg49
I01
sg23
I00
sg50
g59
sbsg23
I00
sg24
g1743
sg26
I55
sg27
g4432
sbsVhcalSimulationParameters
p4441
g0
(g3952
g2
Ntp4442
Rp4443
(dp4444
g17
VHcalSimParametersESModule
p4445
sg19
(lp4446
g3958
ag3048
asg21
I00
sg22
Nsg3958
g0
(g71
g2
Ntp4447
Rp4448
(dp4449
g21
I00
sg49
I01
sg23
I00
sg50
I00
sbsg23
I00
sg3048
g0
(g45
g2
Ntp4450
Rp4451
(dp4452
g21
I00
sg49
I01
sg23
I00
sg50
g59
sbsg24
g1743
sg26
I55
sg27
g4441
sbsVmuonOffsetESProducer
p4453
g0
(g3952
g2
Ntp4454
Rp4455
(dp4456
g17
VMuonOffsetESProducer
p4457
sg19
(lp4458
g3958
aVnames
p4459
ag3048
asg21
I00
sg22
Nsg3958
g0
(g71
g2
Ntp4460
Rp4461
(dp4462
g21
I00
sg49
I01
sg23
I00
sg50
I00
sbsg23
I00
sg4459
g0
(g429
g62
(lp4463
VMuonCommonNumbering
p4464
aVMuonBarrel
p4465
aVMuonEndcap
p4466
aVMuonBarrelWheels
p4467
aVMuonBarrelStation1
p4468
aVMuonBarrelStation2
p4469
aVMuonBarrelStation3
p4470
aVMuonBarrelStation4
p4471
aVMuonBarrelSuperLayer
p4472
aVMuonBarrelLayer
p4473
aVMuonBarrelWire
p4474
aVMuonRpcPlane1I
p4475
aVMuonRpcPlane1O
p4476
aVMuonRpcPlane2I
p4477
aVMuonRpcPlane2O
p4478
aVMuonRpcPlane3S
p4479
aVMuonRpcPlane4
p4480
aVMuonRpcChamberLeft
p4481
aVMuonRpcChamberMiddle
p4482
aVMuonRpcChamberRight
p4483
aVMuonRpcEndcap1
p4484
aVMuonRpcEndcap2
p4485
aVMuonRpcEndcap3
p4486
aVMuonRpcEndcap4
p4487
aVMuonRpcEndcapSector
p4488
aVMuonRpcEndcapChamberB1
p4489
aVMuonRpcEndcapChamberB2
p4490
aVMuonRpcEndcapChamberB3
p4491
aVMuonRpcEndcapChamberC1
p4492
aVMuonRpcEndcapChamberC2
p4493
aVMuonRpcEndcapChamberC3
p4494
aVMuonRpcEndcapChamberE1
p4495
aVMuonRpcEndcapChamberE2
p4496
aVMuonRpcEndcapChamberE3
p4497
aVMuonRpcEndcapChamberF1
p4498
aVMuonRpcEndcapChamberF2
p4499
aVMuonRpcEndcapChamberF3
p4500
aVMuonEndcapStation1
p4501
aVMuonEndcapStation2
p4502
aVMuonEndcapStation3
p4503
aVMuonEndcapStation4
p4504
aVMuonEndcapSubrings
p4505
aVMuonEndcapSectors
p4506
aVMuonEndcapLayers
p4507
aVMuonEndcapRing1
p4508
aVMuonEndcapRing2
p4509
aVMuonEndcapRing3
p4510
aVMuonEndcapRingA
p4511
aVMuonGEMEndcap
p4512
aVMuonGEMSector
p4513
aVMuonGEMChamber
p4514
atp4515
Rp4516
(dp4517
g21
I00
sg49
I01
sg23
I00
sg887
I1
sbsg3048
g0
(g45
g2
Ntp4518
Rp4519
(dp4520
g21
I00
sg49
I01
sg23
I00
sg50
g59
sbsg24
g1743
sg26
I55
sg27
g4453
sbsVCastorDbProducer
p4521
g0
(g3952
g2
Ntp4522
Rp4523
(dp4524
g17
g4521
sg19
(lp4525
g3048
asg21
I00
sg22
Nsg3048
g0
(g45
g2
Ntp4526
Rp4527
(dp4528
g21
I00
sg49
I01
sg23
I00
sg50
g59
sbsg23
I00
sg24
g1743
sg26
I55
sg27
g4521
sbsVEcalLaserCorrectionService
p4529
g0
(g3952
g2
Ntp4530
Rp4531
(dp4532
g17
g4529
sg19
(lp4533
VmaxExtrapolationTimeInSec
p4534
asg21
I00
sg22
Nsg4534
g0
(g67
g2
Ntp4535
Rp4536
(dp4537
g21
I00
sg49
I01
sg23
I00
sg50
I0
sbsg23
I00
sg24
g1743
sg26
I55
sg27
g4529
sbsVEcalLaserCorrectionServiceMC
p4538
g0
(g3952
g2
Ntp4539
Rp4540
(dp4541
g17
g4538
sg19
(lp4542
g3048
asg21
I00
sg22
Nsg3048
g0
(g45
g2
Ntp4543
Rp4544
(dp4545
g21
I00
sg49
I01
sg23
I00
sg50
g59
sbsg23
I00
sg24
g1743
sg26
I55
sg27
g4538
sbsVSiStripRecHitMatcherESProducer
p4546
g0
(g3952
g2
Ntp4547
Rp4548
(dp4549
g17
g4546
sg19
(lp4550
VComponentName
p4551
aVNSigmaInside
p4552
aVPreFilter
p4553
asg21
I00
sg22
Nsg4551
g0
(g45
g2
Ntp4554
Rp4555
(dp4556
g21
I00
sg49
I01
sg23
I00
sg50
VStandardMatcher
p4557
sbsg23
I00
sg4552
g0
(g408
g2
Ntp4558
Rp4559
(dp4560
g21
I00
sg49
I01
sg23
I00
sg50
F3.0
sbsg4553
g0
(g71
g2
Ntp4561
Rp4562
(dp4563
g21
I00
sg49
I01
sg23
I00
sg50
I00
sbsg24
g1743
sg26
I55
sg27
g4546
sbsVStripCPEfromTrackAngleESProducer
p4564
g0
(g3952
g2
Ntp4565
Rp4566
(dp4567
g17
VStripCPEESProducer
p4568
sg19
(lp4569
g4551
aVComponentType
p4570
aVparameters
p4571
asg21
I00
sg22
Nsg4551
g0
(g45
g2
Ntp4572
Rp4573
(dp4574
g21
I00
sg49
I01
sg23
I01
sg50
VStripCPEfromTrackAngle
p4575
sbsg23
I00
sg4570
g0
(g45
g2
Ntp4576
Rp4577
(dp4578
g21
I00
sg49
I01
sg23
I01
sg50
g4575
sbsg4571
g0
(g359
g2
Ntp4579
Rp4580
(dp4581
g21
I00
sg49
I01
sg23
I00
sg19
(lp4582
VmLC_P0
p4583
aVmLC_P1
p4584
aVmLC_P2
p4585
aVmTIB_P0
p4586
aVmTIB_P1
p4587
aVmTOB_P0
p4588
aVmTOB_P1
p4589
aVmTID_P0
p4590
aVmTID_P1
p4591
aVmTEC_P0
p4592
aVmTEC_P1
p4593
aVuseLegacyError
p4594
aVmaxChgOneMIP
p4595
asg22
Nsg4583
g0
(g408
g2
Ntp4596
Rp4597
(dp4598
g21
I00
sg49
I01
sg23
I00
sg50
F-0.326
sbsg4584
g0
(g408
g2
Ntp4599
Rp4600
(dp4601
g21
I00
sg49
I01
sg23
I00
sg50
F0.618
sbsg4585
g0
(g408
g2
Ntp4602
Rp4603
(dp4604
g21
I00
sg49
I01
sg23
I00
sg50
F0.3
sbsg4586
g0
(g408
g2
Ntp4605
Rp4606
(dp4607
g21
I00
sg49
I01
sg23
I00
sg50
F-0.742
sbsg4587
g0
(g408
g2
Ntp4608
Rp4609
(dp4610
g21
I00
sg49
I01
sg23
I00
sg50
F0.202
sbsg4588
g0
(g408
g2
Ntp4611
Rp4612
(dp4613
g21
I00
sg49
I01
sg23
I00
sg50
F-1.026
sbsg4589
g0
(g408
g2
Ntp4614
Rp4615
(dp4616
g21
I00
sg49
I01
sg23
I00
sg50
F0.253
sbsg4590
g0
(g408
g2
Ntp4617
Rp4618
(dp4619
g21
I00
sg49
I01
sg23
I00
sg50
F-1.427
sbsg4591
g0
(g408
g2
Ntp4620
Rp4621
(dp4622
g21
I00
sg49
I01
sg23
I00
sg50
F0.433
sbsg4592
g0
(g408
g2
Ntp4623
Rp4624
(dp4625
g21
I00
sg49
I01
sg23
I00
sg50
F-1.885
sbsg4593
g0
(g408
g2
Ntp4626
Rp4627
(dp4628
g21
I00
sg49
I01
sg23
I00
sg50
F0.471
sbsg4594
g0
(g71
g2
Ntp4629
Rp4630
(dp4631
g21
I00
sg49
I01
sg23
I00
sg50
I00
sbsg4595
g0
(g408
g2
Ntp4632
Rp4633
(dp4634
g21
I00
sg49
I01
sg23
I00
sg50
F6000.0
sbsbsg24
V/cvmfs/cms.cern.ch/slc7_amd64_gcc12/cms/cmssw-patch/CMSSW_14_0_5_patch1/src/RecoLocalTracker/SiStripRecHitConverter/python/StripCPEfromTrackAngle_cfi.py
p4635
sg26
I4
sg27
g4564
sbsVctppsBeamParametersFromLHCInfoESSource
p4636
g0
(g3952
g2
Ntp4637
Rp4638
(dp4639
g17
VCTPPSBeamParametersFromLHCInfoESSource
p4640
sg19
(lp4641
VlhcInfoLabel
p4642
aVlhcInfoPerLSLabel
p4643
aVlhcInfoPerFillLabel
p4644
aVuseNewLHCInfo
p4645
aVbeamDivX45
p4646
aVbeamDivY45
p4647
aVbeamDivX56
p4648
aVbeamDivY56
p4649
aVvtxOffsetX45
p4650
aVvtxOffsetY45
p4651
aVvtxOffsetZ45
p4652
aVvtxOffsetX56
p4653
aVvtxOffsetY56
p4654
aVvtxOffsetZ56
p4655
aVvtxStddevX
p4656
aVvtxStddevY
p4657
aVvtxStddevZ
p4658
ag3048
asg21
I00
sg22
Nsg4642
g0
(g45
g2
Ntp4659
Rp4660
(dp4661
g21
I00
sg49
I01
sg23
I00
sg50
g59
sbsg23
I00
sg4643
g0
(g45
g2
Ntp4662
Rp4663
(dp4664
g21
I00
sg49
I01
sg23
I00
sg50
g59
sbsg4644
g0
(g45
g2
Ntp4665
Rp4666
(dp4667
g21
I00
sg49
I01
sg23
I00
sg50
g59
sbsg4645
g0
(g71
g2
Ntp4668
Rp4669
(dp4670
g21
I00
sg49
I01
sg23
I00
sg50
I00
sbsg4646
g0
(g408
g2
Ntp4671
Rp4672
(dp4673
g21
I00
sg49
I01
sg23
I00
sg50
F0.1
sbsg4647
g0
(g408
g2
Ntp4674
Rp4675
(dp4676
g21
I00
sg49
I01
sg23
I00
sg50
F0.1
sbsg4648
g0
(g408
g2
Ntp4677
Rp4678
(dp4679
g21
I00
sg49
I01
sg23
I00
sg50
F0.1
sbsg4649
g0
(g408
g2
Ntp4680
Rp4681
(dp4682
g21
I00
sg49
I01
sg23
I00
sg50
F0.1
sbsg4650
g0
(g408
g2
Ntp4683
Rp4684
(dp4685
g21
I00
sg49
I01
sg23
I00
sg50
F0.01
sbsg4651
g0
(g408
g2
Ntp4686
Rp4687
(dp4688
g21
I00
sg49
I01
sg23
I00
sg50
F0.01
sbsg4652
g0
(g408
g2
Ntp4689
Rp4690
(dp4691
g21
I00
sg49
I01
sg23
I00
sg50
F0.01
sbsg4653
g0
(g408
g2
Ntp4692
Rp4693
(dp4694
g21
I00
sg49
I01
sg23
I00
sg50
F0.01
sbsg4654
g0
(g408
g2
Ntp4695
Rp4696
(dp4697
g21
I00
sg49
I01
sg23
I00
sg50
F0.01
sbsg4655
g0
(g408
g2
Ntp4698
Rp4699
(dp4700
g21
I00
sg49
I01
sg23
I00
sg50
F0.01
sbsg4656
g0
(g408
g2
Ntp4701
Rp4702
(dp4703
g21
I00
sg49
I01
sg23
I00
sg50
F0.02
sbsg4657
g0
(g408
g2
Ntp4704
Rp4705
(dp4706
g21
I00
sg49
I01
sg23
I00
sg50
F0.02
sbsg4658
g0
(g408
g2
Ntp4707
Rp4708
(dp4709
g21
I00
sg49
I01
sg23
I00
sg50
F0.02
sbsg3048
g0
(g45
g2
Ntp4710
Rp4711
(dp4712
g21
I00
sg49
I01
sg23
I00
sg50
g59
sbsg24
V/cvmfs/cms.cern.ch/slc7_amd64_gcc12/cms/cmssw-patch/CMSSW_14_0_5_patch1/src/CalibPPS/ESProducers/python/ctppsBeamParametersFromLHCInfoESSource_cfi.py
p4713
sg26
I2
sg27
g4636
sbsVctppsInterpolatedOpticalFunctionsESSource
p4714
g0
(g3952
g2
Ntp4715
Rp4716
(dp4717
g17
VCTPPSInterpolatedOpticalFunctionsESSource
p4718
sg19
(lp4719
g4642
ag4644
ag4643
aVopticsLabel
p4720
ag4645
ag3048
asg21
I00
sg22
Nsg4642
g0
(g45
g2
Ntp4721
Rp4722
(dp4723
g21
I00
sg49
I01
sg23
I00
sg50
g59
sbsg23
I01
sg4644
g0
(g45
g2
Ntp4724
Rp4725
(dp4726
g21
I00
sg49
I01
sg23
I00
sg50
g59
sbsg4643
g0
(g45
g2
Ntp4727
Rp4728
(dp4729
g21
I00
sg49
I01
sg23
I00
sg50
g59
sbsg4720
g0
(g45
g2
Ntp4730
Rp4731
(dp4732
g21
I00
sg49
I01
sg23
I00
sg50
g59
sbsg4645
g0
(g71
g2
Ntp4733
Rp4734
(dp4735
g21
I00
sg49
I01
sg23
I00
sg50
I00
sbsg3048
g0
(g45
g2
Ntp4736
Rp4737
(dp4738
g21
I00
sg49
I01
sg23
I00
sg50
g59
sbsg24
V/cvmfs/cms.cern.ch/slc7_amd64_gcc12/cms/cmssw-patch/CMSSW_14_0_5_patch1/src/CalibPPS/ESProducers/python/ctppsInterpolatedOpticalFunctionsESSource_cfi.py
p4739
sg26
I2
sg27
g4714
sbsVhcal_db_producer
p4740
g0
(g3952
g2
Ntp4741
Rp4742
(dp4743
g17
VHcalDbProducer
p4744
sg19
(lp4745
Vdump
p4746
aVfile
p4747
asg21
I00
sg22
Nsg4746
g0
(g429
g62
(lp4748
g59
atp4749
Rp4750
(dp4751
g21
I00
sg49
I00
sg23
I00
sg887
I1
sbsg23
I00
sg4747
g0
(g45
g2
Ntp4752
Rp4753
(dp4754
g21
I00
sg49
I00
sg23
I00
sg50
g59
sbsg24
g1743
sg26
I55
sg27
g4740
sbsVmultipleScatteringParametrisationMakerESProducer
p4755
g0
(g3952
g2
Ntp4756
Rp4757
(dp4758
g17
VMultipleScatteringParametrisationMakerESProducer
p4759
sg19
(lp4760
g3048
asg21
I00
sg22
Nsg3048
g0
(g45
g2
Ntp4761
Rp4762
(dp4763
g21
I00
sg49
I01
sg23
I00
sg50
g59
sbsg23
I00
sg24
g1743
sg26
I55
sg27
g4755
sbsVsiPixelQualityESProducer
p4764
g0
(g3952
g2
Ntp4765
Rp4766
(dp4767
g17
VSiPixelQualityESProducer
p4768
sg19
(lp4769
VsiPixelQualityFromDbLabel
p4770
aVListOfRecordToMerge
p4771
ag3048
asg21
I00
sg22
Nsg4770
g0
(g45
g2
Ntp4772
Rp4773
(dp4774
g21
I00
sg49
I01
sg23
I00
sg50
g59
sbsg23
I00
sg4771
g0
(g3016
g62
(lp4775
g0
(g359
g2
Ntp4776
Rp4777
(dp4778
g21
I00
sg49
I01
sg23
I00
sg19
(lp4779
Vrecord
p4780
aVtag
p4781
asg22
Nsg4780
g0
(g45
g2
Ntp4782
Rp4783
(dp4784
g21
I00
sg49
I01
sg23
I00
sg50
VSiPixelQualityFromDbRcd
p4785
sbsg4781
g0
(g45
g2
Ntp4786
Rp4787
(dp4788
g21
I00
sg49
I01
sg23
I00
sg50
g59
sbsbag0
(g359
g2
Ntp4789
Rp4790
(dp4791
g21
I00
sg49
I01
sg23
I00
sg19
(lp4792
g4780
ag4781
asg22
Nsg4780
g0
(g45
g2
Ntp4793
Rp4794
(dp4795
g21
I00
sg49
I01
sg23
I00
sg50
VSiPixelDetVOffRcd
p4796
sbsg4781
g0
(g45
g2
Ntp4797
Rp4798
(dp4799
g21
I00
sg49
I01
sg23
I00
sg50
g59
sbsbatp4800
Rp4801
(dp4802
g21
I00
sg49
I01
sg23
I00
sg887
I1
sbsg3048
g0
(g45
g2
Ntp4803
Rp4804
(dp4805
g21
I00
sg49
I01
sg23
I00
sg50
g59
sbsg24
g1743
sg26
I55
sg27
g4764
sbsVsiStripBackPlaneCorrectionDepESProducer
p4806
g0
(g3952
g2
Ntp4807
Rp4808
(dp4809
g17
VSiStripBackPlaneCorrectionDepESProducer
p4810
sg19
(lp4811
VLatencyRecord
p4812
aVBackPlaneCorrectionPeakMode
p4813
aVBackPlaneCorrectionDeconvMode
p4814
asg21
I00
sg22
Nsg4812
g0
(g359
g2
Ntp4815
Rp4816
(dp4817
g21
I00
sg49
I01
sg23
I00
sg19
(lp4818
g4780
ag4363
asg22
Nsg4780
g0
(g45
g2
Ntp4819
Rp4820
(dp4821
g21
I00
sg49
I01
sg23
I00
sg50
VSiStripLatencyRcd
p4822
sbsg4363
g0
(g45
g2
Ntp4823
Rp4824
(dp4825
g21
I00
sg49
I00
sg23
I00
sg50
g59
sbsbsg23
I00
sg4813
g0
(g359
g2
Ntp4826
Rp4827
(dp4828
g21
I00
sg49
I01
sg23
I00
sg19
(lp4829
g4780
ag4363
asg22
Nsg4780
g0
(g45
g2
Ntp4830
Rp4831
(dp4832
g21
I00
sg49
I01
sg23
I00
sg50
VSiStripBackPlaneCorrectionRcd
p4833
sbsg4363
g0
(g45
g2
Ntp4834
Rp4835
(dp4836
g21
I00
sg49
I00
sg23
I00
sg50
Vpeak
p4837
sbsbsg4814
g0
(g359
g2
Ntp4838
Rp4839
(dp4840
g21
I00
sg49
I01
sg23
I00
sg19
(lp4841
g4780
ag4363
asg22
Nsg4780
g0
(g45
g2
Ntp4842
Rp4843
(dp4844
g21
I00
sg49
I01
sg23
I00
sg50
g4833
sbsg4363
g0
(g45
g2
Ntp4845
Rp4846
(dp4847
g21
I00
sg49
I00
sg23
I00
sg50
Vdeconvolution
p4848
sbsbsg24
g1743
sg26
I55
sg27
g4806
sbsVsiStripGainESProducer
p4849
g0
(g3952
g2
Ntp4850
Rp4851
(dp4852
g17
VSiStripGainESProducer
p4853
sg19
(lp4854
g3048
aVprintDebug
p4855
aVAutomaticNormalization
p4856
aVAPVGain
p4857
asg21
I00
sg22
Nsg3048
g0
(g45
g2
Ntp4858
Rp4859
(dp4860
g21
I00
sg49
I01
sg23
I00
sg50
g59
sbsg23
I00
sg4855
g0
(g71
g2
Ntp4861
Rp4862
(dp4863
g21
I00
sg49
I00
sg23
I00
sg50
I00
sbsg4856
g0
(g71
g2
Ntp4864
Rp4865
(dp4866
g21
I00
sg49
I01
sg23
I00
sg50
I00
sbsg4857
g0
(g3016
g62
(lp4867
g0
(g359
g2
Ntp4868
Rp4869
(dp4870
g21
I00
sg49
I01
sg23
I00
sg19
(lp4871
VRecord
p4872
ag1443
aVNormalizationFactor
p4873
asg22
Nsg4872
g0
(g45
g2
Ntp4874
Rp4875
(dp4876
g21
I00
sg49
I01
sg23
I00
sg50
VSiStripApvGainRcd
p4877
sbsg1443
g0
(g45
g2
Ntp4878
Rp4879
(dp4880
g21
I00
sg49
I00
sg23
I00
sg50
g59
sbsg4873
g0
(g408
g2
Ntp4881
Rp4882
(dp4883
g21
I00
sg49
I00
sg23
I00
sg50
F1.0
sbsbag0
(g359
g2
Ntp4884
Rp4885
(dp4886
g21
I00
sg49
I01
sg23
I00
sg19
(lp4887
g4872
ag1443
ag4873
asg22
Nsg4872
g0
(g45
g2
Ntp4888
Rp4889
(dp4890
g21
I00
sg49
I01
sg23
I00
sg50
VSiStripApvGain2Rcd
p4891
sbsg1443
g0
(g45
g2
Ntp4892
Rp4893
(dp4894
g21
I00
sg49
I00
sg23
I00
sg50
g59
sbsg4873
g0
(g408
g2
Ntp4895
Rp4896
(dp4897
g21
I00
sg49
I00
sg23
I00
sg50
F1.0
sbsbatp4898
Rp4899
(dp4900
g21
I00
sg49
I01
sg23
I00
sg887
I1
sbsg24
g1743
sg26
I55
sg27
g4849
sbsVsiStripLorentzAngleDepESProducer
p4901
g0
(g3952
g2
Ntp4902
Rp4903
(dp4904
g17
VSiStripLorentzAngleDepESProducer
p4905
sg19
(lp4906
g4812
aVLorentzAnglePeakMode
p4907
aVLorentzAngleDeconvMode
p4908
asg21
I00
sg22
Nsg4812
g0
(g359
g2
Ntp4909
Rp4910
(dp4911
g21
I00
sg49
I01
sg23
I00
sg19
(lp4912
g4780
ag4363
asg22
Nsg4780
g0
(g45
g2
Ntp4913
Rp4914
(dp4915
g21
I00
sg49
I01
sg23
I00
sg50
g4822
sbsg4363
g0
(g45
g2
Ntp4916
Rp4917
(dp4918
g21
I00
sg49
I00
sg23
I00
sg50
g59
sbsbsg23
I00
sg4907
g0
(g359
g2
Ntp4919
Rp4920
(dp4921
g21
I00
sg49
I01
sg23
I00
sg19
(lp4922
g4780
ag4363
asg22
Nsg4780
g0
(g45
g2
Ntp4923
Rp4924
(dp4925
g21
I00
sg49
I01
sg23
I00
sg50
VSiStripLorentzAngleRcd
p4926
sbsg4363
g0
(g45
g2
Ntp4927
Rp4928
(dp4929
g21
I00
sg49
I00
sg23
I00
sg50
g4837
sbsbsg4908
g0
(g359
g2
Ntp4930
Rp4931
(dp4932
g21
I00
sg49
I01
sg23
I00
sg19
(lp4933
g4780
ag4363
asg22
Nsg4780
g0
(g45
g2
Ntp4934
Rp4935
(dp4936
g21
I00
sg49
I01
sg23
I00
sg50
g4926
sbsg4363
g0
(g45
g2
Ntp4937
Rp4938
(dp4939
g21
I00
sg49
I00
sg23
I00
sg50
g4848
sbsbsg24
g1743
sg26
I55
sg27
g4901
sbsVsiStripQualityESProducer
p4940
g0
(g3952
g2
Ntp4941
Rp4942
(dp4943
g17
VSiStripQualityESProducer
p4944
sg19
(lp4945
g3048
ag4771
aVReduceGranularity
p4946
aVThresholdForReducedGranularity
p4947
aVPrintDebugOutput
p4948
aVUseEmptyRunInfo
p4949
asg21
I00
sg22
Nsg3048
g0
(g45
g2
Ntp4950
Rp4951
(dp4952
g21
I00
sg49
I01
sg23
I00
sg50
g59
sbsg23
I01
sg4771
g0
(g3016
g62
(lp4953
g0
(g359
g2
Ntp4954
Rp4955
(dp4956
g21
I00
sg49
I01
sg23
I00
sg19
(lp4957
g4780
ag4781
asg22
Nsg4780
g0
(g45
g2
Ntp4958
Rp4959
(dp4960
g21
I00
sg49
I01
sg23
I00
sg50
VSiStripDetVOffRcd
p4961
sbsg4781
g0
(g45
g2
Ntp4962
Rp4963
(dp4964
g21
I00
sg49
I01
sg23
I00
sg50
g59
sbsbag0
(g359
g2
Ntp4965
Rp4966
(dp4967
g21
I00
sg49
I01
sg23
I00
sg19
(lp4968
g4780
ag4781
asg22
Nsg4780
g0
(g45
g2
Ntp4969
Rp4970
(dp4971
g21
I00
sg49
I01
sg23
I00
sg50
VSiStripDetCablingRcd
p4972
sbsg4781
g0
(g45
g2
Ntp4973
Rp4974
(dp4975
g21
I00
sg49
I01
sg23
I00
sg50
g59
sbsbag0
(g359
g2
Ntp4976
Rp4977
(dp4978
g21
I00
sg49
I01
sg23
I00
sg19
(lp4979
g4780
ag4781
asg22
Nsg4780
g0
(g45
g2
Ntp4980
Rp4981
(dp4982
g21
I00
sg49
I01
sg23
I00
sg50
VRunInfoRcd
p4983
sbsg4781
g0
(g45
g2
Ntp4984
Rp4985
(dp4986
g21
I00
sg49
I01
sg23
I00
sg50
g59
sbsbag0
(g359
g2
Ntp4987
Rp4988
(dp4989
g21
I00
sg49
I01
sg23
I00
sg19
(lp4990
g4780
ag4781
asg22
Nsg4780
g0
(g45
g2
Ntp4991
Rp4992
(dp4993
g21
I00
sg49
I01
sg23
I00
sg50
VSiStripBadChannelRcd
p4994
sbsg4781
g0
(g45
g2
Ntp4995
Rp4996
(dp4997
g21
I00
sg49
I01
sg23
I00
sg50
g59
sbsbag0
(g359
g2
Ntp4998
Rp4999
(dp5000
g21
I00
sg49
I01
sg23
I00
sg19
(lp5001
g4780
ag4781
asg22
Nsg4780
g0
(g45
g2
Ntp5002
Rp5003
(dp5004
g21
I00
sg49
I01
sg23
I00
sg50
VSiStripBadFiberRcd
p5005
sbsg4781
g0
(g45
g2
Ntp5006
Rp5007
(dp5008
g21
I00
sg49
I01
sg23
I00
sg50
g59
sbsbag0
(g359
g2
Ntp5009
Rp5010
(dp5011
g21
I00
sg49
I01
sg23
I00
sg19
(lp5012
g4780
ag4781
asg22
Nsg4780
g0
(g45
g2
Ntp5013
Rp5014
(dp5015
g21
I00
sg49
I01
sg23
I00
sg50
VSiStripBadModuleRcd
p5016
sbsg4781
g0
(g45
g2
Ntp5017
Rp5018
(dp5019
g21
I00
sg49
I01
sg23
I00
sg50
g59
sbsbag0
(g359
g2
Ntp5020
Rp5021
(dp5022
g21
I00
sg49
I01
sg23
I00
sg19
(lp5023
g4780
ag4781
asg22
Nsg4780
g0
(g45
g2
Ntp5024
Rp5025
(dp5026
g21
I00
sg49
I01
sg23
I00
sg50
VSiStripBadStripRcd
p5027
sbsg4781
g0
(g45
g2
Ntp5028
Rp5029
(dp5030
g21
I00
sg49
I01
sg23
I00
sg50
g59
sbsbatp5031
Rp5032
(dp5033
g21
I00
sg49
I01
sg23
I00
sg887
I1
sbsg4946
g0
(g71
g2
Ntp5034
Rp5035
(dp5036
g21
I00
sg49
I01
sg23
I00
sg50
I00
sbsg4947
g0
(g408
g2
Ntp5037
Rp5038
(dp5039
g21
I00
sg49
I01
sg23
I00
sg50
F0.3
sbsg4948
g0
(g71
g2
Ntp5040
Rp5041
(dp5042
g21
I00
sg49
I01
sg23
I00
sg50
I00
sbsg4949
g0
(g71
g2
Ntp5043
Rp5044
(dp5045
g21
I00
sg49
I01
sg23
I00
sg50
I00
sbsg24
g1743
sg26
I55
sg27
g4940
sbsVsistripconn
p5046
g0
(g3952
g2
Ntp5047
Rp5048
(dp5049
g17
VSiStripConnectivity
p5050
sg19
(lp5051
sg21
I00
sg22
Nsg23
I00
sg24
g1743
sg26
I55
sg27
g5046
sbsVstripCPEESProducer
p5052
g0
(g3952
g2
Ntp5053
Rp5054
(dp5055
g17
g4568
sg19
(lp5056
g4551
ag4570
ag4571
asg21
I00
sg22
Nsg4551
g0
(g45
g2
Ntp5057
Rp5058
(dp5059
g21
I00
sg49
I01
sg23
I00
sg50
VstripCPE
p5060
sbsg23
I00
sg4570
g0
(g45
g2
Ntp5061
Rp5062
(dp5063
g21
I00
sg49
I01
sg23
I00
sg50
VSimpleStripCPE
p5064
sbsg4571
g0
(g359
g2
Ntp5065
Rp5066
(dp5067
g21
I00
sg49
I01
sg23
I00
sg19
(lp5068
sg22
Nsbsg24
g1743
sg26
I55
sg27
g5052
sbsVecalElectronicsMappingGPUESProducer
p5069
g0
(g3952
g2
Ntp5070
Rp5071
(dp5072
g17
VEcalElectronicsMappingGPUESProducer
p5073
sg19
(lp5074
g4551
ag4363
ag3048
asg21
I00
sg22
Nsg4551
g0
(g45
g2
Ntp5075
Rp5076
(dp5077
g21
I00
sg49
I01
sg23
I00
sg50
g59
sbsg23
I00
sg4363
g0
(g45
g2
Ntp5078
Rp5079
(dp5080
g21
I00
sg49
I01
sg23
I00
sg50
g59
sbsg3048
g0
(g45
g2
Ntp5081
Rp5082
(dp5083
g21
I00
sg49
I01
sg23
I00
sg50
g59
sbsg24
g1743
sg26
I55
sg27
g5069
sbsVecalElectronicsMappingHostESProducer
p5084
g0
(g3952
g2
Ntp5085
Rp5086
(dp5087
g17
VEcalElectronicsMappingHostESProducer@alpaka
p5088
sg19
(lp5089
g3048
ag597
asg21
I00
sg22
Nsg3048
g0
(g45
g2
Ntp5090
Rp5091
(dp5092
g21
I00
sg49
I01
sg23
I00
sg50
g59
sbsg23
I00
sg597
g0
(g359
g2
Ntp5093
Rp5094
(dp5095
g21
I00
sg49
I00
sg23
I00
sg19
(lp5096
g624
asg22
Nsg624
g0
(g45
g2
Ntp5097
Rp5098
(dp5099
g21
I00
sg49
I00
sg23
I00
sg50
g59
sbsbsg24
g1743
sg26
I55
sg27
g5084
sbssV_Process__esprefers
p5100
(dp5101
Ves_prefer_hcalHardcode
p5102
g0
(cFWCore.ParameterSet.Modules
ESPrefer
p5103
g2
Ntp5104
Rp5105
(dp5106
g17
g3217
sg19
(lp5107
sg21
I00
sg22
Nsg23
I00
sg24
g1743
sg26
I91
sV_targetLabel
p5108
g3213
sg27
g5102
sbssV_Process__aliases
p5109
(dp5110
sV_Process__psets
p5111
(dp5112
VmaxLuminosityBlocks
p5113
g0
(g359
g2
Ntp5114
Rp5115
(dp5116
g21
I00
sg49
I00
sg23
I00
sg19
(lp5117
Vinput
p5118
asg22
Nsg5118
g0
(g75
g2
Ntp5119
Rp5120
(dp5121
g21
I00
sg49
I00
sg23
I00
sg50
I-1
sbsg27
g5113
sbsVoptions
p5122
g0
(g359
g2
Ntp5123
Rp5124
(dp5125
g21
I00
sg49
I00
sg23
I01
sg19
(lp5126
VnumberOfThreads
p5127
aVnumberOfStreams
p5128
aVnumberOfConcurrentRuns
p5129
aVnumberOfConcurrentLuminosityBlocks
p5130
aVeventSetup
p5131
aVaccelerators
p5132
aVwantSummary
p5133
aVfileMode
p5134
aVforceEventSetupCacheClearOnNewRun
p5135
aVthrowIfIllegalParameter
p5136
aVprintDependencies
p5137
aVdeleteNonConsumedUnscheduledModules
p5138
aVsizeOfStackForThreadsInKB
p5139
aVRethrow
p5140
aVTryToContinue
p5141
aVIgnoreCompletely
p5142
aVmodulesToCallForTryToContinue
p5143
aVcanDeleteEarly
p5144
aVholdsReferencesToDeleteEarly
p5145
aVmodulesToIgnoreForDeleteEarly
p5146
aVdumpOptions
p5147
aVallowUnscheduled
p5148
aVemptyRunLumiMode
p5149
aVmakeTriggerResults
p5150
asg22
Nsg5127
g0
(g67
g2
Ntp5151
Rp5152
(dp5153
g21
I00
sg49
I00
sg23
I00
sg50
I1
sbsg5128
g0
(g67
g2
Ntp5154
Rp5155
(dp5156
g21
I00
sg49
I00
sg23
I00
sg50
I0
sbsg5129
g0
(g67
g2
Ntp5157
Rp5158
(dp5159
g21
I00
sg49
I00
sg23
I00
sg50
I1
sbsg5130
g0
(g67
g2
Ntp5160
Rp5161
(dp5162
g21
I00
sg49
I00
sg23
I00
sg50
I0
sbsg5131
g0
(g359
g2
Ntp5163
Rp5164
(dp5165
g21
I00
sg49
I00
sg23
I00
sg19
(lp5166
VnumberOfConcurrentIOVs
p5167
aVforceNumberOfConcurrentIOVs
p5168
asg22
Nsg5167
g0
(g67
g2
Ntp5169
Rp5170
(dp5171
g21
I00
sg49
I00
sg23
I00
sg50
I0
sbsg5168
g0
(g359
g2
Ntp5172
Rp5173
(dp5174
g21
I00
sg49
I00
sg23
I00
sg19
(lp5175
sg22
g0
(cFWCore.ParameterSet.Types
_RequiredParameter
p5176
g2
Ntp5177
Rp5178
(dp5179
g21
I00
sg49
I00
sg23
I00
sg428
g67
sg430
Nsbsbsbsg5132
g0
(g429
g62
(lp5180
V*
p5181
atp5182
Rp5183
(dp5184
g21
I00
sg49
I00
sg23
I00
sg887
I1
sbsg5133
g0
(g71
g2
Ntp5185
Rp5186
(dp5187
g21
I00
sg49
I00
sg23
I00
sg50
I00
sbsg5134
g0
(g45
g2
Ntp5188
Rp5189
(dp5190
g21
I00
sg49
I00
sg23
I00
sg50
VFULLMERGE
p5191
sbsg5135
g0
(g71
g2
Ntp5192
Rp5193
(dp5194
g21
I00
sg49
I00
sg23
I00
sg50
I00
sbsg5136
g0
(g71
g2
Ntp5195
Rp5196
(dp5197
g21
I00
sg49
I00
sg23
I00
sg50
I01
sbsg5137
g0
(g71
g2
Ntp5198
Rp5199
(dp5200
g21
I00
sg49
I00
sg23
I00
sg50
I00
sbsg5138
g0
(g71
g2
Ntp5201
Rp5202
(dp5203
g21
I00
sg49
I00
sg23
I00
sg50
I01
sbsg5139
g0
(g424
g2
Ntp5204
Rp5205
(dp5206
g21
I00
sg49
I00
sg23
I00
sg428
g67
sg430
Nsbsg5140
g0
(g429
g62
(lp5207
tp5208
Rp5209
(dp5210
g21
I00
sg49
I00
sg23
I00
sg887
I1
sbsg5141
g0
(g429
g62
(lp5211
tp5212
Rp5213
(dp5214
g21
I00
sg49
I00
sg23
I00
sg887
I1
sbsg5142
g0
(g429
g62
(lp5215
tp5216
Rp5217
(dp5218
g21
I00
sg49
I00
sg23
I00
sg887
I1
sbsg5143
g0
(g429
g62
(lp5219
tp5220
Rp5221
(dp5222
g21
I00
sg49
I00
sg23
I00
sg887
I1
sbsg5144
g0
(g429
g62
(lp5223
tp5224
Rp5225
(dp5226
g21
I00
sg49
I00
sg23
I00
sg887
I1
sbsg5145
g0
(g3016
g62
(lp5227
tp5228
Rp5229
(dp5230
g21
I00
sg49
I00
sg23
I00
sg887
I1
sbsg5146
g0
(g429
g62
(lp5231
tp5232
Rp5233
(dp5234
g21
I00
sg49
I00
sg23
I00
sg887
I1
sbsg5147
g0
(g71
g2
Ntp5235
Rp5236
(dp5237
g21
I00
sg49
I00
sg23
I00
sg50
I00
sbsg5148
g0
(cFWCore.ParameterSet.Types
_ObsoleteParameter
p5238
g2
Ntp5239
Rp5240
(dp5241
g21
I00
sg49
I00
sg23
I00
sg428
g71
sg430
Nsbsg5149
g0
(g5238
g2
Ntp5242
Rp5243
(dp5244
g21
I00
sg49
I00
sg23
I00
sg428
g45
sg430
Nsbsg5150
g0
(g5238
g2
Ntp5245
Rp5246
(dp5247
g21
I00
sg49
I00
sg23
I00
sg428
g71
sg430
Nsbsg27
g5122
sbsVnanoDQMIO_perLSoutput
p5248
g0
(g359
g2
Ntp5249
Rp5250
(dp5251
g21
I00
sg49
I01
sg23
I00
sg19
(lp5252
g2406
asg22
Nsg2406
g0
(g429
g62
(lp5253
g2418
ag2419
ag2420
ag2421
ag2422
ag2423
ag2424
ag2425
ag2426
ag2427
ag2428
ag2429
ag2430
ag2431
ag2432
ag2433
ag2434
ag2435
ag2436
ag2437
ag2438
ag2439
ag2440
ag2441
ag2442
ag2443
ag2444
ag2445
ag2446
ag2447
ag2448
ag2449
ag2450
ag2451
ag2452
ag2453
ag2454
ag2455
ag2456
ag2457
ag2458
ag2459
ag2460
ag2461
ag2462
ag2463
ag2464
ag2465
ag2466
ag2467
ag2468
ag2469
ag2470
ag2471
ag2472
ag2473
ag2474
ag2475
ag2476
ag2477
ag2478
ag2479
ag2480
ag2481
ag2482
ag2483
ag2484
ag2485
ag2486
ag2487
ag2488
ag2489
ag2490
ag2491
ag2492
ag2493
ag2494
ag2495
ag2496
ag2497
ag2498
ag2499
ag2500
ag2501
ag2502
ag2503
ag2504
ag2505
ag2506
ag2507
ag2508
ag2509
ag2510
ag2511
ag2512
ag2513
ag2514
ag2515
ag2516
ag2517
ag2518
ag2519
ag2520
ag2521
ag2522
ag2523
ag2524
ag2525
ag2526
ag2527
ag2528
ag2529
ag2530
ag2531
ag2532
ag2533
ag2534
ag2535
ag2536
ag2537
ag2538
ag2539
ag2540
ag2541
ag2542
ag2543
ag2544
ag2545
ag2546
ag2547
ag2548
ag2549
ag2550
ag2551
ag2552
ag2553
ag2554
ag2555
ag2556
ag2557
ag2558
ag2559
ag2560
ag2561
ag2562
ag2563
ag2564
ag2565
ag2566
ag2567
ag2568
ag2569
ag2570
ag2571
ag2572
ag2573
ag2574
ag2575
ag2576
ag2577
ag2578
ag2579
ag2580
ag2581
ag2582
ag2583
ag2584
ag2585
ag2586
ag2587
ag2588
ag2589
ag2590
ag2591
ag2592
ag2593
ag2594
ag2595
ag2596
ag2597
ag2598
ag2599
ag2600
ag2601
ag2602
ag2603
ag2604
ag2605
ag2606
ag2607
ag2608
ag2609
ag2610
ag2611
ag2612
ag2613
ag2614
ag2615
ag2616
ag2617
ag2618
ag2619
ag2620
ag2621
ag2622
ag2623
ag2624
atp5254
Rp5255
(dp5256
g21
I00
sg49
I00
sg23
I00
sg887
I1
sbsg27
g5248
sbsVCondDB
p5257
g0
(g359
g2
Ntp5258
Rp5259
(dp5260
g21
I00
sg49
I01
sg23
I00
sg19
(lp5261
g2969
ag2970
asg22
Nsg2969
g0
(g359
g2
Ntp5262
Rp5263
(dp5264
g21
I00
sg49
I01
sg23
I00
sg19
(lp5265
g2985
ag2986
ag2987
ag2988
ag2989
asg22
Nsg2985
g0
(g45
g2
Ntp5266
Rp5267
(dp5268
g21
I00
sg49
I00
sg23
I00
sg50
g59
sbsg2986
g0
(g75
g2
Ntp5269
Rp5270
(dp5271
g21
I00
sg49
I00
sg23
I00
sg50
I0
sbsg2987
g0
(g45
g2
Ntp5272
Rp5273
(dp5274
g21
I00
sg49
I00
sg23
I00
sg50
g59
sbsg2988
g0
(g75
g2
Ntp5275
Rp5276
(dp5277
g21
I00
sg49
I00
sg23
I00
sg50
I0
sbsg2989
g0
(g75
g2
Ntp5278
Rp5279
(dp5280
g21
I00
sg49
I00
sg23
I00
sg50
I0
sbsbsg2970
g0
(g45
g2
Ntp5281
Rp5282
(dp5283
g21
I00
sg49
I01
sg23
I00
sg50
g59
sbsg27
g5257
sbsg3227
g3278
sVmaxEvents
p5284
g0
(g359
g2
Ntp5285
Rp5286
(dp5287
g21
I00
sg49
I00
sg23
I01
sg19
(lp5288
g5118
ag2368
asg22
Nsg5118
g0
(g424
g2
Ntp5289
Rp5290
(dp5291
g21
I00
sg49
I00
sg23
I00
sg428
g75
sg430
g0
(g75
g2
Ntp5292
Rp5293
(dp5294
g21
I00
sg49
I00
sg23
I00
sg50
I10000
sbsbsg2368
g0
(g424
g2
Ntp5295
Rp5296
(dp5297
g21
I00
sg49
I00
sg23
I00
sg428
g0
(cFWCore.ParameterSet.Types
_AllowedParameterTypes
p5298
g2
Ntp5299
Rp5300
(dp5301
V_AllowedParameterTypes__types
p5302
(g75
g359
tp5303
sV_default
p5304
NsV__name__
p5305
Vallowed(cms.int32,cms.PSet)
p5306
sbsg430
Nsbsg27
g5284
sbssV_Process__vpsets
p5307
(dp5308
sV_cloneToObjectDict
p5309
(dp5310
L140425272827712L
g0
(g359
g2
Ntp5311
Rp5312
(dp5313
g21
I00
sg49
I00
sg23
I00
sg19
(lp5314
g5127
ag5128
ag5129
ag5130
ag5131
ag5132
ag5133
ag5134
ag5135
ag5136
ag5137
ag5138
ag5139
ag5140
ag5141
ag5142
ag5143
ag5144
ag5145
ag5146
ag5147
ag5148
ag5149
ag5150
asg22
Nsg5127
g0
(g67
g2
Ntp5315
Rp5316
(dp5317
g21
I00
sg49
I00
sg23
I00
sg50
I1
sbsg5128
g0
(g67
g2
Ntp5318
Rp5319
(dp5320
g21
I00
sg49
I00
sg23
I00
sg50
I0
sbsg5129
g0
(g67
g2
Ntp5321
Rp5322
(dp5323
g21
I00
sg49
I00
sg23
I00
sg50
I1
sbsg5130
g0
(g67
g2
Ntp5324
Rp5325
(dp5326
g21
I00
sg49
I00
sg23
I00
sg50
I0
sbsg5131
g0
(g359
g2
Ntp5327
Rp5328
(dp5329
g21
I00
sg49
I00
sg23
I00
sg19
(lp5330
g5167
ag5168
asg22
Nsg5167
g0
(g67
g2
Ntp5331
Rp5332
(dp5333
g21
I00
sg49
I00
sg23
I00
sg50
I0
sbsg5168
g0
(g359
g2
Ntp5334
Rp5335
(dp5336
g21
I00
sg49
I00
sg23
I00
sg19
(lp5337
sg22
g0
(g5176
g2
Ntp5338
Rp5339
(dp5340
g21
I00
sg49
I00
sg23
I00
sg428
g67
sg430
Nsbsbsbsg5132
g0
(g429
g62
(lp5341
g5181
atp5342
Rp5343
(dp5344
g21
I00
sg49
I00
sg23
I00
sg887
I1
sbsg5133
g0
(g71
g2
Ntp5345
Rp5346
(dp5347
g21
I00
sg49
I00
sg23
I00
sg50
I00
sbsg5134
g0
(g45
g2
Ntp5348
Rp5349
(dp5350
g21
I00
sg49
I00
sg23
I00
sg50
g5191
sbsg5135
g0
(g71
g2
Ntp5351
Rp5352
(dp5353
g21
I00
sg49
I00
sg23
I00
sg50
I00
sbsg5136
g0
(g71
g2
Ntp5354
Rp5355
(dp5356
g21
I00
sg49
I00
sg23
I00
sg50
I01
sbsg5137
g0
(g71
g2
Ntp5357
Rp5358
(dp5359
g21
I00
sg49
I00
sg23
I00
sg50
I00
sbsg5138
g0
(g71
g2
Ntp5360
Rp5361
(dp5362
g21
I00
sg49
I00
sg23
I00
sg50
I01
sbsg5139
g0
(g424
g2
Ntp5363
Rp5364
(dp5365
g21
I00
sg49
I00
sg23
I00
sg428
g67
sg430
Nsbsg5140
g0
(g429
g62
(lp5366
tp5367
Rp5368
(dp5369
g21
I00
sg49
I00
sg23
I00
sg887
I1
sbsg5141
g0
(g429
g62
(lp5370
tp5371
Rp5372
(dp5373
g21
I00
sg49
I00
sg23
I00
sg887
I1
sbsg5142
g0
(g429
g62
(lp5374
tp5375
Rp5376
(dp5377
g21
I00
sg49
I00
sg23
I00
sg887
I1
sbsg5143
g0
(g429
g62
(lp5378
tp5379
Rp5380
(dp5381
g21
I00
sg49
I00
sg23
I00
sg887
I1
sbsg5144
g0
(g429
g62
(lp5382
tp5383
Rp5384
(dp5385
g21
I00
sg49
I00
sg23
I00
sg887
I1
sbsg5145
g0
(g3016
g62
(lp5386
tp5387
Rp5388
(dp5389
g21
I00
sg49
I00
sg23
I00
sg887
I1
sbsg5146
g0
(g429
g62
(lp5390
tp5391
Rp5392
(dp5393
g21
I00
sg49
I00
sg23
I00
sg887
I1
sbsg5147
g0
(g71
g2
Ntp5394
Rp5395
(dp5396
g21
I00
sg49
I00
sg23
I00
sg50
I00
sbsg5148
g0
(g5238
g2
Ntp5397
Rp5398
(dp5399
g21
I00
sg49
I00
sg23
I00
sg428
g71
sg430
Nsbsg5149
g0
(g5238
g2
Ntp5400
Rp5401
(dp5402
g21
I00
sg49
I00
sg23
I00
sg428
g45
sg430
Nsbsg5150
g0
(g5238
g2
Ntp5403
Rp5404
(dp5405
g21
I00
sg49
I00
sg23
I00
sg428
g71
sg430
Nsbsg27
NsbsL140425436282944L
g0
(g359
g2
Ntp5406
Rp5407
(dp5408
g21
I00
sg49
I00
sg23
I00
sg19
(lp5409
g5118
ag2368
asg22
Nsg5118
g0
(g424
g2
Ntp5410
Rp5411
(dp5412
g21
I00
sg49
I00
sg23
I00
sg428
g75
sg430
Nsbsg2368
g0
(g424
g2
Ntp5413
Rp5414
(dp5415
g21
I00
sg49
I00
sg23
I00
sg428
g0
(g5298
g2
Ntp5416
Rp5417
(dp5418
g5302
(g75
g359
tp5419
sg5304
Nsg5305
Vallowed(cms.int32,cms.PSet)
p5420
sbsg430
Nsbsg27
NsbsL140425436283040L
g5115
sL140425273880688L
g5124
sL140425275148608L
g2933
sL140425274424192L
g5250
sL140425274055072L
g15
sL140425275153280L
g3954
sL140425272648368L
g3998
sL140425272650768L
g4015
sL140425436270544L
g4020
sL140425436267952L
g4028
sL140425436270112L
g4033
sL140425272868480L
g4041
sL140425436590816L
g4078
sL140425272647840L
g4086
sL140425436591152L
g4091
sL140425436593120L
g4099
sL140425272648128L
g4107
sL140425272865840L
g4117
sL140425436591440L
g4122
sL140425272648320L
g4127
sL140425306686704L
g4135
sL140425275153088L
g4140
sL140425274423712L
g4151
sL140425436268096L
g4160
sL140425274638832L
g2944
sL140425274640752L
g4168
sL140425274640800L
g4179
sL140425274640992L
g4188
sL140425436269488L
g4197
sL140425274640176L
g4214
sL140425274639744L
g4251
sL140425274639264L
g4281
sL140425272649808L
g4300
sL140425272866032L
g4312
sL140425272866944L
g4329
sL140425272865456L
g4344
sL140425274446704L
g4353
sL140425274447376L
g4358
sL140425272881648L
g4374
sL140425274449872L
g4386
sL140425276110112L
g4403
sL140425274448816L
g4419
sL140425274449008L
g4434
sL140425272884240L
g4443
sL140425272882032L
g4455
sL140425271010880L
g4523
sL140425276080032L
g5259
sL140425274609824L
g4531
sL140425274612368L
g4540
sL140425276076144L
g2965
sL140425274552272L
g3278
sL140425274548576L
g3045
sL140425270586480L
g4548
sL140425270585616L
g4566
sL140425270650768L
g4638
sL140425270650672L
g4716
sL140425271010592L
g3215
sL140425271010832L
g5105
sL140425276078256L
g4742
sL140425270649280L
g4757
sL140425270621232L
g4766
sL140425270623296L
g0
(g3952
g2
Ntp5421
Rp5422
(dp5423
g17
g4768
sg19
(lp5424
g4770
ag4771
ag3048
asg21
I00
sg22
Nsg4770
g0
(g45
g2
Ntp5425
Rp5426
(dp5427
g21
I00
sg49
I01
sg23
I01
sg50
VforRawToDigi
p5428
sbsg23
I00
sg4771
g0
(g3016
g62
(lp5429
g0
(g359
g2
Ntp5430
Rp5431
(dp5432
g21
I00
sg49
I01
sg23
I00
sg19
(lp5433
g4780
ag4781
asg22
Nsg4780
g0
(g45
g2
Ntp5434
Rp5435
(dp5436
g21
I00
sg49
I01
sg23
I00
sg50
g4785
sbsg4781
g0
(g45
g2
Ntp5437
Rp5438
(dp5439
g21
I00
sg49
I01
sg23
I00
sg50
g59
sbsbag0
(g359
g2
Ntp5440
Rp5441
(dp5442
g21
I00
sg49
I01
sg23
I00
sg19
(lp5443
g4780
ag4781
asg22
Nsg4780
g0
(g45
g2
Ntp5444
Rp5445
(dp5446
g21
I00
sg49
I01
sg23
I00
sg50
g4796
sbsg4781
g0
(g45
g2
Ntp5447
Rp5448
(dp5449
g21
I00
sg49
I01
sg23
I00
sg50
g59
sbsbatp5450
Rp5451
(dp5452
g21
I00
sg49
I01
sg23
I00
sg887
I1
sbsg3048
g0
(g45
g2
Ntp5453
Rp5454
(dp5455
g21
I00
sg49
I01
sg23
I01
sg50
g5428
sbsg24
V/cvmfs/cms.cern.ch/slc7_amd64_gcc12/cms/cmssw-patch/CMSSW_14_0_5_patch1/src/CalibTracker/SiPixelESProducers/python/siPixelQualityForRawToDigiESProducer_cfi.py
p5456
sg26
I5
sg27
NsbsL140425270537952L
g4808
sL140425270536272L
g4851
sL140425270537040L
g4903
sL140425270621712L
g4942
sL140425270534208L
g5048
sL140425270584560L
g5054
sL140425269883856L
g30
sL140425269906256L
g97
sL140425269827808L
g125
sL140425269828912L
g142
sL140425269828432L
g181
sL140425269907120L
g211
sL140425270093616L
g238
sL140425269736112L
g305
sL140425269930688L
g337
sL140425269488992L
g434
sL140425269735968L
g461
sL140425270345888L
g1739
sL140425270346416L
g475
sL140425270432864L
g559
sL140425270476752L
g593
sL140425270473872L
g5071
sL140425270476128L
g5086
sL140425270587104L
g630
sL140425269905584L
g661
sL140425269739184L
g688
sL140425269928096L
g731
sL140425269776784L
g748
sL140425269736400L
g777
sL140425269928432L
g801
sL140425269928816L
g818
sL140425274449584L
g835
sL140425269500464L
g916
sL140425269500608L
g931
sL140425270689360L
g955
sL140425276077152L
g1048
sL140425270188256L
g1127
sL140425270117184L
g1163
sL140425269905104L
g1179
sL140425270232928L
g1193
sL140425270243040L
g1206
sL140425269884000L
g1218
sL140425269883568L
g1266
sL140425270189120L
g1291
sL140425270242032L
g1306
sL140425270695920L
g1320
sL140425270695824L
g1352
sL140425270695872L
g1751
sL140425270695248L
g1366
sL140425270345840L
g1378
sL140425270347712L
g1433
sL140425270200448L
g1472
sL140425270241408L
g1484
sL140425269930736L
g1496
sL140425269479936L
g1566
sL140425269991888L
g1636
sL140425269928960L
g1706
sL140425269827088L
g1909
sL140425269735872L
g1943
sL140425269498496L
g1995
sL140425269498880L
g2017
sL140425269488800L
g2037
sL140425269498112L
g2067
sL140425269479984L
g2088
sL140425269805984L
g1918
sL140425269738656L
g1926
sL140425269829488L
g2114
sL140425269882944L
g2130
sL140425270103632L
g1951
sL140425269498304L
g2003
sL140425269498688L
g2025
sL140425269487936L
g2045
sL140425269487024L
g2075
sL140425269978928L
g2096
sL140425270346128L
g1968
sL140425270650720L
g1980
sL140425274446368L
g5286
sL140425269552080L
g1842
sL140425269552848L
g1870
ssV_Process__InExtendCall
p5457
I00
sV_Process__partialschedules
p5458
(dp5459
sV_Process__isStrict
p5460
I00
sV_Process__modifiers
p5461
(tsV_Process__accelerators
p5462
(dp5463
VProcessAcceleratorAlpaka
p5464
g0
(cHeterogeneousCore.AlpakaCore.ProcessAcceleratorAlpaka
ProcessAcceleratorAlpaka
p5465
g2
Ntp5466
Rp5467
(dp5468
V_backend
p5469
NsbsVProcessAcceleratorCUDA
p5470
g0
(cHeterogeneousCore.CUDACore.ProcessAcceleratorCUDA
ProcessAcceleratorCUDA
p5471
g2
Ntp5472
Rp5473
(dp5474
V_label
p5475
Vgpu-nvidia
p5476
sbsVProcessAcceleratorROCm
p5477
g0
(cHeterogeneousCore.ROCmCore.ProcessAcceleratorROCm
ProcessAcceleratorROCm
p5478
g2
Ntp5479
Rp5480
(dp5481
g5475
Vgpu-amd
p5482
sbssg5113
g5115
sg2153
g2156
sg5122
g5124
sg2400
g2402
sg2930
g2933
sg2640
g2642
sg5248
g5250
sg12
g15
sg3951
g3954
sg3996
g3998
sg4013
g4015
sg4018
g4020
sg4026
g4028
sg4031
g4033
sg4039
g4041
sg4076
g4078
sg4084
g4086
sg4089
g4091
sg4097
g4099
sg4105
g4107
sg4115
g4117
sg4120
g4122
sg4125
g4127
sg4133
g4135
sg4138
g4140
sg4149
g4151
sg4158
g4160
sg2942
g2944
sg4166
g4168
sg4177
g4179
sg4186
g4188
sg4195
g4197
sg4212
g4214
sg4249
g4251
sg4279
g4281
sg4298
g4300
sg4310
g4312
sg4327
g4329
sg4342
g4344
sg4351
g4353
sg4356
g4358
sg4372
g4374
sg4384
g4386
sg4401
g4403
sg4417
g4419
sg4432
g4434
sg4441
g4443
sg4453
g4455
sg4521
g4523
sg5257
g5259
sg4529
g4531
sg4538
g4540
sg2963
g2965
sg3227
g3278
sg3043
g3045
sg4546
g4548
sg4564
g4566
sg4636
g4638
sg4714
g4716
sg3213
g3215
sg5102
g5105
sg4740
g4742
sg4755
g4757
sg4764
g4766
sg4806
g4808
sg4849
g4851
sg4901
g4903
sg4940
g4942
sg5046
g5048
sg5052
g5054
sg5464
g5467
sg5470
g5473
sg5477
g5480
sg28
g30
sg95
g97
sg123
g125
sg140
g142
sg179
g181
sg209
g211
sg236
g238
sg303
g305
sg335
g337
sg432
g434
sg459
g461
sg1736
g1739
sg473
g475
sg557
g559
sg591
g593
sg5069
g5071
sg5084
g5086
sg628
g630
sg659
g661
sg686
g688
sg729
g731
sg746
g748
sg775
g777
sg799
g801
sg816
g818
sg833
g835
sg914
g916
sg929
g931
sg953
g955
sg1046
g1048
sg1125
g1127
sg1161
g1163
sg1177
g1179
sg1191
g1193
sg1204
g1206
sg1216
g1218
sg1264
g1266
sg1289
g1291
sg1304
g1306
sg1318
g1320
sg1332
g1352
sg1749
g1751
sg1364
g1366
sg1376
g1378
sg1431
g1433
sg1470
g1472
sg1482
g1484
sg1494
g1496
sg1564
g1566
sg1634
g1636
sg1704
g1706
sg32
g1909
sg345
g1943
sg1993
g1995
sg2015
g2017
sg2035
g2037
sg2065
g2067
sg2086
g2088
sg1940
g1918
sg1938
g1926
sg2112
g2114
sg2128
g2130
sg1991
g1951
sg2013
g2003
sg2033
g2025
sg2063
g2045
sg2084
g2075
sg2108
g2096
sg1976
g1968
sg1988
g1980
sg5284
g5286
sVsource
p5483
g1824
sg1826
g1824
sg1839
g1842
sg2918
g2920
sg1867
g1870
sb.